---
triple:          'x86_64-apple-darwin'
binary-path:     '/Volumes/sourcecode/cpp/AoC23/01/output/01_2.out'
relocations:
  - { offsetInCU: 0xAAD7, offset: 0xAAD7, size: 0x8, addend: 0x0, symName: __ZNSt3__115regex_constants13__get_grammarB7v160006ENS0_18syntax_option_typeE, symObjAddr: 0x6AC0, symBinAddr: 0x100008700, symSize: 0x20 }
  - { offsetInCU: 0xAB05, offset: 0xAB05, size: 0x8, addend: 0x0, symName: __ZNSt3__115regex_constantsoRB7v160006ERNS0_18syntax_option_typeES1_, symObjAddr: 0x6AE0, symBinAddr: 0x100008720, symSize: 0x30 }
  - { offsetInCU: 0xAB42, offset: 0xAB42, size: 0x8, addend: 0x0, symName: __ZNSt3__115regex_constantsorB7v160006ENS0_18syntax_option_typeES1_, symObjAddr: 0x6D90, symBinAddr: 0x1000089D0, symSize: 0x20 }
  - { offsetInCU: 0xAB7F, offset: 0xAB7F, size: 0x8, addend: 0x0, symName: __ZNSt3__115regex_constantsanB7v160006ENS0_18syntax_option_typeES1_, symObjAddr: 0x9970, symBinAddr: 0x10000B5B0, symSize: 0x20 }
  - { offsetInCU: 0xABBC, offset: 0xABBC, size: 0x8, addend: 0x0, symName: __ZNSt3__115regex_constantsanB7v160006ENS0_15match_flag_typeES1_, symObjAddr: 0x9B50, symBinAddr: 0x10000B790, symSize: 0x20 }
  - { offsetInCU: 0xABF9, offset: 0xABF9, size: 0x8, addend: 0x0, symName: __ZNSt3__115regex_constantsorB7v160006ENS0_15match_flag_typeES1_, symObjAddr: 0xAFE0, symBinAddr: 0x10000CC20, symSize: 0x20 }
  - { offsetInCU: 0xAC36, offset: 0xAC36, size: 0x8, addend: 0x0, symName: __ZNSt3__115regex_constantscoB7v160006ENS0_15match_flag_typeE, symObjAddr: 0xB000, symBinAddr: 0x10000CC40, symSize: 0x20 }
  - { offsetInCU: 0xAC64, offset: 0xAC64, size: 0x8, addend: 0x0, symName: __ZNSt3__115regex_constantsaNB7v160006ERNS0_15match_flag_typeES1_, symObjAddr: 0x23530, symBinAddr: 0x100025170, symSize: 0x30 }
  - { offsetInCU: 0xACA1, offset: 0xACA1, size: 0x8, addend: 0x0, symName: __ZNSt3__115regex_constantsoRB7v160006ERNS0_15match_flag_typeES1_, symObjAddr: 0x236B0, symBinAddr: 0x1000252F0, symSize: 0x30 }
  - { offsetInCU: 0x11CFE, offset: 0x11CFE, size: 0x8, addend: 0x0, symName: __ZNSt3__124__put_character_sequenceB7v160006IcNS_11char_traitsIcEEEERNS_13basic_ostreamIT_T0_EES7_PKS4_m, symObjAddr: 0x5C10, symBinAddr: 0x100007850, symSize: 0x1F0 }
  - { offsetInCU: 0x12FFD, offset: 0x12FFD, size: 0x8, addend: 0x0, symName: __ZNSt3__17advanceB7v160006IPKcllvEEvRT_T0_, symObjAddr: 0x9C00, symBinAddr: 0x10000B840, symSize: 0x50 }
  - { offsetInCU: 0x1BE22, offset: 0x1BE22, size: 0x8, addend: 0x0, symName: __ZNSt3__17advanceB7v160006IPNS_9sub_matchIPKcEEmmvEEvRT_T0_, symObjAddr: 0x285A0, symBinAddr: 0x10002A1E0, symSize: 0x50 }
  - { offsetInCU: 0x1BE8D, offset: 0x1BE8D, size: 0x8, addend: 0x0, symName: __ZNSt3__17advanceB7v160006IPNS_4pairImPKcEEmmvEEvRT_T0_, symObjAddr: 0x28BF0, symBinAddr: 0x10002A830, symSize: 0x50 }
  - { offsetInCU: 0x1C21B, offset: 0x1C21B, size: 0x8, addend: 0x0, symName: __ZNSt3__17advanceB7v160006INS_11__wrap_iterIPKcEEllvEEvRT_T0_, symObjAddr: 0x2A460, symBinAddr: 0x10002C0A0, symSize: 0x50 }
  - { offsetInCU: 0x1C286, offset: 0x1C286, size: 0x8, addend: 0x0, symName: __ZNSt3__16copy_nB7v160006IPKcmPcEENS_9enable_ifIXsr33__is_cpp17_random_access_iteratorIT_EE5valueET1_E4typeES5_T0_S6_, symObjAddr: 0x2B000, symBinAddr: 0x10002CC40, symSize: 0x40 }
  - { offsetInCU: 0x1FCCA, offset: 0x1FCCA, size: 0x8, addend: 0x0, symName: __ZNSt3__1eqB7v160006IcNS_11char_traitsIcEENS_9allocatorIcEEEEbRKNS_12basic_stringIT_T0_T1_EEPKS6_, symObjAddr: 0x750, symBinAddr: 0x100002390, symSize: 0x90 }
  - { offsetInCU: 0x1FD31, offset: 0x1FD31, size: 0x8, addend: 0x0, symName: __ZNSt3__14findB7v160006INS_11__wrap_iterIPNS_12basic_stringIcNS_11char_traitsIcEENS_9allocatorIcEEEEEES7_EET_SA_SA_RKT0_, symObjAddr: 0x830, symBinAddr: 0x100002470, symSize: 0x80 }
  - { offsetInCU: 0x1FD8B, offset: 0x1FD8B, size: 0x8, addend: 0x0, symName: __ZNSt3__1eqB7v160006IPNS_12basic_stringIcNS_11char_traitsIcEENS_9allocatorIcEEEEEEbRKNS_11__wrap_iterIT_EESC_, symObjAddr: 0x910, symBinAddr: 0x100002550, symSize: 0x40 }
  - { offsetInCU: 0x1FDCE, offset: 0x1FDCE, size: 0x8, addend: 0x0, symName: __ZNSt3__1lsB7v160006INS_11char_traitsIcEEEERNS_13basic_ostreamIcT_EES6_PKc, symObjAddr: 0x950, symBinAddr: 0x100002590, symSize: 0x40 }
  - { offsetInCU: 0x1FE14, offset: 0x1FE14, size: 0x8, addend: 0x0, symName: __ZNSt3__1neB7v160006IPNS_12basic_stringIcNS_11char_traitsIcEENS_9allocatorIcEEEEEEbRKNS_11__wrap_iterIT_EESC_, symObjAddr: 0xF70, symBinAddr: 0x100002BB0, symSize: 0x30 }
  - { offsetInCU: 0x1FE57, offset: 0x1FE57, size: 0x8, addend: 0x0, symName: __ZNSt3__14endlB7v160006IcNS_11char_traitsIcEEEERNS_13basic_ostreamIT_T0_EES7_, symObjAddr: 0x10C0, symBinAddr: 0x100002D00, symSize: 0x50 }
  - { offsetInCU: 0x20C95, offset: 0x20C95, size: 0x8, addend: 0x0, symName: __ZNSt3__17getlineB7v160006IcNS_11char_traitsIcEENS_9allocatorIcEEEERNS_13basic_istreamIT_T0_EES9_RNS_12basic_stringIS6_S7_T1_EE, symObjAddr: 0x1DD0, symBinAddr: 0x100003A10, symSize: 0x50 }
  - { offsetInCU: 0x21206, offset: 0x21206, size: 0x8, addend: 0x0, symName: __ZNSt3__18distanceB7v160006INS_14regex_iteratorINS_11__wrap_iterIPKcEEcNS_12regex_traitsIcEEEEEENS_15iterator_traitsIT_E15difference_typeESA_SA_, symObjAddr: 0x1FB0, symBinAddr: 0x100003BF0, symSize: 0xE0 }
  - { offsetInCU: 0x21257, offset: 0x21257, size: 0x8, addend: 0x0, symName: __ZNSt3__1plB7v160006IcNS_11char_traitsIcEENS_9allocatorIcEEEENS_12basic_stringIT_T0_T1_EERKS9_SB_, symObjAddr: 0x2570, symBinAddr: 0x1000041B0, symSize: 0x110 }
  - { offsetInCU: 0x21304, offset: 0x21304, size: 0x8, addend: 0x0, symName: __ZNSt3__119__debug_db_insert_iB7v160006INS_11__wrap_iterIPNS_12basic_stringIcNS_11char_traitsIcEENS_9allocatorIcEEEEEEEEvPT_, symObjAddr: 0x2710, symBinAddr: 0x100004350, symSize: 0x10 }
  - { offsetInCU: 0x21335, offset: 0x21335, size: 0x8, addend: 0x0, symName: __ZNSt3__110__distanceB7v160006INS_14regex_iteratorINS_11__wrap_iterIPKcEEcNS_12regex_traitsIcEEEEEENS_15iterator_traitsIT_E15difference_typeESA_SA_NS_18input_iterator_tagE, symObjAddr: 0x27B0, symBinAddr: 0x1000043F0, symSize: 0x60 }
  - { offsetInCU: 0x21392, offset: 0x21392, size: 0x8, addend: 0x0, symName: __ZNSt3__122__make_exception_guardB7v160006INS_6vectorINS_9sub_matchINS_11__wrap_iterIPKcEEEENS_9allocatorIS7_EEE16__destroy_vectorEEENS_28__exception_guard_exceptionsIT_EESD_, symObjAddr: 0x2A70, symBinAddr: 0x1000046B0, symSize: 0x40 }
  - { offsetInCU: 0x213C7, offset: 0x213C7, size: 0x8, addend: 0x0, symName: __ZNSt3__119__debug_db_insert_cB7v160006INS_6vectorINS_9sub_matchINS_11__wrap_iterIPKcEEEENS_9allocatorIS7_EEEEEEvPT_, symObjAddr: 0x2AE0, symBinAddr: 0x100004720, symSize: 0x10 }
  - { offsetInCU: 0x213F8, offset: 0x213F8, size: 0x8, addend: 0x0, symName: __ZNSt3__119__allocate_at_leastB7v160006INS_9allocatorINS_9sub_matchINS_11__wrap_iterIPKcEEEEEEEENS_19__allocation_resultINS_16allocator_traitsIT_E7pointerEEERSB_m, symObjAddr: 0x2E20, symBinAddr: 0x100004A60, symSize: 0x40 }
  - { offsetInCU: 0x2143B, offset: 0x2143B, size: 0x8, addend: 0x0, symName: __ZNSt3__13minB7v160006ImEERKT_S3_S3_, symObjAddr: 0x2F40, symBinAddr: 0x100004B80, symSize: 0x30 }
  - { offsetInCU: 0x21668, offset: 0x21668, size: 0x8, addend: 0x0, symName: __ZNSt3__13minB7v160006ImNS_6__lessImmEEEERKT_S5_S5_T0_, symObjAddr: 0x2FA0, symBinAddr: 0x100004BE0, symSize: 0x50 }
  - { offsetInCU: 0x216FD, offset: 0x216FD, size: 0x8, addend: 0x0, symName: __ZNSt3__120__throw_length_errorB7v160006EPKc, symObjAddr: 0x3050, symBinAddr: 0x100004C90, symSize: 0x70 }
  - { offsetInCU: 0x21725, offset: 0x21725, size: 0x8, addend: 0x0, symName: __ZNSt3__117__libcpp_allocateB7v160006Emm, symObjAddr: 0x31C0, symBinAddr: 0x100004E00, symSize: 0x60 }
  - { offsetInCU: 0x2177F, offset: 0x2177F, size: 0x8, addend: 0x0, symName: __ZNSt3__124__is_overaligned_for_newB7v160006Em, symObjAddr: 0x3220, symBinAddr: 0x100004E60, symSize: 0x20 }
  - { offsetInCU: 0x217AD, offset: 0x217AD, size: 0x8, addend: 0x0, symName: __ZNSt3__121__libcpp_operator_newB7v160006IJmSt11align_val_tEEEPvDpT_, symObjAddr: 0x3240, symBinAddr: 0x100004E80, symSize: 0x30 }
  - { offsetInCU: 0x217FA, offset: 0x217FA, size: 0x8, addend: 0x0, symName: __ZNSt3__121__libcpp_operator_newB7v160006IJmEEEPvDpT_, symObjAddr: 0x3270, symBinAddr: 0x100004EB0, symSize: 0x20 }
  - { offsetInCU: 0x21833, offset: 0x21833, size: 0x8, addend: 0x0, symName: __ZNSt3__112__to_addressB7v160006INS_9sub_matchINS_11__wrap_iterIPKcEEEEEEPT_S8_, symObjAddr: 0x3370, symBinAddr: 0x100004FB0, symSize: 0x10 }
  - { offsetInCU: 0x21868, offset: 0x21868, size: 0x8, addend: 0x0, symName: __ZNSt3__130__uninitialized_allocator_copyB7v160006INS_9allocatorINS_9sub_matchINS_11__wrap_iterIPKcEEEEEEPS7_S9_S9_EET2_RT_T0_T1_SA_, symObjAddr: 0x3400, symBinAddr: 0x100005040, symSize: 0x100 }
  - { offsetInCU: 0x21906, offset: 0x21906, size: 0x8, addend: 0x0, symName: __ZNSt3__122__make_exception_guardB7v160006INS_29_AllocatorDestroyRangeReverseINS_9allocatorINS_9sub_matchINS_11__wrap_iterIPKcEEEEEEPS8_EEEENS_28__exception_guard_exceptionsIT_EESD_, symObjAddr: 0x3560, symBinAddr: 0x1000051A0, symSize: 0x60 }
  - { offsetInCU: 0x2193B, offset: 0x2193B, size: 0x8, addend: 0x0, symName: __ZNSt3__119__allocator_destroyB7v160006INS_9allocatorINS_9sub_matchINS_11__wrap_iterIPKcEEEEEENS_16reverse_iteratorIPS7_EESB_EEvRT_T0_T1_, symObjAddr: 0x37F0, symBinAddr: 0x100005430, symSize: 0x70 }
  - { offsetInCU: 0x2199E, offset: 0x2199E, size: 0x8, addend: 0x0, symName: __ZNSt3__1neB7v160006IPNS_9sub_matchINS_11__wrap_iterIPKcEEEES7_EEbRKNS_16reverse_iteratorIT_EERKNS8_IT0_EE, symObjAddr: 0x3890, symBinAddr: 0x1000054D0, symSize: 0x40 }
  - { offsetInCU: 0x219EA, offset: 0x219EA, size: 0x8, addend: 0x0, symName: __ZNSt3__112__to_addressB7v160006INS_16reverse_iteratorIPNS_9sub_matchINS_11__wrap_iterIPKcEEEEEEvEENS_5decayIDTclsr19__to_address_helperIT_EE6__callclsr3stdE7declvalIRKSB_EEEEE4typeESD_, symObjAddr: 0x3900, symBinAddr: 0x100005540, symSize: 0x20 }
  - { offsetInCU: 0x21A49, offset: 0x21A49, size: 0x8, addend: 0x0, symName: __ZNSt3__118__debug_db_erase_cB7v160006INS_6vectorINS_9sub_matchINS_11__wrap_iterIPKcEEEENS_9allocatorIS7_EEEEEEvPT_, symObjAddr: 0x3BD0, symBinAddr: 0x100005810, symSize: 0x10 }
  - { offsetInCU: 0x21A7A, offset: 0x21A7A, size: 0x8, addend: 0x0, symName: __ZNSt3__119__libcpp_deallocateB7v160006EPvmm, symObjAddr: 0x3D00, symBinAddr: 0x100005940, symSize: 0x60 }
  - { offsetInCU: 0x21ADF, offset: 0x21ADF, size: 0x8, addend: 0x0, symName: __ZNSt3__127__do_deallocate_handle_sizeB7v160006IJSt11align_val_tEEEvPvmDpT_, symObjAddr: 0x3D60, symBinAddr: 0x1000059A0, symSize: 0x30 }
  - { offsetInCU: 0x21B32, offset: 0x21B32, size: 0x8, addend: 0x0, symName: __ZNSt3__127__do_deallocate_handle_sizeB7v160006IJEEEvPvmDpT_, symObjAddr: 0x3D90, symBinAddr: 0x1000059D0, symSize: 0x20 }
  - { offsetInCU: 0x21B70, offset: 0x21B70, size: 0x8, addend: 0x0, symName: __ZNSt3__124__libcpp_operator_deleteB7v160006IJPvSt11align_val_tEEEvDpT_, symObjAddr: 0x3DB0, symBinAddr: 0x1000059F0, symSize: 0x30 }
  - { offsetInCU: 0x21BB9, offset: 0x21BB9, size: 0x8, addend: 0x0, symName: __ZNSt3__124__libcpp_operator_deleteB7v160006IJPvEEEvDpT_, symObjAddr: 0x3DE0, symBinAddr: 0x100005A20, symSize: 0x20 }
  - { offsetInCU: 0x21BEE, offset: 0x21BEE, size: 0x8, addend: 0x0, symName: __ZNSt3__134__libcpp_atomic_refcount_decrementB7v160006IlEET_RS1_, symObjAddr: 0x3FC0, symBinAddr: 0x100005C00, symSize: 0x30 }
  - { offsetInCU: 0x21C23, offset: 0x21C23, size: 0x8, addend: 0x0, symName: __ZNSt3__119__debug_db_insert_cB7v160006INS_12basic_stringIcNS_11char_traitsIcEENS_9allocatorIcEEEEEEvPT_, symObjAddr: 0x4110, symBinAddr: 0x100005D50, symSize: 0x10 }
  - { offsetInCU: 0x21C87, offset: 0x21C87, size: 0x8, addend: 0x0, symName: __ZNSt3__118__constexpr_strlenB7v160006EPKc, symObjAddr: 0x4610, symBinAddr: 0x100006250, symSize: 0x20 }
  - { offsetInCU: 0x21CB3, offset: 0x21CB3, size: 0x8, addend: 0x0, symName: __ZNSt3__122__make_exception_guardB7v160006INS_6vectorINS_12basic_stringIcNS_11char_traitsIcEENS_9allocatorIcEEEENS5_IS7_EEE16__destroy_vectorEEENS_28__exception_guard_exceptionsIT_EESC_, symObjAddr: 0x4780, symBinAddr: 0x1000063C0, symSize: 0x40 }
  - { offsetInCU: 0x21CE8, offset: 0x21CE8, size: 0x8, addend: 0x0, symName: __ZNSt3__119__debug_db_insert_cB7v160006INS_6vectorINS_12basic_stringIcNS_11char_traitsIcEENS_9allocatorIcEEEENS5_IS7_EEEEEEvPT_, symObjAddr: 0x47F0, symBinAddr: 0x100006430, symSize: 0x10 }
  - { offsetInCU: 0x21D19, offset: 0x21D19, size: 0x8, addend: 0x0, symName: __ZNSt3__119__allocate_at_leastB7v160006INS_9allocatorINS_12basic_stringIcNS_11char_traitsIcEENS1_IcEEEEEEEENS_19__allocation_resultINS_16allocator_traitsIT_E7pointerEEERSA_m, symObjAddr: 0x4B70, symBinAddr: 0x1000067B0, symSize: 0x40 }
  - { offsetInCU: 0x21D5C, offset: 0x21D5C, size: 0x8, addend: 0x0, symName: __ZNSt3__112__to_addressB7v160006INS_12basic_stringIcNS_11char_traitsIcEENS_9allocatorIcEEEEEEPT_S8_, symObjAddr: 0x4E50, symBinAddr: 0x100006A90, symSize: 0x10 }
  - { offsetInCU: 0x21D91, offset: 0x21D91, size: 0x8, addend: 0x0, symName: __ZNSt3__130__uninitialized_allocator_copyB7v160006INS_9allocatorINS_12basic_stringIcNS_11char_traitsIcEENS1_IcEEEEEEPKS6_S9_PS6_EET2_RT_T0_T1_SB_, symObjAddr: 0x4EE0, symBinAddr: 0x100006B20, symSize: 0x100 }
  - { offsetInCU: 0x21E2F, offset: 0x21E2F, size: 0x8, addend: 0x0, symName: __ZNSt3__122__make_exception_guardB7v160006INS_29_AllocatorDestroyRangeReverseINS_9allocatorINS_12basic_stringIcNS_11char_traitsIcEENS2_IcEEEEEEPS7_EEEENS_28__exception_guard_exceptionsIT_EESC_, symObjAddr: 0x5040, symBinAddr: 0x100006C80, symSize: 0x60 }
  - { offsetInCU: 0x21E64, offset: 0x21E64, size: 0x8, addend: 0x0, symName: __ZNSt3__119__allocator_destroyB7v160006INS_9allocatorINS_12basic_stringIcNS_11char_traitsIcEENS1_IcEEEEEENS_16reverse_iteratorIPS6_EESA_EEvRT_T0_T1_, symObjAddr: 0x52D0, symBinAddr: 0x100006F10, symSize: 0x70 }
  - { offsetInCU: 0x21EC7, offset: 0x21EC7, size: 0x8, addend: 0x0, symName: __ZNSt3__1neB7v160006IPNS_12basic_stringIcNS_11char_traitsIcEENS_9allocatorIcEEEES7_EEbRKNS_16reverse_iteratorIT_EERKNS8_IT0_EE, symObjAddr: 0x5370, symBinAddr: 0x100006FB0, symSize: 0x40 }
  - { offsetInCU: 0x21F13, offset: 0x21F13, size: 0x8, addend: 0x0, symName: __ZNSt3__112__to_addressB7v160006INS_16reverse_iteratorIPNS_12basic_stringIcNS_11char_traitsIcEENS_9allocatorIcEEEEEEvEENS_5decayIDTclsr19__to_address_helperIT_EE6__callclsr3stdE7declvalIRKSB_EEEEE4typeESD_, symObjAddr: 0x53E0, symBinAddr: 0x100007020, symSize: 0x20 }
  - { offsetInCU: 0x21F72, offset: 0x21F72, size: 0x8, addend: 0x0, symName: __ZNSt3__118__debug_db_erase_cB7v160006INS_6vectorINS_12basic_stringIcNS_11char_traitsIcEENS_9allocatorIcEEEENS5_IS7_EEEEEEvPT_, symObjAddr: 0x56C0, symBinAddr: 0x100007300, symSize: 0x10 }
  - { offsetInCU: 0x21FA3, offset: 0x21FA3, size: 0x8, addend: 0x0, symName: __ZNSt3__1eqB7v160006INS_9allocatorIcEEEEbRKNS_12basic_stringIcNS_11char_traitsIcEET_EES9_, symObjAddr: 0x5980, symBinAddr: 0x1000075C0, symSize: 0x110 }
  - { offsetInCU: 0x22016, offset: 0x22016, size: 0x8, addend: 0x0, symName: __ZNSt3__112__to_addressB7v160006IKcEEPT_S3_, symObjAddr: 0x5B20, symBinAddr: 0x100007760, symSize: 0x10 }
  - { offsetInCU: 0x2207E, offset: 0x2207E, size: 0x8, addend: 0x0, symName: __ZNSt3__118__constexpr_memcmpB7v160006IcEEiPKT_S3_m, symObjAddr: 0x5BE0, symBinAddr: 0x100007820, symSize: 0x30 }
  - { offsetInCU: 0x220CF, offset: 0x220CF, size: 0x8, addend: 0x0, symName: __ZNSt3__116__pad_and_outputB7v160006IcNS_11char_traitsIcEEEENS_19ostreambuf_iteratorIT_T0_EES6_PKS4_S8_S8_RNS_8ios_baseES4_, symObjAddr: 0x5E20, symBinAddr: 0x100007A60, symSize: 0x220 }
  - { offsetInCU: 0x2219F, offset: 0x2219F, size: 0x8, addend: 0x0, symName: __ZNSt3__112__to_addressB7v160006IcEEPT_S2_, symObjAddr: 0x6280, symBinAddr: 0x100007EC0, symSize: 0x10 }
  - { offsetInCU: 0x221D4, offset: 0x221D4, size: 0x8, addend: 0x0, symName: __ZNSt3__19use_facetB7v160006INS_5ctypeIcEEEERKT_RKNS_6localeE, symObjAddr: 0x6420, symBinAddr: 0x100008060, symSize: 0x30 }
  - { offsetInCU: 0x2220B, offset: 0x2220B, size: 0x8, addend: 0x0, symName: __ZNSt3__110__str_findB7v160006IcmNS_11char_traitsIcEELm18446744073709551615EEET0_PKT_S3_S6_S3_S3_, symObjAddr: 0x64B0, symBinAddr: 0x1000080F0, symSize: 0xB0 }
  - { offsetInCU: 0x222B2, offset: 0x222B2, size: 0x8, addend: 0x0, symName: __ZNSt3__118__search_substringB7v160006IcNS_11char_traitsIcEEEEPKT_S5_S5_S5_S5_, symObjAddr: 0x6560, symBinAddr: 0x1000081A0, symSize: 0x120 }
  - { offsetInCU: 0x2234C, offset: 0x2234C, size: 0x8, addend: 0x0, symName: __ZNSt3__123__constexpr_char_memchrB7v160006EPKcim, symObjAddr: 0x66F0, symBinAddr: 0x100008330, symSize: 0x30 }
  - { offsetInCU: 0x22394, offset: 0x22394, size: 0x8, addend: 0x0, symName: __ZNSt3__19use_facetB7v160006INS_7collateIcEEEERKT_RKNS_6localeE, symObjAddr: 0x6A70, symBinAddr: 0x1000086B0, symSize: 0x30 }
  - { offsetInCU: 0x223CB, offset: 0x223CB, size: 0x8, addend: 0x0, symName: __ZNSt3__119__throw_regex_errorB7v160006ILNS_15regex_constants10error_typeE17EEEvv, symObjAddr: 0x6D30, symBinAddr: 0x100008970, symSize: 0x60 }
  - { offsetInCU: 0x2285C, offset: 0x2285C, size: 0x8, addend: 0x0, symName: __ZNSt3__119__throw_regex_errorB7v160006ILNS_15regex_constants10error_typeE14EEEvv, symObjAddr: 0x7480, symBinAddr: 0x1000090C0, symSize: 0x60 }
  - { offsetInCU: 0x23427, offset: 0x23427, size: 0x8, addend: 0x0, symName: __ZNSt3__14swapB7v160006IPNS_13__empty_stateIcEEEENS_9enable_ifIXaasr21is_move_constructibleIT_EE5valuesr18is_move_assignableIS5_EE5valueEvE4typeERS5_S8_, symObjAddr: 0x81A0, symBinAddr: 0x100009DE0, symSize: 0x40 }
  - { offsetInCU: 0x23478, offset: 0x23478, size: 0x8, addend: 0x0, symName: __ZNSt3__14swapB7v160006IPNS_19__shared_weak_countEEENS_9enable_ifIXaasr21is_move_constructibleIT_EE5valuesr18is_move_assignableIS4_EE5valueEvE4typeERS4_S7_, symObjAddr: 0x81E0, symBinAddr: 0x100009E20, symSize: 0x40 }
  - { offsetInCU: 0x234C9, offset: 0x234C9, size: 0x8, addend: 0x0, symName: __ZNSt3__14nextB7v160006IPKcEENS_9enable_ifIXsr25__is_cpp17_input_iteratorIT_EE5valueES4_E4typeES4_NS_15iterator_traitsIS4_E15difference_typeE, symObjAddr: 0x9670, symBinAddr: 0x10000B2B0, symSize: 0x50 }
  - { offsetInCU: 0x2350C, offset: 0x2350C, size: 0x8, addend: 0x0, symName: __ZNSt3__119__throw_regex_errorB7v160006ILNS_15regex_constants10error_typeE6EEEvv, symObjAddr: 0x9870, symBinAddr: 0x10000B4B0, symSize: 0x60 }
  - { offsetInCU: 0x235B7, offset: 0x235B7, size: 0x8, addend: 0x0, symName: __ZNSt3__18__is_eolB7v160006IcEEbT_, symObjAddr: 0x9B70, symBinAddr: 0x10000B7B0, symSize: 0x40 }
  - { offsetInCU: 0x235EE, offset: 0x235EE, size: 0x8, addend: 0x0, symName: __ZNSt3__14prevB7v160006IPKcEENS_9enable_ifIXsr25__is_cpp17_input_iteratorIT_EE5valueES4_E4typeES4_NS_15iterator_traitsIS4_E15difference_typeE, symObjAddr: 0x9BB0, symBinAddr: 0x10000B7F0, symSize: 0x50 }
  - { offsetInCU: 0x23631, offset: 0x23631, size: 0x8, addend: 0x0, symName: __ZNSt3__121__convert_to_integralB7v160006El, symObjAddr: 0x9C50, symBinAddr: 0x10000B890, symSize: 0x10 }
  - { offsetInCU: 0x2365D, offset: 0x2365D, size: 0x8, addend: 0x0, symName: __ZNSt3__19__advanceB7v160006IPKcEEvRT_NS_15iterator_traitsIS3_E15difference_typeENS_26random_access_iterator_tagE, symObjAddr: 0x9C60, symBinAddr: 0x10000B8A0, symSize: 0x20 }
  - { offsetInCU: 0x238AE, offset: 0x238AE, size: 0x8, addend: 0x0, symName: __ZNSt3__134__libcpp_atomic_refcount_incrementB7v160006IlEET_RS1_, symObjAddr: 0xA8A0, symBinAddr: 0x10000C4E0, symSize: 0x30 }
  - { offsetInCU: 0x23BCA, offset: 0x23BCA, size: 0x8, addend: 0x0, symName: __ZNSt3__119__debug_db_insert_cB7v160006INS_6vectorINS_9sub_matchIPKcEENS_9allocatorIS5_EEEEEEvPT_, symObjAddr: 0xB2F0, symBinAddr: 0x10000CF30, symSize: 0x10 }
  - { offsetInCU: 0x23BFB, offset: 0x23BFB, size: 0x8, addend: 0x0, symName: __ZNSt3__118__debug_db_erase_cB7v160006INS_6vectorINS_9sub_matchIPKcEENS_9allocatorIS5_EEEEEEvPT_, symObjAddr: 0xB590, symBinAddr: 0x10000D1D0, symSize: 0x10 }
  - { offsetInCU: 0x23C2C, offset: 0x23C2C, size: 0x8, addend: 0x0, symName: __ZNSt3__112__to_addressB7v160006INS_9sub_matchIPKcEEEEPT_S6_, symObjAddr: 0xB6C0, symBinAddr: 0x10000D300, symSize: 0x10 }
  - { offsetInCU: 0x23C61, offset: 0x23C61, size: 0x8, addend: 0x0, symName: __ZNSt3__16fill_nB7v160006IPNS_9sub_matchIPKcEEmS4_EET_S6_T0_RKT1_, symObjAddr: 0xB960, symBinAddr: 0x10000D5A0, symSize: 0x40 }
  - { offsetInCU: 0x23CC4, offset: 0x23CC4, size: 0x8, addend: 0x0, symName: __ZNSt3__125__debug_db_invalidate_allB7v160006INS_6vectorINS_9sub_matchIPKcEENS_9allocatorIS5_EEEEEEvPT_, symObjAddr: 0xBC80, symBinAddr: 0x10000D8C0, symSize: 0x10 }
  - { offsetInCU: 0x23CF5, offset: 0x23CF5, size: 0x8, addend: 0x0, symName: __ZNSt3__18__fill_nB7v160006IPNS_9sub_matchIPKcEEmS4_EET_S6_T0_RKT1_, symObjAddr: 0xBC90, symBinAddr: 0x10000D8D0, symSize: 0x60 }
  - { offsetInCU: 0x23D58, offset: 0x23D58, size: 0x8, addend: 0x0, symName: __ZNSt3__121__convert_to_integralB7v160006Em, symObjAddr: 0xBCF0, symBinAddr: 0x10000D930, symSize: 0x10 }
  - { offsetInCU: 0x23D84, offset: 0x23D84, size: 0x8, addend: 0x0, symName: __ZNSt3__119__allocate_at_leastB7v160006INS_9allocatorINS_9sub_matchIPKcEEEEEENS_19__allocation_resultINS_16allocator_traitsIT_E7pointerEEERS9_m, symObjAddr: 0xBFE0, symBinAddr: 0x10000DC20, symSize: 0x40 }
  - { offsetInCU: 0x23DC7, offset: 0x23DC7, size: 0x8, addend: 0x0, symName: __ZNSt3__13maxB7v160006ImEERKT_S3_S3_, symObjAddr: 0xC1A0, symBinAddr: 0x10000DDE0, symSize: 0x30 }
  - { offsetInCU: 0x23E0A, offset: 0x23E0A, size: 0x8, addend: 0x0, symName: __ZNSt3__13maxB7v160006ImNS_6__lessImmEEEERKT_S5_S5_T0_, symObjAddr: 0xC1D0, symBinAddr: 0x10000DE10, symSize: 0x50 }
  - { offsetInCU: 0x23E64, offset: 0x23E64, size: 0x8, addend: 0x0, symName: __ZNSt3__119__throw_regex_errorB7v160006ILNS_15regex_constants10error_typeE12EEEvv, symObjAddr: 0xC420, symBinAddr: 0x10000E060, symSize: 0x60 }
  - { offsetInCU: 0x23E89, offset: 0x23E89, size: 0x8, addend: 0x0, symName: __ZNSt3__119__throw_regex_errorB7v160006ILNS_15regex_constants10error_typeE16EEEvv, symObjAddr: 0xC4E0, symBinAddr: 0x10000E120, symSize: 0x60 }
  - { offsetInCU: 0x23EAE, offset: 0x23EAE, size: 0x8, addend: 0x0, symName: __ZNSt3__119__debug_db_insert_cB7v160006INS_6vectorINS_7__stateIcEENS_9allocatorIS3_EEEEEEvPT_, symObjAddr: 0xC610, symBinAddr: 0x10000E250, symSize: 0x10 }
  - { offsetInCU: 0x23EDF, offset: 0x23EDF, size: 0x8, addend: 0x0, symName: __ZNSt3__112__to_addressB7v160006INS_7__stateIcEEEEPT_S4_, symObjAddr: 0xC900, symBinAddr: 0x10000E540, symSize: 0x10 }
  - { offsetInCU: 0x23F14, offset: 0x23F14, size: 0x8, addend: 0x0, symName: __ZNSt3__115__debug_db_swapB7v160006INS_6vectorINS_9sub_matchIPKcEENS_9allocatorIS5_EEEEEEvPT_SA_, symObjAddr: 0xCBD0, symBinAddr: 0x10000E810, symSize: 0x10 }
  - { offsetInCU: 0x23F53, offset: 0x23F53, size: 0x8, addend: 0x0, symName: __ZNSt3__119__debug_db_insert_cB7v160006INS_6vectorINS_4pairImPKcEENS_9allocatorIS5_EEEEEEvPT_, symObjAddr: 0xCD70, symBinAddr: 0x10000E9B0, symSize: 0x10 }
  - { offsetInCU: 0x23F84, offset: 0x23F84, size: 0x8, addend: 0x0, symName: __ZNSt3__115__debug_db_swapB7v160006INS_6vectorINS_4pairImPKcEENS_9allocatorIS5_EEEEEEvPT_SA_, symObjAddr: 0xCD80, symBinAddr: 0x10000E9C0, symSize: 0x10 }
  - { offsetInCU: 0x23FC3, offset: 0x23FC3, size: 0x8, addend: 0x0, symName: __ZNSt3__119__allocate_at_leastB7v160006INS_9allocatorINS_7__stateIcEEEEEENS_19__allocation_resultINS_16allocator_traitsIT_E7pointerEEERS7_m, symObjAddr: 0xD3C0, symBinAddr: 0x10000F000, symSize: 0x40 }
  - { offsetInCU: 0x24006, offset: 0x24006, size: 0x8, addend: 0x0, symName: __ZNSt3__142__uninitialized_allocator_move_if_noexceptB7v160006INS_9allocatorINS_7__stateIcEEEENS_16reverse_iteratorIPS3_EES7_S7_EET2_RT_T0_T1_S8_, symObjAddr: 0xD600, symBinAddr: 0x10000F240, symSize: 0x180 }
  - { offsetInCU: 0x240A5, offset: 0x240A5, size: 0x8, addend: 0x0, symName: __ZNSt3__14swapB7v160006IPNS_7__stateIcEEEENS_9enable_ifIXaasr21is_move_constructibleIT_EE5valuesr18is_move_assignableIS5_EE5valueEvE4typeERS5_S8_, symObjAddr: 0xD7D0, symBinAddr: 0x10000F410, symSize: 0x40 }
  - { offsetInCU: 0x240F6, offset: 0x240F6, size: 0x8, addend: 0x0, symName: __ZNSt3__125__debug_db_invalidate_allB7v160006INS_6vectorINS_7__stateIcEENS_9allocatorIS3_EEEEEEvPT_, symObjAddr: 0xD8B0, symBinAddr: 0x10000F4F0, symSize: 0x10 }
  - { offsetInCU: 0x24127, offset: 0x24127, size: 0x8, addend: 0x0, symName: __ZNSt3__122__make_exception_guardB7v160006INS_29_AllocatorDestroyRangeReverseINS_9allocatorINS_7__stateIcEEEENS_16reverse_iteratorIPS4_EEEEEENS_28__exception_guard_exceptionsIT_EESB_, symObjAddr: 0xD900, symBinAddr: 0x10000F540, symSize: 0x60 }
  - { offsetInCU: 0x2415C, offset: 0x2415C, size: 0x8, addend: 0x0, symName: __ZNSt3__1neB7v160006IPNS_7__stateIcEES3_EEbRKNS_16reverse_iteratorIT_EERKNS4_IT0_EE, symObjAddr: 0xD9A0, symBinAddr: 0x10000F5E0, symSize: 0x40 }
  - { offsetInCU: 0x241A8, offset: 0x241A8, size: 0x8, addend: 0x0, symName: __ZNSt3__112__to_addressB7v160006INS_16reverse_iteratorIPNS_7__stateIcEEEEvEENS_5decayIDTclsr19__to_address_helperIT_EE6__callclsr3stdE7declvalIRKS7_EEEEE4typeES9_, symObjAddr: 0xD9E0, symBinAddr: 0x10000F620, symSize: 0x20 }
  - { offsetInCU: 0x24207, offset: 0x24207, size: 0x8, addend: 0x0, symName: __ZNSt3__119__allocator_destroyB7v160006INS_9allocatorINS_7__stateIcEEEENS_16reverse_iteratorINS5_IPS3_EEEES8_EEvRT_T0_T1_, symObjAddr: 0xDCD0, symBinAddr: 0x10000F910, symSize: 0x70 }
  - { offsetInCU: 0x2426A, offset: 0x2426A, size: 0x8, addend: 0x0, symName: __ZNSt3__1neB7v160006INS_16reverse_iteratorIPNS_7__stateIcEEEES5_EEbRKNS1_IT_EERKNS1_IT0_EE, symObjAddr: 0xDD70, symBinAddr: 0x10000F9B0, symSize: 0x50 }
  - { offsetInCU: 0x242B6, offset: 0x242B6, size: 0x8, addend: 0x0, symName: __ZNSt3__112__to_addressB7v160006INS_16reverse_iteratorINS1_IPNS_7__stateIcEEEEEEvEENS_5decayIDTclsr19__to_address_helperIT_EE6__callclsr3stdE7declvalIRKS8_EEEEE4typeESA_, symObjAddr: 0xDDF0, symBinAddr: 0x10000FA30, symSize: 0x20 }
  - { offsetInCU: 0x24315, offset: 0x24315, size: 0x8, addend: 0x0, symName: __ZNSt3__118__debug_db_erase_cB7v160006INS_6vectorINS_4pairImPKcEENS_9allocatorIS5_EEEEEEvPT_, symObjAddr: 0xE6D0, symBinAddr: 0x100010310, symSize: 0x10 }
  - { offsetInCU: 0x24346, offset: 0x24346, size: 0x8, addend: 0x0, symName: __ZNSt3__112__to_addressB7v160006INS_4pairImPKcEEEEPT_S6_, symObjAddr: 0xE7C0, symBinAddr: 0x100010400, symSize: 0x10 }
  - { offsetInCU: 0x2437B, offset: 0x2437B, size: 0x8, addend: 0x0, symName: __ZNSt3__142__uninitialized_allocator_move_if_noexceptB7v160006INS_9allocatorINS_9sub_matchIPKcEEEENS_16reverse_iteratorIPS5_EES9_S9_EET2_RT_T0_T1_SA_, symObjAddr: 0xEF10, symBinAddr: 0x100010B50, symSize: 0x180 }
  - { offsetInCU: 0x2441A, offset: 0x2441A, size: 0x8, addend: 0x0, symName: __ZNSt3__14swapB7v160006IPNS_9sub_matchIPKcEEEENS_9enable_ifIXaasr21is_move_constructibleIT_EE5valuesr18is_move_assignableIS7_EE5valueEvE4typeERS7_SA_, symObjAddr: 0xF0E0, symBinAddr: 0x100010D20, symSize: 0x40 }
  - { offsetInCU: 0x2446B, offset: 0x2446B, size: 0x8, addend: 0x0, symName: __ZNSt3__122__make_exception_guardB7v160006INS_29_AllocatorDestroyRangeReverseINS_9allocatorINS_9sub_matchIPKcEEEENS_16reverse_iteratorIPS6_EEEEEENS_28__exception_guard_exceptionsIT_EESD_, symObjAddr: 0xF120, symBinAddr: 0x100010D60, symSize: 0x60 }
  - { offsetInCU: 0x244A0, offset: 0x244A0, size: 0x8, addend: 0x0, symName: __ZNSt3__1neB7v160006IPNS_9sub_matchIPKcEES5_EEbRKNS_16reverse_iteratorIT_EERKNS6_IT0_EE, symObjAddr: 0xF1C0, symBinAddr: 0x100010E00, symSize: 0x40 }
  - { offsetInCU: 0x244EC, offset: 0x244EC, size: 0x8, addend: 0x0, symName: __ZNSt3__112__to_addressB7v160006INS_16reverse_iteratorIPNS_9sub_matchIPKcEEEEvEENS_5decayIDTclsr19__to_address_helperIT_EE6__callclsr3stdE7declvalIRKS9_EEEEE4typeESB_, symObjAddr: 0xF230, symBinAddr: 0x100010E70, symSize: 0x20 }
  - { offsetInCU: 0x2454B, offset: 0x2454B, size: 0x8, addend: 0x0, symName: __ZNSt3__119__allocator_destroyB7v160006INS_9allocatorINS_9sub_matchIPKcEEEENS_16reverse_iteratorINS7_IPS5_EEEESA_EEvRT_T0_T1_, symObjAddr: 0xF550, symBinAddr: 0x100011190, symSize: 0x70 }
  - { offsetInCU: 0x245AE, offset: 0x245AE, size: 0x8, addend: 0x0, symName: __ZNSt3__1neB7v160006INS_16reverse_iteratorIPNS_9sub_matchIPKcEEEES7_EEbRKNS1_IT_EERKNS1_IT0_EE, symObjAddr: 0xF5F0, symBinAddr: 0x100011230, symSize: 0x50 }
  - { offsetInCU: 0x245FA, offset: 0x245FA, size: 0x8, addend: 0x0, symName: __ZNSt3__112__to_addressB7v160006INS_16reverse_iteratorINS1_IPNS_9sub_matchIPKcEEEEEEvEENS_5decayIDTclsr19__to_address_helperIT_EE6__callclsr3stdE7declvalIRKSA_EEEEE4typeESC_, symObjAddr: 0xF640, symBinAddr: 0x100011280, symSize: 0x20 }
  - { offsetInCU: 0x24659, offset: 0x24659, size: 0x8, addend: 0x0, symName: __ZNSt3__119__allocate_at_leastB7v160006INS_9allocatorINS_4pairImPKcEEEEEENS_19__allocation_resultINS_16allocator_traitsIT_E7pointerEEERS9_m, symObjAddr: 0x101F0, symBinAddr: 0x100011E30, symSize: 0x40 }
  - { offsetInCU: 0x2469C, offset: 0x2469C, size: 0x8, addend: 0x0, symName: __ZNSt3__142__uninitialized_allocator_move_if_noexceptB7v160006INS_9allocatorINS_4pairImPKcEEEENS_16reverse_iteratorIPS5_EES9_S9_EET2_RT_T0_T1_SA_, symObjAddr: 0x10430, symBinAddr: 0x100012070, symSize: 0x180 }
  - { offsetInCU: 0x2473B, offset: 0x2473B, size: 0x8, addend: 0x0, symName: __ZNSt3__14swapB7v160006IPNS_4pairImPKcEEEENS_9enable_ifIXaasr21is_move_constructibleIT_EE5valuesr18is_move_assignableIS7_EE5valueEvE4typeERS7_SA_, symObjAddr: 0x10600, symBinAddr: 0x100012240, symSize: 0x40 }
  - { offsetInCU: 0x2478C, offset: 0x2478C, size: 0x8, addend: 0x0, symName: __ZNSt3__125__debug_db_invalidate_allB7v160006INS_6vectorINS_4pairImPKcEENS_9allocatorIS5_EEEEEEvPT_, symObjAddr: 0x106F0, symBinAddr: 0x100012330, symSize: 0x10 }
  - { offsetInCU: 0x247BD, offset: 0x247BD, size: 0x8, addend: 0x0, symName: __ZNSt3__122__make_exception_guardB7v160006INS_29_AllocatorDestroyRangeReverseINS_9allocatorINS_4pairImPKcEEEENS_16reverse_iteratorIPS6_EEEEEENS_28__exception_guard_exceptionsIT_EESD_, symObjAddr: 0x10700, symBinAddr: 0x100012340, symSize: 0x60 }
  - { offsetInCU: 0x247F2, offset: 0x247F2, size: 0x8, addend: 0x0, symName: __ZNSt3__1neB7v160006IPNS_4pairImPKcEES5_EEbRKNS_16reverse_iteratorIT_EERKNS6_IT0_EE, symObjAddr: 0x107A0, symBinAddr: 0x1000123E0, symSize: 0x40 }
  - { offsetInCU: 0x2483E, offset: 0x2483E, size: 0x8, addend: 0x0, symName: __ZNSt3__112__to_addressB7v160006INS_16reverse_iteratorIPNS_4pairImPKcEEEEvEENS_5decayIDTclsr19__to_address_helperIT_EE6__callclsr3stdE7declvalIRKS9_EEEEE4typeESB_, symObjAddr: 0x10810, symBinAddr: 0x100012450, symSize: 0x20 }
  - { offsetInCU: 0x2489D, offset: 0x2489D, size: 0x8, addend: 0x0, symName: __ZNSt3__119__allocator_destroyB7v160006INS_9allocatorINS_4pairImPKcEEEENS_16reverse_iteratorINS7_IPS5_EEEESA_EEvRT_T0_T1_, symObjAddr: 0x10B30, symBinAddr: 0x100012770, symSize: 0x70 }
  - { offsetInCU: 0x24900, offset: 0x24900, size: 0x8, addend: 0x0, symName: __ZNSt3__1neB7v160006INS_16reverse_iteratorIPNS_4pairImPKcEEEES7_EEbRKNS1_IT_EERKNS1_IT0_EE, symObjAddr: 0x10BD0, symBinAddr: 0x100012810, symSize: 0x50 }
  - { offsetInCU: 0x2494C, offset: 0x2494C, size: 0x8, addend: 0x0, symName: __ZNSt3__112__to_addressB7v160006INS_16reverse_iteratorINS1_IPNS_4pairImPKcEEEEEEvEENS_5decayIDTclsr19__to_address_helperIT_EE6__callclsr3stdE7declvalIRKSA_EEEEE4typeESC_, symObjAddr: 0x10C20, symBinAddr: 0x100012860, symSize: 0x20 }
  - { offsetInCU: 0x249AB, offset: 0x249AB, size: 0x8, addend: 0x0, symName: __ZNSt3__122__make_exception_guardB7v160006INS_6vectorINS_9sub_matchIPKcEENS_9allocatorIS5_EEE16__destroy_vectorEEENS_28__exception_guard_exceptionsIT_EESB_, symObjAddr: 0x113D0, symBinAddr: 0x100013010, symSize: 0x40 }
  - { offsetInCU: 0x249E0, offset: 0x249E0, size: 0x8, addend: 0x0, symName: __ZNSt3__130__uninitialized_allocator_copyB7v160006INS_9allocatorINS_9sub_matchIPKcEEEEPS5_S7_S7_EET2_RT_T0_T1_S8_, symObjAddr: 0x11530, symBinAddr: 0x100013170, symSize: 0x100 }
  - { offsetInCU: 0x24A7E, offset: 0x24A7E, size: 0x8, addend: 0x0, symName: __ZNSt3__122__make_exception_guardB7v160006INS_29_AllocatorDestroyRangeReverseINS_9allocatorINS_9sub_matchIPKcEEEEPS6_EEEENS_28__exception_guard_exceptionsIT_EESB_, symObjAddr: 0x11630, symBinAddr: 0x100013270, symSize: 0x60 }
  - { offsetInCU: 0x24AB3, offset: 0x24AB3, size: 0x8, addend: 0x0, symName: __ZNSt3__119__allocator_destroyB7v160006INS_9allocatorINS_9sub_matchIPKcEEEENS_16reverse_iteratorIPS5_EES9_EEvRT_T0_T1_, symObjAddr: 0x118C0, symBinAddr: 0x100013500, symSize: 0x70 }
  - { offsetInCU: 0x24B16, offset: 0x24B16, size: 0x8, addend: 0x0, symName: __ZNSt3__122__make_exception_guardB7v160006INS_6vectorINS_4pairImPKcEENS_9allocatorIS5_EEE16__destroy_vectorEEENS_28__exception_guard_exceptionsIT_EESB_, symObjAddr: 0x11A90, symBinAddr: 0x1000136D0, symSize: 0x40 }
  - { offsetInCU: 0x24B4B, offset: 0x24B4B, size: 0x8, addend: 0x0, symName: __ZNSt3__130__uninitialized_allocator_copyB7v160006INS_9allocatorINS_4pairImPKcEEEEPS5_S7_S7_EET2_RT_T0_T1_S8_, symObjAddr: 0x11C90, symBinAddr: 0x1000138D0, symSize: 0x100 }
  - { offsetInCU: 0x24BE9, offset: 0x24BE9, size: 0x8, addend: 0x0, symName: __ZNSt3__122__make_exception_guardB7v160006INS_29_AllocatorDestroyRangeReverseINS_9allocatorINS_4pairImPKcEEEEPS6_EEEENS_28__exception_guard_exceptionsIT_EESB_, symObjAddr: 0x11D90, symBinAddr: 0x1000139D0, symSize: 0x60 }
  - { offsetInCU: 0x24C1E, offset: 0x24C1E, size: 0x8, addend: 0x0, symName: __ZNSt3__119__allocator_destroyB7v160006INS_9allocatorINS_4pairImPKcEEEENS_16reverse_iteratorIPS5_EES9_EEvRT_T0_T1_, symObjAddr: 0x12020, symBinAddr: 0x100013C60, symSize: 0x70 }
  - { offsetInCU: 0x24C81, offset: 0x24C81, size: 0x8, addend: 0x0, symName: __ZNSt3__118__debug_db_erase_cB7v160006INS_6vectorINS_7__stateIcEENS_9allocatorIS3_EEEEEEvPT_, symObjAddr: 0x121F0, symBinAddr: 0x100013E30, symSize: 0x10 }
  - { offsetInCU: 0x24CB2, offset: 0x24CB2, size: 0x8, addend: 0x0, symName: __ZNSt3__119__throw_regex_errorB7v160006ILNS_15regex_constants10error_typeE11EEEvv, symObjAddr: 0x12740, symBinAddr: 0x100014380, symSize: 0x60 }
  - { offsetInCU: 0x24D4B, offset: 0x24D4B, size: 0x8, addend: 0x0, symName: __ZNSt3__119__throw_regex_errorB7v160006ILNS_15regex_constants10error_typeE3EEEvv, symObjAddr: 0x12A70, symBinAddr: 0x1000146B0, symSize: 0x60 }
  - { offsetInCU: 0x24F5B, offset: 0x24F5B, size: 0x8, addend: 0x0, symName: __ZNSt3__119__throw_regex_errorB7v160006ILNS_15regex_constants10error_typeE4EEEvv, symObjAddr: 0x13690, symBinAddr: 0x1000152D0, symSize: 0x60 }
  - { offsetInCU: 0x2539A, offset: 0x2539A, size: 0x8, addend: 0x0, symName: __ZNSt3__15equalB7v160006IPKcS2_EEbT_S3_T0_, symObjAddr: 0x146E0, symBinAddr: 0x100016320, symSize: 0x30 }
  - { offsetInCU: 0x253F4, offset: 0x253F4, size: 0x8, addend: 0x0, symName: __ZNSt3__15equalB7v160006IPKcS2_NS_10__equal_toEEEbT_S4_T0_T1_, symObjAddr: 0x14710, symBinAddr: 0x100016350, symSize: 0x80 }
  - { offsetInCU: 0x254A0, offset: 0x254A0, size: 0x8, addend: 0x0, symName: __ZNSt3__1neB7v160006IcNS_11char_traitsIcEENS_9allocatorIcEEEEbRKNS_12basic_stringIT_T0_T1_EEPKS6_, symObjAddr: 0x14CE0, symBinAddr: 0x100016920, symSize: 0x30 }
  - { offsetInCU: 0x254F8, offset: 0x254F8, size: 0x8, addend: 0x0, symName: __ZNSt3__119__debug_db_insert_cB7v160006INS_6vectorIcNS_9allocatorIcEEEEEEvPT_, symObjAddr: 0x158F0, symBinAddr: 0x100017530, symSize: 0x10 }
  - { offsetInCU: 0x25529, offset: 0x25529, size: 0x8, addend: 0x0, symName: __ZNSt3__119__debug_db_insert_cB7v160006INS_6vectorINS_4pairINS_12basic_stringIcNS_11char_traitsIcEENS_9allocatorIcEEEES8_EENS6_IS9_EEEEEEvPT_, symObjAddr: 0x159F0, symBinAddr: 0x100017630, symSize: 0x10 }
  - { offsetInCU: 0x2555A, offset: 0x2555A, size: 0x8, addend: 0x0, symName: __ZNSt3__119__debug_db_insert_cB7v160006INS_6vectorINS_4pairIccEENS_9allocatorIS3_EEEEEEvPT_, symObjAddr: 0x15B40, symBinAddr: 0x100017780, symSize: 0x10 }
  - { offsetInCU: 0x2558B, offset: 0x2558B, size: 0x8, addend: 0x0, symName: __ZNSt3__118__debug_db_erase_cB7v160006INS_6vectorINS_4pairIccEENS_9allocatorIS3_EEEEEEvPT_, symObjAddr: 0x15E30, symBinAddr: 0x100017A70, symSize: 0x10 }
  - { offsetInCU: 0x255BC, offset: 0x255BC, size: 0x8, addend: 0x0, symName: __ZNSt3__112__to_addressB7v160006INS_4pairIccEEEEPT_S4_, symObjAddr: 0x15F40, symBinAddr: 0x100017B80, symSize: 0x10 }
  - { offsetInCU: 0x255F1, offset: 0x255F1, size: 0x8, addend: 0x0, symName: __ZNSt3__118__debug_db_erase_cB7v160006INS_6vectorINS_4pairINS_12basic_stringIcNS_11char_traitsIcEENS_9allocatorIcEEEES8_EENS6_IS9_EEEEEEvPT_, symObjAddr: 0x162A0, symBinAddr: 0x100017EE0, symSize: 0x10 }
  - { offsetInCU: 0x25622, offset: 0x25622, size: 0x8, addend: 0x0, symName: __ZNSt3__112__to_addressB7v160006INS_4pairINS_12basic_stringIcNS_11char_traitsIcEENS_9allocatorIcEEEES7_EEEEPT_SA_, symObjAddr: 0x163D0, symBinAddr: 0x100018010, symSize: 0x10 }
  - { offsetInCU: 0x25657, offset: 0x25657, size: 0x8, addend: 0x0, symName: __ZNSt3__118__debug_db_erase_cB7v160006INS_6vectorIcNS_9allocatorIcEEEEEEvPT_, symObjAddr: 0x16790, symBinAddr: 0x1000183D0, symSize: 0x10 }
  - { offsetInCU: 0x25688, offset: 0x25688, size: 0x8, addend: 0x0, symName: __ZNSt3__1eqB7v160006IccEEbRKNS_4pairIT_T0_EES6_, symObjAddr: 0x16AC0, symBinAddr: 0x100018700, symSize: 0x50 }
  - { offsetInCU: 0x256D7, offset: 0x256D7, size: 0x8, addend: 0x0, symName: __ZNSt3__1leB7v160006IcNS_11char_traitsIcEENS_9allocatorIcEEEEbRKNS_12basic_stringIT_T0_T1_EESB_, symObjAddr: 0x16C60, symBinAddr: 0x1000188A0, symSize: 0x30 }
  - { offsetInCU: 0x2572F, offset: 0x2572F, size: 0x8, addend: 0x0, symName: __ZNSt3__1neB7v160006IPKcEEbRKNS_11__wrap_iterIT_EES7_, symObjAddr: 0x16D70, symBinAddr: 0x1000189B0, symSize: 0x30 }
  - { offsetInCU: 0x25772, offset: 0x25772, size: 0x8, addend: 0x0, symName: __ZNSt3__14findB7v160006INS_11__wrap_iterIPKcEEcEET_S5_S5_RKT0_, symObjAddr: 0x16DA0, symBinAddr: 0x1000189E0, symSize: 0x80 }
  - { offsetInCU: 0x257CC, offset: 0x257CC, size: 0x8, addend: 0x0, symName: __ZNSt3__18distanceB7v160006IPcEENS_15iterator_traitsIT_E15difference_typeES3_S3_, symObjAddr: 0x17390, symBinAddr: 0x100018FD0, symSize: 0x30 }
  - { offsetInCU: 0x2580F, offset: 0x2580F, size: 0x8, addend: 0x0, symName: __ZNSt3__119__allocate_at_leastB7v160006INS_9allocatorIcEEEENS_19__allocation_resultINS_16allocator_traitsIT_E7pointerEEERS5_m, symObjAddr: 0x174A0, symBinAddr: 0x1000190E0, symSize: 0x40 }
  - { offsetInCU: 0x25852, offset: 0x25852, size: 0x8, addend: 0x0, symName: __ZNSt3__110__distanceB7v160006IPcEENS_15iterator_traitsIT_E15difference_typeES3_S3_NS_26random_access_iterator_tagE, symObjAddr: 0x17630, symBinAddr: 0x100019270, symSize: 0x20 }
  - { offsetInCU: 0x25A8B, offset: 0x25A8B, size: 0x8, addend: 0x0, symName: __ZNSt3__125__debug_db_invalidate_allB7v160006INS_12basic_stringIcNS_11char_traitsIcEENS_9allocatorIcEEEEEEvPT_, symObjAddr: 0x17770, symBinAddr: 0x1000193B0, symSize: 0x10 }
  - { offsetInCU: 0x25ABC, offset: 0x25ABC, size: 0x8, addend: 0x0, symName: __ZNSt3__1ltB7v160006IcNS_11char_traitsIcEENS_9allocatorIcEEEEbRKNS_12basic_stringIT_T0_T1_EESB_, symObjAddr: 0x17780, symBinAddr: 0x1000193C0, symSize: 0x30 }
  - { offsetInCU: 0x25B38, offset: 0x25B38, size: 0x8, addend: 0x0, symName: __ZNSt3__1eqB7v160006IPKcEEbRKNS_11__wrap_iterIT_EES7_, symObjAddr: 0x17BF0, symBinAddr: 0x100019830, symSize: 0x40 }
  - { offsetInCU: 0x25B7B, offset: 0x25B7B, size: 0x8, addend: 0x0, symName: __ZNSt3__142__uninitialized_allocator_move_if_noexceptB7v160006INS_9allocatorIcEENS_16reverse_iteratorIPcEES5_cvEET1_RT_T0_S9_S6_, symObjAddr: 0x18560, symBinAddr: 0x10001A1A0, symSize: 0x70 }
  - { offsetInCU: 0x25BF7, offset: 0x25BF7, size: 0x8, addend: 0x0, symName: __ZNSt3__14swapB7v160006IPcEENS_9enable_ifIXaasr21is_move_constructibleIT_EE5valuesr18is_move_assignableIS3_EE5valueEvE4typeERS3_S6_, symObjAddr: 0x18620, symBinAddr: 0x10001A260, symSize: 0x40 }
  - { offsetInCU: 0x25C48, offset: 0x25C48, size: 0x8, addend: 0x0, symName: __ZNSt3__125__debug_db_invalidate_allB7v160006INS_6vectorIcNS_9allocatorIcEEEEEEvPT_, symObjAddr: 0x18700, symBinAddr: 0x10001A340, symSize: 0x10 }
  - { offsetInCU: 0x25C79, offset: 0x25C79, size: 0x8, addend: 0x0, symName: __ZNSt3__14moveB7v160006INS_16reverse_iteratorIPcEES3_EET0_T_S5_S4_, symObjAddr: 0x18710, symBinAddr: 0x10001A350, symSize: 0x80 }
  - { offsetInCU: 0x25CD3, offset: 0x25CD3, size: 0x8, addend: 0x0, symName: __ZNSt3__16__moveB7v160006INS_17_ClassicAlgPolicyENS_16reverse_iteratorIPcEES4_S4_EENS_4pairIT0_T2_EES6_T1_S7_, symObjAddr: 0x18790, symBinAddr: 0x10001A3D0, symSize: 0x90 }
  - { offsetInCU: 0x25D3F, offset: 0x25D3F, size: 0x8, addend: 0x0, symName: __ZNSt3__123__dispatch_copy_or_moveB7v160006INS_17_ClassicAlgPolicyENS_11__move_loopIS1_EENS_14__move_trivialENS_16reverse_iteratorIPcEES7_S7_EENS_4pairIT2_T4_EES9_T3_SA_, symObjAddr: 0x18820, symBinAddr: 0x10001A460, symSize: 0x90 }
  - { offsetInCU: 0x25DBD, offset: 0x25DBD, size: 0x8, addend: 0x0, symName: __ZNSt3__121__unwrap_and_dispatchB7v160006INS_10__overloadINS_11__move_loopINS_17_ClassicAlgPolicyEEENS_14__move_trivialEEENS_16reverse_iteratorIPcEES9_S9_Li0EEENS_4pairIT0_T2_EESB_T1_SC_, symObjAddr: 0x188B0, symBinAddr: 0x10001A4F0, symSize: 0x210 }
  - { offsetInCU: 0x25E4C, offset: 0x25E4C, size: 0x8, addend: 0x0, symName: __ZNSt3__114__unwrap_rangeB7v160006INS_16reverse_iteratorIPcEES3_EENS_4pairIT0_S5_EET_S7_, symObjAddr: 0x18AC0, symBinAddr: 0x10001A700, symSize: 0x90 }
  - { offsetInCU: 0x25FC7, offset: 0x25FC7, size: 0x8, addend: 0x0, symName: __ZNSt3__113__unwrap_iterB7v160006INS_16reverse_iteratorIPcEENS_18__unwrap_iter_implIS3_Lb0EEELi0EEEDTclsrT0_8__unwrapclsr3stdE7declvalIT_EEEES7_, symObjAddr: 0x18BF0, symBinAddr: 0x10001A830, symSize: 0x40 }
  - { offsetInCU: 0x2600B, offset: 0x2600B, size: 0x8, addend: 0x0, symName: __ZNSt3__19make_pairB7v160006INS_16reverse_iteratorIPcEES3_EENS_4pairINS_18__unwrap_ref_decayIT_E4typeENS5_IT0_E4typeEEEOS6_OS9_, symObjAddr: 0x18C30, symBinAddr: 0x10001A870, symSize: 0x30 }
  - { offsetInCU: 0x2605A, offset: 0x2605A, size: 0x8, addend: 0x0, symName: __ZNSt3__114__rewrap_rangeB7v160006INS_16reverse_iteratorIPcEES3_EET_S4_T0_, symObjAddr: 0x18C60, symBinAddr: 0x10001A8A0, symSize: 0x60 }
  - { offsetInCU: 0x260A6, offset: 0x260A6, size: 0x8, addend: 0x0, symName: __ZNSt3__113__rewrap_iterB7v160006INS_16reverse_iteratorIPcEES3_NS_18__unwrap_iter_implIS3_Lb0EEEEET_S6_T0_, symObjAddr: 0x18CC0, symBinAddr: 0x10001A900, symSize: 0x70 }
  - { offsetInCU: 0x260FB, offset: 0x260FB, size: 0x8, addend: 0x0, symName: __ZNSt3__1neB7v160006IPcS1_EEbRKNS_16reverse_iteratorIT_EERKNS2_IT0_EE, symObjAddr: 0x18D30, symBinAddr: 0x10001A970, symSize: 0x40 }
  - { offsetInCU: 0x26218, offset: 0x26218, size: 0x8, addend: 0x0, symName: __ZNSt3__17__is_07B7v160006Eh, symObjAddr: 0x19370, symBinAddr: 0x10001AFB0, symSize: 0x20 }
  - { offsetInCU: 0x26246, offset: 0x26246, size: 0x8, addend: 0x0, symName: __ZNSt3__17__is_89B7v160006Eh, symObjAddr: 0x19390, symBinAddr: 0x10001AFD0, symSize: 0x20 }
  - { offsetInCU: 0x26274, offset: 0x26274, size: 0x8, addend: 0x0, symName: __ZNSt3__110__to_lowerB7v160006Eh, symObjAddr: 0x193B0, symBinAddr: 0x10001AFF0, symSize: 0x20 }
  - { offsetInCU: 0x262A2, offset: 0x262A2, size: 0x8, addend: 0x0, symName: __ZNSt3__119__throw_regex_errorB7v160006ILNS_15regex_constants10error_typeE5EEEvv, symObjAddr: 0x193D0, symBinAddr: 0x10001B010, symSize: 0x60 }
  - { offsetInCU: 0x262C7, offset: 0x262C7, size: 0x8, addend: 0x0, symName: __ZNSt3__16searchB7v160006IPKcPcEET_S4_S4_T0_S5_, symObjAddr: 0x1ADA0, symBinAddr: 0x10001C9E0, symSize: 0x40 }
  - { offsetInCU: 0x2632F, offset: 0x2632F, size: 0x8, addend: 0x0, symName: __ZNSt3__119__throw_regex_errorB7v160006ILNS_15regex_constants10error_typeE1EEEvv, symObjAddr: 0x1AE20, symBinAddr: 0x10001CA60, symSize: 0x60 }
  - { offsetInCU: 0x26354, offset: 0x26354, size: 0x8, addend: 0x0, symName: __ZNSt3__16searchB7v160006IPKcPcNS_10__equal_toEEET_S5_S5_T0_S6_T1_, symObjAddr: 0x1AF00, symBinAddr: 0x10001CB40, symSize: 0x70 }
  - { offsetInCU: 0x263E1, offset: 0x263E1, size: 0x8, addend: 0x0, symName: __ZNSt3__113__search_implB7v160006IPKcS2_PcS3_NS_10__equal_toENS_10__identityES5_EENS_4pairIT_S7_EES7_T0_T1_T2_RT3_RT4_RT5_PNS_9enable_ifIXaasr33__is_cpp17_random_access_iteratorIS7_EE5valuesr33__is_cpp17_random_access_iteratorISA_EE5valueEvE4typeE, symObjAddr: 0x1AF70, symBinAddr: 0x10001CBB0, symSize: 0xE0 }
  - { offsetInCU: 0x264C8, offset: 0x264C8, size: 0x8, addend: 0x0, symName: __ZNSt3__19make_pairB7v160006IRPKcS3_EENS_4pairINS_18__unwrap_ref_decayIT_E4typeENS5_IT0_E4typeEEEOS6_OS9_, symObjAddr: 0x1B050, symBinAddr: 0x10001CC90, symSize: 0x30 }
  - { offsetInCU: 0x26517, offset: 0x26517, size: 0x8, addend: 0x0, symName: __ZNSt3__127__search_random_access_implB7v160006INS_17_ClassicAlgPolicyEPKcS3_PcS4_NS_10__equal_toENS_10__identityES6_llEENS_4pairIT0_S8_EES8_T1_T2_T3_RT4_RT5_RT6_T7_T8_, symObjAddr: 0x1B080, symBinAddr: 0x10001CCC0, symSize: 0x1A0 }
  - { offsetInCU: 0x26648, offset: 0x26648, size: 0x8, addend: 0x0, symName: __ZNSt3__18__invokeB7v160006IRNS_10__equal_toEJRKcRcEEEDTclclsr3stdE7declvalIT_EEspclsr3stdE7declvalIT0_EEEEOS6_DpOS7_, symObjAddr: 0x1B2A0, symBinAddr: 0x10001CEE0, symSize: 0x30 }
  - { offsetInCU: 0x266AD, offset: 0x266AD, size: 0x8, addend: 0x0, symName: __ZNSt3__18__invokeB7v160006IRNS_10__identityEJRKcEEEDTclclsr3stdE7declvalIT_EEspclsr3stdE7declvalIT0_EEEEOS5_DpOS6_, symObjAddr: 0x1B2D0, symBinAddr: 0x10001CF10, symSize: 0x30 }
  - { offsetInCU: 0x266FE, offset: 0x266FE, size: 0x8, addend: 0x0, symName: __ZNSt3__18__invokeB7v160006IRNS_10__identityEJRcEEEDTclclsr3stdE7declvalIT_EEspclsr3stdE7declvalIT0_EEEEOS4_DpOS5_, symObjAddr: 0x1B300, symBinAddr: 0x10001CF40, symSize: 0x30 }
  - { offsetInCU: 0x2674F, offset: 0x2674F, size: 0x8, addend: 0x0, symName: __ZNSt3__19make_pairB7v160006IRPKcS2_EENS_4pairINS_18__unwrap_ref_decayIT_E4typeENS5_IT0_E4typeEEEOS6_OS9_, symObjAddr: 0x1B330, symBinAddr: 0x10001CF70, symSize: 0x30 }
  - { offsetInCU: 0x267EE, offset: 0x267EE, size: 0x8, addend: 0x0, symName: __ZNSt3__18distanceB7v160006IPKcEENS_15iterator_traitsIT_E15difference_typeES4_S4_, symObjAddr: 0x1B820, symBinAddr: 0x10001D460, symSize: 0x30 }
  - { offsetInCU: 0x26831, offset: 0x26831, size: 0x8, addend: 0x0, symName: __ZNSt3__110__distanceB7v160006IPKcEENS_15iterator_traitsIT_E15difference_typeES4_S4_NS_26random_access_iterator_tagE, symObjAddr: 0x1B850, symBinAddr: 0x10001D490, symSize: 0x20 }
  - { offsetInCU: 0x2687E, offset: 0x2687E, size: 0x8, addend: 0x0, symName: __ZNSt3__18distanceB7v160006INS_11__wrap_iterIPcEEEENS_15iterator_traitsIT_E15difference_typeES5_S5_, symObjAddr: 0x1BC60, symBinAddr: 0x10001D8A0, symSize: 0x40 }
  - { offsetInCU: 0x268C1, offset: 0x268C1, size: 0x8, addend: 0x0, symName: __ZNSt3__1neB7v160006IPcEEbRKNS_11__wrap_iterIT_EES6_, symObjAddr: 0x1BCA0, symBinAddr: 0x10001D8E0, symSize: 0x30 }
  - { offsetInCU: 0x26904, offset: 0x26904, size: 0x8, addend: 0x0, symName: __ZNSt3__110__distanceB7v160006INS_11__wrap_iterIPcEEEENS_15iterator_traitsIT_E15difference_typeES5_S5_NS_26random_access_iterator_tagE, symObjAddr: 0x1BD10, symBinAddr: 0x10001D950, symSize: 0x30 }
  - { offsetInCU: 0x26951, offset: 0x26951, size: 0x8, addend: 0x0, symName: __ZNSt3__1miB7v160006IPcS1_EEDTmicldtfp_4baseEcldtfp0_4baseEERKNS_11__wrap_iterIT_EERKNS3_IT0_EE, symObjAddr: 0x1BD40, symBinAddr: 0x10001D980, symSize: 0x40 }
  - { offsetInCU: 0x2699D, offset: 0x2699D, size: 0x8, addend: 0x0, symName: __ZNSt3__1eqB7v160006IPcEEbRKNS_11__wrap_iterIT_EES6_, symObjAddr: 0x1BD80, symBinAddr: 0x10001D9C0, symSize: 0x40 }
  - { offsetInCU: 0x269E0, offset: 0x269E0, size: 0x8, addend: 0x0, symName: __ZNSt3__142__uninitialized_allocator_move_if_noexceptB7v160006INS_9allocatorINS_12basic_stringIcNS_11char_traitsIcEENS1_IcEEEEEENS_16reverse_iteratorIPS6_EESA_SA_EET2_RT_T0_T1_SB_, symObjAddr: 0x1C3A0, symBinAddr: 0x10001DFE0, symSize: 0x170 }
  - { offsetInCU: 0x26A7F, offset: 0x26A7F, size: 0x8, addend: 0x0, symName: __ZNSt3__14swapB7v160006IPNS_12basic_stringIcNS_11char_traitsIcEENS_9allocatorIcEEEEEENS_9enable_ifIXaasr21is_move_constructibleIT_EE5valuesr18is_move_assignableIS9_EE5valueEvE4typeERS9_SC_, symObjAddr: 0x1C510, symBinAddr: 0x10001E150, symSize: 0x40 }
  - { offsetInCU: 0x26AD0, offset: 0x26AD0, size: 0x8, addend: 0x0, symName: __ZNSt3__125__debug_db_invalidate_allB7v160006INS_6vectorINS_12basic_stringIcNS_11char_traitsIcEENS_9allocatorIcEEEENS5_IS7_EEEEEEvPT_, symObjAddr: 0x1C550, symBinAddr: 0x10001E190, symSize: 0x10 }
  - { offsetInCU: 0x26B01, offset: 0x26B01, size: 0x8, addend: 0x0, symName: __ZNSt3__122__make_exception_guardB7v160006INS_29_AllocatorDestroyRangeReverseINS_9allocatorINS_12basic_stringIcNS_11char_traitsIcEENS2_IcEEEEEENS_16reverse_iteratorIPS7_EEEEEENS_28__exception_guard_exceptionsIT_EESE_, symObjAddr: 0x1C560, symBinAddr: 0x10001E1A0, symSize: 0x60 }
  - { offsetInCU: 0x26B36, offset: 0x26B36, size: 0x8, addend: 0x0, symName: __ZNSt3__119__allocator_destroyB7v160006INS_9allocatorINS_12basic_stringIcNS_11char_traitsIcEENS1_IcEEEEEENS_16reverse_iteratorINS8_IPS6_EEEESB_EEvRT_T0_T1_, symObjAddr: 0x1C880, symBinAddr: 0x10001E4C0, symSize: 0x70 }
  - { offsetInCU: 0x26B99, offset: 0x26B99, size: 0x8, addend: 0x0, symName: __ZNSt3__1neB7v160006INS_16reverse_iteratorIPNS_12basic_stringIcNS_11char_traitsIcEENS_9allocatorIcEEEEEES9_EEbRKNS1_IT_EERKNS1_IT0_EE, symObjAddr: 0x1C920, symBinAddr: 0x10001E560, symSize: 0x50 }
  - { offsetInCU: 0x26BE5, offset: 0x26BE5, size: 0x8, addend: 0x0, symName: __ZNSt3__112__to_addressB7v160006INS_16reverse_iteratorINS1_IPNS_12basic_stringIcNS_11char_traitsIcEENS_9allocatorIcEEEEEEEEvEENS_5decayIDTclsr19__to_address_helperIT_EE6__callclsr3stdE7declvalIRKSC_EEEEE4typeESE_, symObjAddr: 0x1C970, symBinAddr: 0x10001E5B0, symSize: 0x20 }
  - { offsetInCU: 0x26C44, offset: 0x26C44, size: 0x8, addend: 0x0, symName: __ZNSt3__119__throw_regex_errorB7v160006ILNS_15regex_constants10error_typeE2EEEvv, symObjAddr: 0x1CCE0, symBinAddr: 0x10001E920, symSize: 0x60 }
  - { offsetInCU: 0x26C69, offset: 0x26C69, size: 0x8, addend: 0x0, symName: __ZNSt3__19make_pairB7v160006INS_12basic_stringIcNS_11char_traitsIcEENS_9allocatorIcEEEES6_EENS_4pairINS_18__unwrap_ref_decayIT_E4typeENS8_IT0_E4typeEEEOS9_OSC_, symObjAddr: 0x1CFA0, symBinAddr: 0x10001EBE0, symSize: 0x40 }
  - { offsetInCU: 0x26CB8, offset: 0x26CB8, size: 0x8, addend: 0x0, symName: __ZNSt3__119__throw_regex_errorB7v160006ILNS_15regex_constants10error_typeE9EEEvv, symObjAddr: 0x1D110, symBinAddr: 0x10001ED50, symSize: 0x60 }
  - { offsetInCU: 0x26CDD, offset: 0x26CDD, size: 0x8, addend: 0x0, symName: __ZNSt3__119__allocate_at_leastB7v160006INS_9allocatorINS_4pairINS_12basic_stringIcNS_11char_traitsIcEENS1_IcEEEES7_EEEEEENS_19__allocation_resultINS_16allocator_traitsIT_E7pointerEEERSC_m, symObjAddr: 0x1D8D0, symBinAddr: 0x10001F510, symSize: 0x40 }
  - { offsetInCU: 0x26D20, offset: 0x26D20, size: 0x8, addend: 0x0, symName: __ZNSt3__142__uninitialized_allocator_move_if_noexceptB7v160006INS_9allocatorINS_4pairINS_12basic_stringIcNS_11char_traitsIcEENS1_IcEEEES7_EEEENS_16reverse_iteratorIPS8_EESC_SC_EET2_RT_T0_T1_SD_, symObjAddr: 0x1DA60, symBinAddr: 0x10001F6A0, symSize: 0x180 }
  - { offsetInCU: 0x26DBF, offset: 0x26DBF, size: 0x8, addend: 0x0, symName: __ZNSt3__14swapB7v160006IPNS_4pairINS_12basic_stringIcNS_11char_traitsIcEENS_9allocatorIcEEEES7_EEEENS_9enable_ifIXaasr21is_move_constructibleIT_EE5valuesr18is_move_assignableISB_EE5valueEvE4typeERSB_SE_, symObjAddr: 0x1DC30, symBinAddr: 0x10001F870, symSize: 0x40 }
  - { offsetInCU: 0x26E10, offset: 0x26E10, size: 0x8, addend: 0x0, symName: __ZNSt3__125__debug_db_invalidate_allB7v160006INS_6vectorINS_4pairINS_12basic_stringIcNS_11char_traitsIcEENS_9allocatorIcEEEES8_EENS6_IS9_EEEEEEvPT_, symObjAddr: 0x1DD10, symBinAddr: 0x10001F950, symSize: 0x10 }
  - { offsetInCU: 0x26E41, offset: 0x26E41, size: 0x8, addend: 0x0, symName: __ZNSt3__122__make_exception_guardB7v160006INS_29_AllocatorDestroyRangeReverseINS_9allocatorINS_4pairINS_12basic_stringIcNS_11char_traitsIcEENS2_IcEEEES8_EEEENS_16reverse_iteratorIPS9_EEEEEENS_28__exception_guard_exceptionsIT_EESG_, symObjAddr: 0x1DD20, symBinAddr: 0x10001F960, symSize: 0x60 }
  - { offsetInCU: 0x26E76, offset: 0x26E76, size: 0x8, addend: 0x0, symName: __ZNSt3__1neB7v160006IPNS_4pairINS_12basic_stringIcNS_11char_traitsIcEENS_9allocatorIcEEEES7_EES9_EEbRKNS_16reverse_iteratorIT_EERKNSA_IT0_EE, symObjAddr: 0x1DDC0, symBinAddr: 0x10001FA00, symSize: 0x40 }
  - { offsetInCU: 0x26EC2, offset: 0x26EC2, size: 0x8, addend: 0x0, symName: __ZNSt3__112__to_addressB7v160006INS_16reverse_iteratorIPNS_4pairINS_12basic_stringIcNS_11char_traitsIcEENS_9allocatorIcEEEES8_EEEEvEENS_5decayIDTclsr19__to_address_helperIT_EE6__callclsr3stdE7declvalIRKSD_EEEEE4typeESF_, symObjAddr: 0x1DE00, symBinAddr: 0x10001FA40, symSize: 0x20 }
  - { offsetInCU: 0x26F21, offset: 0x26F21, size: 0x8, addend: 0x0, symName: __ZNSt3__119__allocator_destroyB7v160006INS_9allocatorINS_4pairINS_12basic_stringIcNS_11char_traitsIcEENS1_IcEEEES7_EEEENS_16reverse_iteratorINSA_IPS8_EEEESD_EEvRT_T0_T1_, symObjAddr: 0x1E0F0, symBinAddr: 0x10001FD30, symSize: 0x70 }
  - { offsetInCU: 0x26F84, offset: 0x26F84, size: 0x8, addend: 0x0, symName: __ZNSt3__1neB7v160006INS_16reverse_iteratorIPNS_4pairINS_12basic_stringIcNS_11char_traitsIcEENS_9allocatorIcEEEES8_EEEESB_EEbRKNS1_IT_EERKNS1_IT0_EE, symObjAddr: 0x1E190, symBinAddr: 0x10001FDD0, symSize: 0x50 }
  - { offsetInCU: 0x26FD0, offset: 0x26FD0, size: 0x8, addend: 0x0, symName: __ZNSt3__112__to_addressB7v160006INS_16reverse_iteratorINS1_IPNS_4pairINS_12basic_stringIcNS_11char_traitsIcEENS_9allocatorIcEEEES8_EEEEEEvEENS_5decayIDTclsr19__to_address_helperIT_EE6__callclsr3stdE7declvalIRKSE_EEEEE4typeESG_, symObjAddr: 0x1E1E0, symBinAddr: 0x10001FE20, symSize: 0x20 }
  - { offsetInCU: 0x2702F, offset: 0x2702F, size: 0x8, addend: 0x0, symName: __ZNSt3__115__debug_db_swapB7v160006INS_12basic_stringIcNS_11char_traitsIcEENS_9allocatorIcEEEEEEvPT_S8_, symObjAddr: 0x1E630, symBinAddr: 0x100020270, symSize: 0x10 }
  - { offsetInCU: 0x2706E, offset: 0x2706E, size: 0x8, addend: 0x0, symName: __ZNSt3__19make_pairB7v160006IccEENS_4pairINS_18__unwrap_ref_decayIT_E4typeENS2_IT0_E4typeEEEOS3_OS6_, symObjAddr: 0x1E6A0, symBinAddr: 0x1000202E0, symSize: 0x30 }
  - { offsetInCU: 0x270BD, offset: 0x270BD, size: 0x8, addend: 0x0, symName: __ZNSt3__19make_pairB7v160006IRcS1_EENS_4pairINS_18__unwrap_ref_decayIT_E4typeENS3_IT0_E4typeEEEOS4_OS7_, symObjAddr: 0x1E6D0, symBinAddr: 0x100020310, symSize: 0x30 }
  - { offsetInCU: 0x2710C, offset: 0x2710C, size: 0x8, addend: 0x0, symName: __ZNSt3__119__allocate_at_leastB7v160006INS_9allocatorINS_4pairIccEEEEEENS_19__allocation_resultINS_16allocator_traitsIT_E7pointerEEERS7_m, symObjAddr: 0x1EDF0, symBinAddr: 0x100020A30, symSize: 0x40 }
  - { offsetInCU: 0x2714F, offset: 0x2714F, size: 0x8, addend: 0x0, symName: __ZNSt3__142__uninitialized_allocator_move_if_noexceptB7v160006INS_9allocatorINS_4pairIccEEEENS_16reverse_iteratorIPS3_EES7_S7_EET2_RT_T0_T1_S8_, symObjAddr: 0x1EF80, symBinAddr: 0x100020BC0, symSize: 0x180 }
  - { offsetInCU: 0x271EE, offset: 0x271EE, size: 0x8, addend: 0x0, symName: __ZNSt3__14swapB7v160006IPNS_4pairIccEEEENS_9enable_ifIXaasr21is_move_constructibleIT_EE5valuesr18is_move_assignableIS5_EE5valueEvE4typeERS5_S8_, symObjAddr: 0x1F150, symBinAddr: 0x100020D90, symSize: 0x40 }
  - { offsetInCU: 0x2723F, offset: 0x2723F, size: 0x8, addend: 0x0, symName: __ZNSt3__125__debug_db_invalidate_allB7v160006INS_6vectorINS_4pairIccEENS_9allocatorIS3_EEEEEEvPT_, symObjAddr: 0x1F240, symBinAddr: 0x100020E80, symSize: 0x10 }
  - { offsetInCU: 0x27270, offset: 0x27270, size: 0x8, addend: 0x0, symName: __ZNSt3__122__make_exception_guardB7v160006INS_29_AllocatorDestroyRangeReverseINS_9allocatorINS_4pairIccEEEENS_16reverse_iteratorIPS4_EEEEEENS_28__exception_guard_exceptionsIT_EESB_, symObjAddr: 0x1F250, symBinAddr: 0x100020E90, symSize: 0x60 }
  - { offsetInCU: 0x272A5, offset: 0x272A5, size: 0x8, addend: 0x0, symName: __ZNSt3__1neB7v160006IPNS_4pairIccEES3_EEbRKNS_16reverse_iteratorIT_EERKNS4_IT0_EE, symObjAddr: 0x1F2F0, symBinAddr: 0x100020F30, symSize: 0x40 }
  - { offsetInCU: 0x272F1, offset: 0x272F1, size: 0x8, addend: 0x0, symName: __ZNSt3__112__to_addressB7v160006INS_16reverse_iteratorIPNS_4pairIccEEEEvEENS_5decayIDTclsr19__to_address_helperIT_EE6__callclsr3stdE7declvalIRKS7_EEEEE4typeES9_, symObjAddr: 0x1F330, symBinAddr: 0x100020F70, symSize: 0x20 }
  - { offsetInCU: 0x27350, offset: 0x27350, size: 0x8, addend: 0x0, symName: __ZNSt3__119__allocator_destroyB7v160006INS_9allocatorINS_4pairIccEEEENS_16reverse_iteratorINS5_IPS3_EEEES8_EEvRT_T0_T1_, symObjAddr: 0x1F620, symBinAddr: 0x100021260, symSize: 0x70 }
  - { offsetInCU: 0x273B3, offset: 0x273B3, size: 0x8, addend: 0x0, symName: __ZNSt3__1neB7v160006INS_16reverse_iteratorIPNS_4pairIccEEEES5_EEbRKNS1_IT_EERKNS1_IT0_EE, symObjAddr: 0x1F6C0, symBinAddr: 0x100021300, symSize: 0x50 }
  - { offsetInCU: 0x273FF, offset: 0x273FF, size: 0x8, addend: 0x0, symName: __ZNSt3__112__to_addressB7v160006INS_16reverse_iteratorINS1_IPNS_4pairIccEEEEEEvEENS_5decayIDTclsr19__to_address_helperIT_EE6__callclsr3stdE7declvalIRKS8_EEEEE4typeESA_, symObjAddr: 0x1F710, symBinAddr: 0x100021350, symSize: 0x20 }
  - { offsetInCU: 0x2756A, offset: 0x2756A, size: 0x8, addend: 0x0, symName: __ZNSt3__119__throw_regex_errorB7v160006ILNS_15regex_constants10error_typeE8EEEvv, symObjAddr: 0x20250, symBinAddr: 0x100021E90, symSize: 0x60 }
  - { offsetInCU: 0x2758F, offset: 0x2758F, size: 0x8, addend: 0x0, symName: __ZNSt3__119__throw_regex_errorB7v160006ILNS_15regex_constants10error_typeE7EEEvv, symObjAddr: 0x202B0, symBinAddr: 0x100021EF0, symSize: 0x60 }
  - { offsetInCU: 0x27ED8, offset: 0x27ED8, size: 0x8, addend: 0x0, symName: __ZNSt3__119__throw_regex_errorB7v160006ILNS_15regex_constants10error_typeE15EEEvv, symObjAddr: 0x21100, symBinAddr: 0x100022D40, symSize: 0x60 }
  - { offsetInCU: 0x27F71, offset: 0x27F71, size: 0x8, addend: 0x0, symName: __ZNSt3__14findB7v160006IPKccEET_S3_S3_RKT0_, symObjAddr: 0x22500, symBinAddr: 0x100024140, symSize: 0x60 }
  - { offsetInCU: 0x27FCB, offset: 0x27FCB, size: 0x8, addend: 0x0, symName: __ZNSt3__17getlineB7v160006IcNS_11char_traitsIcEENS_9allocatorIcEEEERNS_13basic_istreamIT_T0_EES9_RNS_12basic_stringIS6_S7_T1_EES6_, symObjAddr: 0x22560, symBinAddr: 0x1000241A0, symSize: 0x220 }
  - { offsetInCU: 0x28089, offset: 0x28089, size: 0x8, addend: 0x0, symName: __ZNSt3__112regex_searchB7v160006IPKcNS_9allocatorINS_9sub_matchINS_11__wrap_iterIS2_EEEEEEcNS_12regex_traitsIcEEEEbNS5_IT_EESC_RNS_13match_resultsISC_T0_EERKNS_11basic_regexIT1_T2_EENS_15regex_constants15match_flag_typeE, symObjAddr: 0x22A80, symBinAddr: 0x1000246C0, symSize: 0x150 }
  - { offsetInCU: 0x28137, offset: 0x28137, size: 0x8, addend: 0x0, symName: __ZNSt3__119__debug_db_insert_iB7v160006INS_11__wrap_iterIPKcEEEEvPT_, symObjAddr: 0x22ED0, symBinAddr: 0x100024B10, symSize: 0x10 }
  - { offsetInCU: 0x2850D, offset: 0x2850D, size: 0x8, addend: 0x0, symName: __ZNSt3__14swapB7v160006IPPNS_7__stateIcEEEENS_9enable_ifIXaasr21is_move_constructibleIT_EE5valuesr18is_move_assignableIS6_EE5valueEvE4typeERS6_S9_, symObjAddr: 0x25F40, symBinAddr: 0x100027B80, symSize: 0x40 }
  - { offsetInCU: 0x2855E, offset: 0x2855E, size: 0x8, addend: 0x0, symName: __ZNSt3__14moveB7v160006IPPNS_7__stateIcEES4_EET0_T_S6_S5_, symObjAddr: 0x26050, symBinAddr: 0x100027C90, symSize: 0x40 }
  - { offsetInCU: 0x285B8, offset: 0x285B8, size: 0x8, addend: 0x0, symName: __ZNSt3__112__to_addressB7v160006IPNS_7__stateIcEEEEPT_S5_, symObjAddr: 0x261F0, symBinAddr: 0x100027E30, symSize: 0x10 }
  - { offsetInCU: 0x285ED, offset: 0x285ED, size: 0x8, addend: 0x0, symName: __ZNSt3__16__moveB7v160006INS_17_ClassicAlgPolicyEPPNS_7__stateIcEES5_S5_EENS_4pairIT0_T2_EES7_T1_S8_, symObjAddr: 0x26200, symBinAddr: 0x100027E40, symSize: 0x40 }
  - { offsetInCU: 0x28659, offset: 0x28659, size: 0x8, addend: 0x0, symName: __ZNSt3__123__dispatch_copy_or_moveB7v160006INS_17_ClassicAlgPolicyENS_11__move_loopIS1_EENS_14__move_trivialEPPNS_7__stateIcEES8_S8_EENS_4pairIT2_T4_EESA_T3_SB_, symObjAddr: 0x26240, symBinAddr: 0x100027E80, symSize: 0x40 }
  - { offsetInCU: 0x286D7, offset: 0x286D7, size: 0x8, addend: 0x0, symName: __ZNSt3__121__unwrap_and_dispatchB7v160006INS_10__overloadINS_11__move_loopINS_17_ClassicAlgPolicyEEENS_14__move_trivialEEEPPNS_7__stateIcEESA_SA_Li0EEENS_4pairIT0_T2_EESC_T1_SD_, symObjAddr: 0x26280, symBinAddr: 0x100027EC0, symSize: 0xB0 }
  - { offsetInCU: 0x28766, offset: 0x28766, size: 0x8, addend: 0x0, symName: __ZNSt3__114__unwrap_rangeB7v160006IPPNS_7__stateIcEES4_EENS_4pairIT0_S6_EET_S8_, symObjAddr: 0x26330, symBinAddr: 0x100027F70, symSize: 0x50 }
  - { offsetInCU: 0x2892A, offset: 0x2892A, size: 0x8, addend: 0x0, symName: __ZNSt3__113__unwrap_iterB7v160006IPPNS_7__stateIcEENS_18__unwrap_iter_implIS4_Lb1EEELi0EEEDTclsrT0_8__unwrapclsr3stdE7declvalIT_EEEES8_, symObjAddr: 0x263C0, symBinAddr: 0x100028000, symSize: 0x20 }
  - { offsetInCU: 0x2896E, offset: 0x2896E, size: 0x8, addend: 0x0, symName: __ZNSt3__19make_pairB7v160006IPPNS_7__stateIcEES4_EENS_4pairINS_18__unwrap_ref_decayIT_E4typeENS6_IT0_E4typeEEEOS7_OSA_, symObjAddr: 0x263E0, symBinAddr: 0x100028020, symSize: 0x30 }
  - { offsetInCU: 0x289BD, offset: 0x289BD, size: 0x8, addend: 0x0, symName: __ZNSt3__114__rewrap_rangeB7v160006IPPNS_7__stateIcEES4_EET_S5_T0_, symObjAddr: 0x26410, symBinAddr: 0x100028050, symSize: 0x30 }
  - { offsetInCU: 0x28A09, offset: 0x28A09, size: 0x8, addend: 0x0, symName: __ZNSt3__113__rewrap_iterB7v160006IPPNS_7__stateIcEES4_NS_18__unwrap_iter_implIS4_Lb1EEEEET_S7_T0_, symObjAddr: 0x26440, symBinAddr: 0x100028080, symSize: 0x40 }
  - { offsetInCU: 0x28A5E, offset: 0x28A5E, size: 0x8, addend: 0x0, symName: __ZNSt3__119__copy_trivial_implB7v160006IPNS_7__stateIcEES3_EENS_4pairIPT_PT0_EES6_S6_S8_, symObjAddr: 0x26480, symBinAddr: 0x1000280C0, symSize: 0x70 }
  - { offsetInCU: 0x28AC6, offset: 0x28AC6, size: 0x8, addend: 0x0, symName: __ZNSt3__19make_pairB7v160006IRPPNS_7__stateIcEES4_EENS_4pairINS_18__unwrap_ref_decayIT_E4typeENS7_IT0_E4typeEEEOS8_OSB_, symObjAddr: 0x264F0, symBinAddr: 0x100028130, symSize: 0x30 }
  - { offsetInCU: 0x28B68, offset: 0x28B68, size: 0x8, addend: 0x0, symName: __ZNSt3__18distanceB7v160006INS_13move_iteratorIPPNS_7__stateIcEEEEEENS_15iterator_traitsIT_E15difference_typeES8_S8_, symObjAddr: 0x26650, symBinAddr: 0x100028290, symSize: 0x40 }
  - { offsetInCU: 0x28BAB, offset: 0x28BAB, size: 0x8, addend: 0x0, symName: __ZNSt3__110__distanceB7v160006INS_13move_iteratorIPPNS_7__stateIcEEEEEENS_15iterator_traitsIT_E15difference_typeES8_S8_NS_26random_access_iterator_tagE, symObjAddr: 0x26770, symBinAddr: 0x1000283B0, symSize: 0x30 }
  - { offsetInCU: 0x28BF8, offset: 0x28BF8, size: 0x8, addend: 0x0, symName: __ZNSt3__1miB7v160006IPPNS_7__stateIcEES4_EEDTmicldtfp_4baseEcldtfp0_4baseEERKNS_13move_iteratorIT_EERKNS6_IT0_EE, symObjAddr: 0x267A0, symBinAddr: 0x1000283E0, symSize: 0x40 }
  - { offsetInCU: 0x28C47, offset: 0x28C47, size: 0x8, addend: 0x0, symName: __ZNSt3__113move_backwardB7v160006IPPNS_7__stateIcEES4_EET0_T_S6_S5_, symObjAddr: 0x26950, symBinAddr: 0x100028590, symSize: 0x40 }
  - { offsetInCU: 0x28CA1, offset: 0x28CA1, size: 0x8, addend: 0x0, symName: __ZNSt3__115__move_backwardB7v160006INS_17_ClassicAlgPolicyEPPNS_7__stateIcEES5_S5_EENS_4pairIT0_T2_EES7_T1_S8_, symObjAddr: 0x26990, symBinAddr: 0x1000285D0, symSize: 0x40 }
  - { offsetInCU: 0x28D0D, offset: 0x28D0D, size: 0x8, addend: 0x0, symName: __ZNSt3__123__dispatch_copy_or_moveB7v160006INS_17_ClassicAlgPolicyENS_20__move_backward_loopIS1_EENS_23__move_backward_trivialEPPNS_7__stateIcEES8_S8_EENS_4pairIT2_T4_EESA_T3_SB_, symObjAddr: 0x269D0, symBinAddr: 0x100028610, symSize: 0x40 }
  - { offsetInCU: 0x28D8B, offset: 0x28D8B, size: 0x8, addend: 0x0, symName: __ZNSt3__121__unwrap_and_dispatchB7v160006INS_10__overloadINS_20__move_backward_loopINS_17_ClassicAlgPolicyEEENS_23__move_backward_trivialEEEPPNS_7__stateIcEESA_SA_Li0EEENS_4pairIT0_T2_EESC_T1_SD_, symObjAddr: 0x26A10, symBinAddr: 0x100028650, symSize: 0xB0 }
  - { offsetInCU: 0x28E60, offset: 0x28E60, size: 0x8, addend: 0x0, symName: __ZNSt3__128__copy_backward_trivial_implB7v160006IPNS_7__stateIcEES3_EENS_4pairIPT_PT0_EES6_S6_S8_, symObjAddr: 0x26B00, symBinAddr: 0x100028740, symSize: 0x80 }
  - { offsetInCU: 0x28EC8, offset: 0x28EC8, size: 0x8, addend: 0x0, symName: __ZNSt3__19make_pairB7v160006IRPPNS_7__stateIcEES5_EENS_4pairINS_18__unwrap_ref_decayIT_E4typeENS7_IT0_E4typeEEEOS8_OSB_, symObjAddr: 0x26B80, symBinAddr: 0x1000287C0, symSize: 0x30 }
  - { offsetInCU: 0x28F17, offset: 0x28F17, size: 0x8, addend: 0x0, symName: __ZNSt3__119__allocate_at_leastB7v160006INS_9allocatorIPNS_7__stateIcEEEEEENS_19__allocation_resultINS_16allocator_traitsIT_E7pointerEEERS8_m, symObjAddr: 0x26D40, symBinAddr: 0x100028980, symSize: 0x40 }
  - { offsetInCU: 0x28F5A, offset: 0x28F5A, size: 0x8, addend: 0x0, symName: __ZNSt3__1neB7v160006ERKNS_16__deque_iteratorINS_7__stateIcEEPS2_RS2_PS3_lLl42EEES8_, symObjAddr: 0x276C0, symBinAddr: 0x100029300, symSize: 0x30 }
  - { offsetInCU: 0x28F97, offset: 0x28F97, size: 0x8, addend: 0x0, symName: __ZNSt3__1eqB7v160006ERKNS_16__deque_iteratorINS_7__stateIcEEPS2_RS2_PS3_lLl42EEES8_, symObjAddr: 0x27750, symBinAddr: 0x100029390, symSize: 0x30 }
  - { offsetInCU: 0x28FD4, offset: 0x28FD4, size: 0x8, addend: 0x0, symName: __ZNSt3__18distanceB7v160006IPNS_9sub_matchIPKcEEEENS_15iterator_traitsIT_E15difference_typeES7_S7_, symObjAddr: 0x28570, symBinAddr: 0x10002A1B0, symSize: 0x30 }
  - { offsetInCU: 0x29017, offset: 0x29017, size: 0x8, addend: 0x0, symName: __ZNSt3__14copyB7v160006IPNS_9sub_matchIPKcEES5_EET0_T_S7_S6_, symObjAddr: 0x285F0, symBinAddr: 0x10002A230, symSize: 0x40 }
  - { offsetInCU: 0x29071, offset: 0x29071, size: 0x8, addend: 0x0, symName: __ZNSt3__110__distanceB7v160006IPNS_9sub_matchIPKcEEEENS_15iterator_traitsIT_E15difference_typeES7_S7_NS_26random_access_iterator_tagE, symObjAddr: 0x28630, symBinAddr: 0x10002A270, symSize: 0x30 }
  - { offsetInCU: 0x290BE, offset: 0x290BE, size: 0x8, addend: 0x0, symName: __ZNSt3__19__advanceB7v160006IPNS_9sub_matchIPKcEEEEvRT_NS_15iterator_traitsIS6_E15difference_typeENS_26random_access_iterator_tagE, symObjAddr: 0x28660, symBinAddr: 0x10002A2A0, symSize: 0x20 }
  - { offsetInCU: 0x29107, offset: 0x29107, size: 0x8, addend: 0x0, symName: __ZNSt3__16__copyB7v160006INS_17_ClassicAlgPolicyEPNS_9sub_matchIPKcEES6_S6_EENS_4pairIT0_T2_EES8_T1_S9_, symObjAddr: 0x28680, symBinAddr: 0x10002A2C0, symSize: 0x40 }
  - { offsetInCU: 0x29173, offset: 0x29173, size: 0x8, addend: 0x0, symName: __ZNSt3__123__dispatch_copy_or_moveB7v160006INS_17_ClassicAlgPolicyENS_11__copy_loopIS1_EENS_14__copy_trivialEPNS_9sub_matchIPKcEES9_S9_EENS_4pairIT2_T4_EESB_T3_SC_, symObjAddr: 0x286C0, symBinAddr: 0x10002A300, symSize: 0x40 }
  - { offsetInCU: 0x291F1, offset: 0x291F1, size: 0x8, addend: 0x0, symName: __ZNSt3__121__unwrap_and_dispatchB7v160006INS_10__overloadINS_11__copy_loopINS_17_ClassicAlgPolicyEEENS_14__copy_trivialEEEPNS_9sub_matchIPKcEESB_SB_Li0EEENS_4pairIT0_T2_EESD_T1_SE_, symObjAddr: 0x28700, symBinAddr: 0x10002A340, symSize: 0xB0 }
  - { offsetInCU: 0x29280, offset: 0x29280, size: 0x8, addend: 0x0, symName: __ZNSt3__114__unwrap_rangeB7v160006IPNS_9sub_matchIPKcEES5_EENS_4pairIT0_S7_EET_S9_, symObjAddr: 0x287B0, symBinAddr: 0x10002A3F0, symSize: 0x50 }
  - { offsetInCU: 0x29431, offset: 0x29431, size: 0x8, addend: 0x0, symName: __ZNSt3__113__unwrap_iterB7v160006IPNS_9sub_matchIPKcEENS_18__unwrap_iter_implIS5_Lb1EEELi0EEEDTclsrT0_8__unwrapclsr3stdE7declvalIT_EEEES9_, symObjAddr: 0x28880, symBinAddr: 0x10002A4C0, symSize: 0x20 }
  - { offsetInCU: 0x29475, offset: 0x29475, size: 0x8, addend: 0x0, symName: __ZNSt3__19make_pairB7v160006IPNS_9sub_matchIPKcEES5_EENS_4pairINS_18__unwrap_ref_decayIT_E4typeENS7_IT0_E4typeEEEOS8_OSB_, symObjAddr: 0x288A0, symBinAddr: 0x10002A4E0, symSize: 0x30 }
  - { offsetInCU: 0x294C4, offset: 0x294C4, size: 0x8, addend: 0x0, symName: __ZNSt3__114__rewrap_rangeB7v160006IPNS_9sub_matchIPKcEES5_EET_S6_T0_, symObjAddr: 0x288D0, symBinAddr: 0x10002A510, symSize: 0x30 }
  - { offsetInCU: 0x29510, offset: 0x29510, size: 0x8, addend: 0x0, symName: __ZNSt3__113__rewrap_iterB7v160006IPNS_9sub_matchIPKcEES5_NS_18__unwrap_iter_implIS5_Lb1EEEEET_S8_T0_, symObjAddr: 0x28900, symBinAddr: 0x10002A540, symSize: 0x40 }
  - { offsetInCU: 0x295B8, offset: 0x295B8, size: 0x8, addend: 0x0, symName: __ZNSt3__18distanceB7v160006IPNS_4pairImPKcEEEENS_15iterator_traitsIT_E15difference_typeES7_S7_, symObjAddr: 0x28BC0, symBinAddr: 0x10002A800, symSize: 0x30 }
  - { offsetInCU: 0x295FB, offset: 0x295FB, size: 0x8, addend: 0x0, symName: __ZNSt3__14copyB7v160006IPNS_4pairImPKcEES5_EET0_T_S7_S6_, symObjAddr: 0x28C40, symBinAddr: 0x10002A880, symSize: 0x40 }
  - { offsetInCU: 0x29655, offset: 0x29655, size: 0x8, addend: 0x0, symName: __ZNSt3__110__distanceB7v160006IPNS_4pairImPKcEEEENS_15iterator_traitsIT_E15difference_typeES7_S7_NS_26random_access_iterator_tagE, symObjAddr: 0x28D00, symBinAddr: 0x10002A940, symSize: 0x20 }
  - { offsetInCU: 0x296A2, offset: 0x296A2, size: 0x8, addend: 0x0, symName: __ZNSt3__19__advanceB7v160006IPNS_4pairImPKcEEEEvRT_NS_15iterator_traitsIS6_E15difference_typeENS_26random_access_iterator_tagE, symObjAddr: 0x28D20, symBinAddr: 0x10002A960, symSize: 0x20 }
  - { offsetInCU: 0x296EB, offset: 0x296EB, size: 0x8, addend: 0x0, symName: __ZNSt3__16__copyB7v160006INS_17_ClassicAlgPolicyEPNS_4pairImPKcEES6_S6_EENS2_IT0_T2_EES7_T1_S8_, symObjAddr: 0x28D40, symBinAddr: 0x10002A980, symSize: 0x40 }
  - { offsetInCU: 0x29757, offset: 0x29757, size: 0x8, addend: 0x0, symName: __ZNSt3__123__dispatch_copy_or_moveB7v160006INS_17_ClassicAlgPolicyENS_11__copy_loopIS1_EENS_14__copy_trivialEPNS_4pairImPKcEES9_S9_EENS5_IT2_T4_EESA_T3_SB_, symObjAddr: 0x28D80, symBinAddr: 0x10002A9C0, symSize: 0x40 }
  - { offsetInCU: 0x297D5, offset: 0x297D5, size: 0x8, addend: 0x0, symName: __ZNSt3__121__unwrap_and_dispatchB7v160006INS_10__overloadINS_11__copy_loopINS_17_ClassicAlgPolicyEEENS_14__copy_trivialEEEPNS_4pairImPKcEESB_SB_Li0EEENS7_IT0_T2_EESC_T1_SD_, symObjAddr: 0x28DC0, symBinAddr: 0x10002AA00, symSize: 0xB0 }
  - { offsetInCU: 0x29864, offset: 0x29864, size: 0x8, addend: 0x0, symName: __ZNSt3__114__unwrap_rangeB7v160006IPNS_4pairImPKcEES5_EENS1_IT0_S6_EET_S8_, symObjAddr: 0x28E70, symBinAddr: 0x10002AAB0, symSize: 0x50 }
  - { offsetInCU: 0x29984, offset: 0x29984, size: 0x8, addend: 0x0, symName: __ZNSt3__113__unwrap_iterB7v160006IPNS_4pairImPKcEENS_18__unwrap_iter_implIS5_Lb1EEELi0EEEDTclsrT0_8__unwrapclsr3stdE7declvalIT_EEEES9_, symObjAddr: 0x28F40, symBinAddr: 0x10002AB80, symSize: 0x20 }
  - { offsetInCU: 0x299C8, offset: 0x299C8, size: 0x8, addend: 0x0, symName: __ZNSt3__19make_pairB7v160006IPNS_4pairImPKcEES5_EENS1_INS_18__unwrap_ref_decayIT_E4typeENS6_IT0_E4typeEEEOS7_OSA_, symObjAddr: 0x28F60, symBinAddr: 0x10002ABA0, symSize: 0x30 }
  - { offsetInCU: 0x29A17, offset: 0x29A17, size: 0x8, addend: 0x0, symName: __ZNSt3__114__rewrap_rangeB7v160006IPNS_4pairImPKcEES5_EET_S6_T0_, symObjAddr: 0x28F90, symBinAddr: 0x10002ABD0, symSize: 0x30 }
  - { offsetInCU: 0x29A63, offset: 0x29A63, size: 0x8, addend: 0x0, symName: __ZNSt3__113__rewrap_iterB7v160006IPNS_4pairImPKcEES5_NS_18__unwrap_iter_implIS5_Lb1EEEEET_S8_T0_, symObjAddr: 0x28FC0, symBinAddr: 0x10002AC00, symSize: 0x40 }
  - { offsetInCU: 0x29B0B, offset: 0x29B0B, size: 0x8, addend: 0x0, symName: __ZNSt3__14nextB7v160006INS_11__wrap_iterIPKcEEEENS_9enable_ifIXsr25__is_cpp17_input_iteratorIT_EE5valueES6_E4typeES6_NS_15iterator_traitsIS6_E15difference_typeE, symObjAddr: 0x29210, symBinAddr: 0x10002AE50, symSize: 0x50 }
  - { offsetInCU: 0x29B4E, offset: 0x29B4E, size: 0x8, addend: 0x0, symName: __ZNSt3__142__uninitialized_allocator_move_if_noexceptB7v160006INS_9allocatorINS_9sub_matchINS_11__wrap_iterIPKcEEEEEENS_16reverse_iteratorIPS7_EESB_SB_EET2_RT_T0_T1_SC_, symObjAddr: 0x29AB0, symBinAddr: 0x10002B6F0, symSize: 0x170 }
  - { offsetInCU: 0x29BED, offset: 0x29BED, size: 0x8, addend: 0x0, symName: __ZNSt3__14swapB7v160006IPNS_9sub_matchINS_11__wrap_iterIPKcEEEEEENS_9enable_ifIXaasr21is_move_constructibleIT_EE5valuesr18is_move_assignableIS9_EE5valueEvE4typeERS9_SC_, symObjAddr: 0x29C20, symBinAddr: 0x10002B860, symSize: 0x40 }
  - { offsetInCU: 0x29C3E, offset: 0x29C3E, size: 0x8, addend: 0x0, symName: __ZNSt3__125__debug_db_invalidate_allB7v160006INS_6vectorINS_9sub_matchINS_11__wrap_iterIPKcEEEENS_9allocatorIS7_EEEEEEvPT_, symObjAddr: 0x29C60, symBinAddr: 0x10002B8A0, symSize: 0x10 }
  - { offsetInCU: 0x29C6F, offset: 0x29C6F, size: 0x8, addend: 0x0, symName: __ZNSt3__122__make_exception_guardB7v160006INS_29_AllocatorDestroyRangeReverseINS_9allocatorINS_9sub_matchINS_11__wrap_iterIPKcEEEEEENS_16reverse_iteratorIPS8_EEEEEENS_28__exception_guard_exceptionsIT_EESF_, symObjAddr: 0x29C70, symBinAddr: 0x10002B8B0, symSize: 0x60 }
  - { offsetInCU: 0x29CA4, offset: 0x29CA4, size: 0x8, addend: 0x0, symName: __ZNSt3__119__allocator_destroyB7v160006INS_9allocatorINS_9sub_matchINS_11__wrap_iterIPKcEEEEEENS_16reverse_iteratorINS9_IPS7_EEEESC_EEvRT_T0_T1_, symObjAddr: 0x29F90, symBinAddr: 0x10002BBD0, symSize: 0x70 }
  - { offsetInCU: 0x29D07, offset: 0x29D07, size: 0x8, addend: 0x0, symName: __ZNSt3__1neB7v160006INS_16reverse_iteratorIPNS_9sub_matchINS_11__wrap_iterIPKcEEEEEES9_EEbRKNS1_IT_EERKNS1_IT0_EE, symObjAddr: 0x2A030, symBinAddr: 0x10002BC70, symSize: 0x50 }
  - { offsetInCU: 0x29D53, offset: 0x29D53, size: 0x8, addend: 0x0, symName: __ZNSt3__112__to_addressB7v160006INS_16reverse_iteratorINS1_IPNS_9sub_matchINS_11__wrap_iterIPKcEEEEEEEEvEENS_5decayIDTclsr19__to_address_helperIT_EE6__callclsr3stdE7declvalIRKSC_EEEEE4typeESE_, symObjAddr: 0x2A080, symBinAddr: 0x10002BCC0, symSize: 0x20 }
  - { offsetInCU: 0x29DB2, offset: 0x29DB2, size: 0x8, addend: 0x0, symName: __ZNSt3__19__advanceB7v160006INS_11__wrap_iterIPKcEEEEvRT_NS_15iterator_traitsIS5_E15difference_typeENS_26random_access_iterator_tagE, symObjAddr: 0x2A4B0, symBinAddr: 0x10002C0F0, symSize: 0x30 }
  - { offsetInCU: 0x29DFB, offset: 0x29DFB, size: 0x8, addend: 0x0, symName: __ZNSt3__115__debug_db_swapB7v160006INS_6vectorINS_9sub_matchINS_11__wrap_iterIPKcEEEENS_9allocatorIS7_EEEEEEvPT_SC_, symObjAddr: 0x2A830, symBinAddr: 0x10002C470, symSize: 0x10 }
  - { offsetInCU: 0x29E3A, offset: 0x29E3A, size: 0x8, addend: 0x0, symName: __ZNSt3__18distanceB7v160006INS_11__wrap_iterIPKcEEEENS_15iterator_traitsIT_E15difference_typeES6_S6_, symObjAddr: 0x2AB70, symBinAddr: 0x10002C7B0, symSize: 0x40 }
  - { offsetInCU: 0x29E7D, offset: 0x29E7D, size: 0x8, addend: 0x0, symName: __ZNSt3__110__distanceB7v160006INS_11__wrap_iterIPKcEEEENS_15iterator_traitsIT_E15difference_typeES6_S6_NS_26random_access_iterator_tagE, symObjAddr: 0x2ABB0, symBinAddr: 0x10002C7F0, symSize: 0x30 }
  - { offsetInCU: 0x29ECA, offset: 0x29ECA, size: 0x8, addend: 0x0, symName: __ZNSt3__1miB7v160006IPKcS2_EEDTmicldtfp_4baseEcldtfp0_4baseEERKNS_11__wrap_iterIT_EERKNS4_IT0_EE, symObjAddr: 0x2ABE0, symBinAddr: 0x10002C820, symSize: 0x40 }
  - { offsetInCU: 0x29F16, offset: 0x29F16, size: 0x8, addend: 0x0, symName: __ZNSt3__1eqB7v160006INS_11__wrap_iterIPKcEEEEbRKNS_9sub_matchIT_EES9_, symObjAddr: 0x2AC50, symBinAddr: 0x10002C890, symSize: 0x30 }
  - { offsetInCU: 0x29F5C, offset: 0x29F5C, size: 0x8, addend: 0x0, symName: __ZNSt3__14copyB7v160006IPKcPcEET0_T_S5_S4_, symObjAddr: 0x2B040, symBinAddr: 0x10002CC80, symSize: 0x40 }
  - { offsetInCU: 0x29FB6, offset: 0x29FB6, size: 0x8, addend: 0x0, symName: __ZNSt3__16__copyB7v160006INS_17_ClassicAlgPolicyEPKcS3_PcEENS_4pairIT0_T2_EES6_T1_S7_, symObjAddr: 0x2B080, symBinAddr: 0x10002CCC0, symSize: 0x40 }
  - { offsetInCU: 0x2A022, offset: 0x2A022, size: 0x8, addend: 0x0, symName: __ZNSt3__123__dispatch_copy_or_moveB7v160006INS_17_ClassicAlgPolicyENS_11__copy_loopIS1_EENS_14__copy_trivialEPKcS6_PcEENS_4pairIT2_T4_EES9_T3_SA_, symObjAddr: 0x2B0C0, symBinAddr: 0x10002CD00, symSize: 0x40 }
  - { offsetInCU: 0x2A0A0, offset: 0x2A0A0, size: 0x8, addend: 0x0, symName: __ZNSt3__121__unwrap_and_dispatchB7v160006INS_10__overloadINS_11__copy_loopINS_17_ClassicAlgPolicyEEENS_14__copy_trivialEEEPKcS8_PcLi0EEENS_4pairIT0_T2_EESB_T1_SC_, symObjAddr: 0x2B100, symBinAddr: 0x10002CD40, symSize: 0xB0 }
  - { offsetInCU: 0x2A12F, offset: 0x2A12F, size: 0x8, addend: 0x0, symName: __ZNSt3__114__unwrap_rangeB7v160006IPKcS2_EENS_4pairIT0_S4_EET_S6_, symObjAddr: 0x2B1B0, symBinAddr: 0x10002CDF0, symSize: 0x50 }
  - { offsetInCU: 0x2A2C4, offset: 0x2A2C4, size: 0x8, addend: 0x0, symName: __ZNSt3__113__unwrap_iterB7v160006IPcNS_18__unwrap_iter_implIS1_Lb1EEELi0EEEDTclsrT0_8__unwrapclsr3stdE7declvalIT_EEEES5_, symObjAddr: 0x2B240, symBinAddr: 0x10002CE80, symSize: 0x20 }
  - { offsetInCU: 0x2A308, offset: 0x2A308, size: 0x8, addend: 0x0, symName: __ZNSt3__19make_pairB7v160006IPKcPcEENS_4pairINS_18__unwrap_ref_decayIT_E4typeENS5_IT0_E4typeEEEOS6_OS9_, symObjAddr: 0x2B260, symBinAddr: 0x10002CEA0, symSize: 0x30 }
  - { offsetInCU: 0x2A357, offset: 0x2A357, size: 0x8, addend: 0x0, symName: __ZNSt3__114__rewrap_rangeB7v160006IPKcS2_EET_S3_T0_, symObjAddr: 0x2B290, symBinAddr: 0x10002CED0, symSize: 0x30 }
  - { offsetInCU: 0x2A3A3, offset: 0x2A3A3, size: 0x8, addend: 0x0, symName: __ZNSt3__113__rewrap_iterB7v160006IPcS1_NS_18__unwrap_iter_implIS1_Lb1EEEEET_S4_T0_, symObjAddr: 0x2B2C0, symBinAddr: 0x10002CF00, symSize: 0x40 }
  - { offsetInCU: 0x2A3F8, offset: 0x2A3F8, size: 0x8, addend: 0x0, symName: __ZNSt3__19make_pairB7v160006IPKcS2_EENS_4pairINS_18__unwrap_ref_decayIT_E4typeENS4_IT0_E4typeEEEOS5_OS8_, symObjAddr: 0x2B300, symBinAddr: 0x10002CF40, symSize: 0x30 }
  - { offsetInCU: 0x2A447, offset: 0x2A447, size: 0x8, addend: 0x0, symName: __ZNSt3__113__unwrap_iterB7v160006IPKcNS_18__unwrap_iter_implIS2_Lb1EEELi0EEEDTclsrT0_8__unwrapclsr3stdE7declvalIT_EEEES6_, symObjAddr: 0x2B330, symBinAddr: 0x10002CF70, symSize: 0x20 }
  - { offsetInCU: 0x2A4DE, offset: 0x2A4DE, size: 0x8, addend: 0x0, symName: __ZNSt3__119__copy_trivial_implB7v160006IKccEENS_4pairIPT_PT0_EES4_S4_S6_, symObjAddr: 0x2B3D0, symBinAddr: 0x10002D010, symSize: 0x70 }
  - { offsetInCU: 0x2A546, offset: 0x2A546, size: 0x8, addend: 0x0, symName: __ZNSt3__19make_pairB7v160006IRPKcPcEENS_4pairINS_18__unwrap_ref_decayIT_E4typeENS6_IT0_E4typeEEEOS7_OSA_, symObjAddr: 0x2B440, symBinAddr: 0x10002D080, symSize: 0x30 }
  - { offsetInCU: 0x2A5E8, offset: 0x2A5E8, size: 0x8, addend: 0x0, symName: __ZNSt3__113__rewrap_iterB7v160006IPKcS2_NS_18__unwrap_iter_implIS2_Lb1EEEEET_S5_T0_, symObjAddr: 0x2B550, symBinAddr: 0x10002D190, symSize: 0x40 }
  - { offsetInCU: 0x2A63D, offset: 0x2A63D, size: 0x8, addend: 0x0, symName: __ZNSt3__16fill_nB7v160006IPcmcEET_S2_T0_RKT1_, symObjAddr: 0x2B610, symBinAddr: 0x10002D250, symSize: 0x40 }
  - { offsetInCU: 0x2A6A0, offset: 0x2A6A0, size: 0x8, addend: 0x0, symName: __ZNSt3__18__fill_nB7v160006IPcmcEET_S2_T0_RKT1_, symObjAddr: 0x2B650, symBinAddr: 0x10002D290, symSize: 0x4A }
  - { offsetInCU: 0x2B256, offset: 0x2B256, size: 0x8, addend: 0x0, symName: __ZSt28__throw_bad_array_new_lengthB7v160006v, symObjAddr: 0x3180, symBinAddr: 0x100004DC0, symSize: 0x40 }
  - { offsetInCU: 0x2C5EA, offset: 0x2C5EA, size: 0x8, addend: 0x0, symName: __ZNSt3__16vectorINS_7__stateIcEENS_9allocatorIS2_EEE26__swap_out_circular_bufferERNS_14__split_bufferIS2_RS4_EE, symObjAddr: 0xCFE0, symBinAddr: 0x10000EC20, symSize: 0x130 }
  - { offsetInCU: 0x2C687, offset: 0x2C687, size: 0x8, addend: 0x0, symName: __ZNSt3__16vectorINS_9sub_matchIPKcEENS_9allocatorIS4_EEE26__swap_out_circular_bufferERNS_14__split_bufferIS4_RS6_EE, symObjAddr: 0xEB20, symBinAddr: 0x100010760, symSize: 0x130 }
  - { offsetInCU: 0x2C71F, offset: 0x2C71F, size: 0x8, addend: 0x0, symName: __ZNSt3__16vectorINS_4pairImPKcEENS_9allocatorIS4_EEE26__swap_out_circular_bufferERNS_14__split_bufferIS4_RS6_EE, symObjAddr: 0xFD50, symBinAddr: 0x100011990, symSize: 0x130 }
  - { offsetInCU: 0x2CCBB, offset: 0x2CCBB, size: 0x8, addend: 0x0, symName: __ZNSt3__16vectorIcNS_9allocatorIcEEE26__swap_out_circular_bufferERNS_14__split_bufferIcRS2_EE, symObjAddr: 0x18160, symBinAddr: 0x100019DA0, symSize: 0x130 }
  - { offsetInCU: 0x2CD13, offset: 0x2CD13, size: 0x8, addend: 0x0, symName: __ZNSt3__16vectorINS_12basic_stringIcNS_11char_traitsIcEENS_9allocatorIcEEEENS4_IS6_EEE26__swap_out_circular_bufferERNS_14__split_bufferIS6_RS7_EE, symObjAddr: 0x1C060, symBinAddr: 0x10001DCA0, symSize: 0x130 }
  - { offsetInCU: 0x2CD96, offset: 0x2CD96, size: 0x8, addend: 0x0, symName: __ZNSt3__16vectorINS_4pairINS_12basic_stringIcNS_11char_traitsIcEENS_9allocatorIcEEEES7_EENS5_IS8_EEE26__swap_out_circular_bufferERNS_14__split_bufferIS8_RS9_EE, symObjAddr: 0x1D580, symBinAddr: 0x10001F1C0, symSize: 0x130 }
  - { offsetInCU: 0x2CE2E, offset: 0x2CE2E, size: 0x8, addend: 0x0, symName: __ZNSt3__16vectorINS_4pairIccEENS_9allocatorIS2_EEE26__swap_out_circular_bufferERNS_14__split_bufferIS2_RS4_EE, symObjAddr: 0x1EA90, symBinAddr: 0x1000206D0, symSize: 0x130 }
  - { offsetInCU: 0x2D046, offset: 0x2D046, size: 0x8, addend: 0x0, symName: __ZNSt3__16vectorINS_9sub_matchINS_11__wrap_iterIPKcEEEENS_9allocatorIS6_EEE26__swap_out_circular_bufferERNS_14__split_bufferIS6_RS8_EE, symObjAddr: 0x29670, symBinAddr: 0x10002B2B0, symSize: 0x130 }
  - { offsetInCU: 0x2F49B, offset: 0x2F49B, size: 0x8, addend: 0x0, symName: __Z17convert_to_numberRKNSt3__112basic_stringIcNS_11char_traitsIcEENS_9allocatorIcEEEE, symObjAddr: 0x0, symBinAddr: 0x100001C40, symSize: 0x6D0 }
  - { offsetInCU: 0x2F4FC, offset: 0x2F4FC, size: 0x8, addend: 0x0, symName: __ZNSt3__112basic_stringIcNS_11char_traitsIcEENS_9allocatorIcEEEC1B7v160006IDnEEPKc, symObjAddr: 0x6D0, symBinAddr: 0x100002310, symSize: 0x30 }
  - { offsetInCU: 0x2F53A, offset: 0x2F53A, size: 0x8, addend: 0x0, symName: __ZNSt3__16vectorINS_12basic_stringIcNS_11char_traitsIcEENS_9allocatorIcEEEENS4_IS6_EEEC1B7v160006ESt16initializer_listIS6_E, symObjAddr: 0x700, symBinAddr: 0x100002340, symSize: 0x30 }
  - { offsetInCU: 0x2F575, offset: 0x2F575, size: 0x8, addend: 0x0, symName: __ZNSt3__112basic_stringIcNS_11char_traitsIcEENS_9allocatorIcEEEC1B7v160006Ev, symObjAddr: 0x730, symBinAddr: 0x100002370, symSize: 0x20 }
  - { offsetInCU: 0x2F59F, offset: 0x2F59F, size: 0x8, addend: 0x0, symName: __ZNSt3__112basic_stringIcNS_11char_traitsIcEENS_9allocatorIcEEEaSB7v160006EPKc, symObjAddr: 0x7E0, symBinAddr: 0x100002420, symSize: 0x30 }
  - { offsetInCU: 0x2F5D4, offset: 0x2F5D4, size: 0x8, addend: 0x0, symName: __ZNSt3__111__wrap_iterIPNS_12basic_stringIcNS_11char_traitsIcEENS_9allocatorIcEEEEEC1B7v160006Ev, symObjAddr: 0x810, symBinAddr: 0x100002450, symSize: 0x20 }
  - { offsetInCU: 0x2F5FE, offset: 0x2F5FE, size: 0x8, addend: 0x0, symName: __ZNSt3__16vectorINS_12basic_stringIcNS_11char_traitsIcEENS_9allocatorIcEEEENS4_IS6_EEE5beginB7v160006Ev, symObjAddr: 0x8B0, symBinAddr: 0x1000024F0, symSize: 0x30 }
  - { offsetInCU: 0x2F626, offset: 0x2F626, size: 0x8, addend: 0x0, symName: __ZNSt3__16vectorINS_12basic_stringIcNS_11char_traitsIcEENS_9allocatorIcEEEENS4_IS6_EEE3endB7v160006Ev, symObjAddr: 0x8E0, symBinAddr: 0x100002520, symSize: 0x30 }
  - { offsetInCU: 0x2F64E, offset: 0x2F64E, size: 0x8, addend: 0x0, symName: __ZNSt3__16vectorINS_12basic_stringIcNS_11char_traitsIcEENS_9allocatorIcEEEENS4_IS6_EEED1B7v160006Ev, symObjAddr: 0x990, symBinAddr: 0x1000025D0, symSize: 0x20 }
  - { offsetInCU: 0x2F677, offset: 0x2F677, size: 0x8, addend: 0x0, symName: __Z8fix_lineNSt3__112basic_stringIcNS_11char_traitsIcEENS_9allocatorIcEEEE, symObjAddr: 0x9B0, symBinAddr: 0x1000025F0, symSize: 0x5C0 }
  - { offsetInCU: 0x2F72B, offset: 0x2F72B, size: 0x8, addend: 0x0, symName: __ZNKSt3__111__wrap_iterIPNS_12basic_stringIcNS_11char_traitsIcEENS_9allocatorIcEEEEEdeB7v160006Ev, symObjAddr: 0xFA0, symBinAddr: 0x100002BE0, symSize: 0x20 }
  - { offsetInCU: 0x2F751, offset: 0x2F751, size: 0x8, addend: 0x0, symName: __ZNKSt3__112basic_stringIcNS_11char_traitsIcEENS_9allocatorIcEEE4findB7v160006ERKS5_m, symObjAddr: 0xFC0, symBinAddr: 0x100002C00, symSize: 0x70 }
  - { offsetInCU: 0x2F797, offset: 0x2F797, size: 0x8, addend: 0x0, symName: __ZNSt3__112basic_stringIcNS_11char_traitsIcEENS_9allocatorIcEEE7replaceB7v160006EmmRKS5_, symObjAddr: 0x1030, symBinAddr: 0x100002C70, symSize: 0x70 }
  - { offsetInCU: 0x2F7EA, offset: 0x2F7EA, size: 0x8, addend: 0x0, symName: __ZNSt3__113basic_ostreamIcNS_11char_traitsIcEEElsB7v160006EPFRS3_S4_E, symObjAddr: 0x10A0, symBinAddr: 0x100002CE0, symSize: 0x20 }
  - { offsetInCU: 0x2F81E, offset: 0x2F81E, size: 0x8, addend: 0x0, symName: __ZNSt3__111__wrap_iterIPNS_12basic_stringIcNS_11char_traitsIcEENS_9allocatorIcEEEEEppB7v160006Ev, symObjAddr: 0x1110, symBinAddr: 0x100002D50, symSize: 0x20 }
  - { offsetInCU: 0x2F844, offset: 0x2F844, size: 0x8, addend: 0x0, symName: _main, symObjAddr: 0x1130, symBinAddr: 0x100002D70, symSize: 0xAE0 }
  - { offsetInCU: 0x2FA8B, offset: 0x2FA8B, size: 0x8, addend: 0x0, symName: __ZNSt3__114basic_ifstreamIcNS_11char_traitsIcEEEC1EPKcj, symObjAddr: 0x1C10, symBinAddr: 0x100003850, symSize: 0x160 }
  - { offsetInCU: 0x2FAD5, offset: 0x2FAD5, size: 0x8, addend: 0x0, symName: __ZNKSt3__114basic_ifstreamIcNS_11char_traitsIcEEE7is_openEv, symObjAddr: 0x1D70, symBinAddr: 0x1000039B0, symSize: 0x30 }
  - { offsetInCU: 0x2FAFD, offset: 0x2FAFD, size: 0x8, addend: 0x0, symName: __ZNSt3__111basic_regexIcNS_12regex_traitsIcEEEC1B7v160006EPKcNS_15regex_constants18syntax_option_typeE, symObjAddr: 0x1DA0, symBinAddr: 0x1000039E0, symSize: 0x30 }
  - { offsetInCU: 0x2FB45, offset: 0x2FB45, size: 0x8, addend: 0x0, symName: __ZNKSt3__19basic_iosIcNS_11char_traitsIcEEEcvbB7v160006Ev, symObjAddr: 0x1E20, symBinAddr: 0x100003A60, symSize: 0x30 }
  - { offsetInCU: 0x2FB6B, offset: 0x2FB6B, size: 0x8, addend: 0x0, symName: __ZNSt3__112basic_stringIcNS_11char_traitsIcEENS_9allocatorIcEEEaSB7v160006EOS5_, symObjAddr: 0x1E50, symBinAddr: 0x100003A90, symSize: 0x30 }
  - { offsetInCU: 0x2FBA0, offset: 0x2FBA0, size: 0x8, addend: 0x0, symName: __ZNSt3__112basic_stringIcNS_11char_traitsIcEENS_9allocatorIcEEE5beginB7v160006Ev, symObjAddr: 0x1E80, symBinAddr: 0x100003AC0, symSize: 0x50 }
  - { offsetInCU: 0x2FBD1, offset: 0x2FBD1, size: 0x8, addend: 0x0, symName: __ZNSt3__111__wrap_iterIPKcEC1B7v160006IPcEERKNS0_IT_EEPNS_9enable_ifIXsr14is_convertibleIS6_S2_EE5valueEvE4typeE, symObjAddr: 0x1ED0, symBinAddr: 0x100003B10, symSize: 0x30 }
  - { offsetInCU: 0x2FC1C, offset: 0x2FC1C, size: 0x8, addend: 0x0, symName: __ZNSt3__112basic_stringIcNS_11char_traitsIcEENS_9allocatorIcEEE3endB7v160006Ev, symObjAddr: 0x1F00, symBinAddr: 0x100003B40, symSize: 0x50 }
  - { offsetInCU: 0x2FCB8, offset: 0x2FCB8, size: 0x8, addend: 0x0, symName: __ZNSt3__114regex_iteratorINS_11__wrap_iterIPKcEEcNS_12regex_traitsIcEEEC1ES4_S4_RKNS_11basic_regexIcS6_EENS_15regex_constants15match_flag_typeE, symObjAddr: 0x1F50, symBinAddr: 0x100003B90, symSize: 0x40 }
  - { offsetInCU: 0x2FD20, offset: 0x2FD20, size: 0x8, addend: 0x0, symName: __ZNSt3__114regex_iteratorINS_11__wrap_iterIPKcEEcNS_12regex_traitsIcEEEC1Ev, symObjAddr: 0x1F90, symBinAddr: 0x100003BD0, symSize: 0x20 }
  - { offsetInCU: 0x2FD51, offset: 0x2FD51, size: 0x8, addend: 0x0, symName: __ZNSt3__114regex_iteratorINS_11__wrap_iterIPKcEEcNS_12regex_traitsIcEEEC1ERKS7_, symObjAddr: 0x2090, symBinAddr: 0x100003CD0, symSize: 0x30 }
  - { offsetInCU: 0x2FD87, offset: 0x2FD87, size: 0x8, addend: 0x0, symName: __ZNSt3__114regex_iteratorINS_11__wrap_iterIPKcEEcNS_12regex_traitsIcEEED1Ev, symObjAddr: 0x20C0, symBinAddr: 0x100003D00, symSize: 0x20 }
  - { offsetInCU: 0x2FDB4, offset: 0x2FDB4, size: 0x8, addend: 0x0, symName: __ZNKSt3__114regex_iteratorINS_11__wrap_iterIPKcEEcNS_12regex_traitsIcEEEneB7v160006ERKS7_, symObjAddr: 0x20E0, symBinAddr: 0x100003D20, symSize: 0x30 }
  - { offsetInCU: 0x2FDE9, offset: 0x2FDE9, size: 0x8, addend: 0x0, symName: __ZNKSt3__114regex_iteratorINS_11__wrap_iterIPKcEEcNS_12regex_traitsIcEEEdeB7v160006Ev, symObjAddr: 0x2110, symBinAddr: 0x100003D50, symSize: 0x20 }
  - { offsetInCU: 0x2FE1A, offset: 0x2FE1A, size: 0x8, addend: 0x0, symName: __ZNSt3__113match_resultsINS_11__wrap_iterIPKcEENS_9allocatorINS_9sub_matchIS4_EEEEEC1ERKS9_, symObjAddr: 0x2130, symBinAddr: 0x100003D70, symSize: 0x30 }
  - { offsetInCU: 0x2FE50, offset: 0x2FE50, size: 0x8, addend: 0x0, symName: __ZNKSt3__113match_resultsINS_11__wrap_iterIPKcEENS_9allocatorINS_9sub_matchIS4_EEEEE3strB7v160006Em, symObjAddr: 0x2160, symBinAddr: 0x100003DA0, symSize: 0x50 }
  - { offsetInCU: 0x2FE85, offset: 0x2FE85, size: 0x8, addend: 0x0, symName: __ZNKSt3__114regex_iteratorINS_11__wrap_iterIPKcEEcNS_12regex_traitsIcEEEeqERKS7_, symObjAddr: 0x21B0, symBinAddr: 0x100003DF0, symSize: 0x160 }
  - { offsetInCU: 0x2FEBC, offset: 0x2FEBC, size: 0x8, addend: 0x0, symName: __ZNSt3__113match_resultsINS_11__wrap_iterIPKcEENS_9allocatorINS_9sub_matchIS4_EEEEED1Ev, symObjAddr: 0x2310, symBinAddr: 0x100003F50, symSize: 0x20 }
  - { offsetInCU: 0x2FEE9, offset: 0x2FEE9, size: 0x8, addend: 0x0, symName: __ZNSt3__114regex_iteratorINS_11__wrap_iterIPKcEEcNS_12regex_traitsIcEEEppEv, symObjAddr: 0x2330, symBinAddr: 0x100003F70, symSize: 0x240 }
  - { offsetInCU: 0x2FF25, offset: 0x2FF25, size: 0x8, addend: 0x0, symName: __ZNSt3__111basic_regexIcNS_12regex_traitsIcEEED1Ev, symObjAddr: 0x2680, symBinAddr: 0x1000042C0, symSize: 0x20 }
  - { offsetInCU: 0x2FF57, offset: 0x2FF57, size: 0x8, addend: 0x0, symName: __ZNSt3__114basic_ifstreamIcNS_11char_traitsIcEEED1Ev, symObjAddr: 0x26A0, symBinAddr: 0x1000042E0, symSize: 0x40 }
  - { offsetInCU: 0x2FF84, offset: 0x2FF84, size: 0x8, addend: 0x0, symName: __ZNSt3__111__wrap_iterIPNS_12basic_stringIcNS_11char_traitsIcEENS_9allocatorIcEEEEEC2B7v160006Ev, symObjAddr: 0x26E0, symBinAddr: 0x100004320, symSize: 0x30 }
  - { offsetInCU: 0x2FFAE, offset: 0x2FFAE, size: 0x8, addend: 0x0, symName: __ZNKSt3__111__wrap_iterIPNS_12basic_stringIcNS_11char_traitsIcEENS_9allocatorIcEEEEE4baseB7v160006Ev, symObjAddr: 0x2730, symBinAddr: 0x100004370, symSize: 0x20 }
  - { offsetInCU: 0x2FFD4, offset: 0x2FFD4, size: 0x8, addend: 0x0, symName: __ZNSt3__111__wrap_iterIPKcEC2B7v160006IPcEERKNS0_IT_EEPNS_9enable_ifIXsr14is_convertibleIS6_S2_EE5valueEvE4typeE, symObjAddr: 0x2750, symBinAddr: 0x100004390, symSize: 0x40 }
  - { offsetInCU: 0x3001F, offset: 0x3001F, size: 0x8, addend: 0x0, symName: __ZNKSt3__111__wrap_iterIPcE4baseB7v160006Ev, symObjAddr: 0x2790, symBinAddr: 0x1000043D0, symSize: 0x20 }
  - { offsetInCU: 0x30045, offset: 0x30045, size: 0x8, addend: 0x0, symName: __ZNSt3__114regex_iteratorINS_11__wrap_iterIPKcEEcNS_12regex_traitsIcEEEC2ERKS7_, symObjAddr: 0x2810, symBinAddr: 0x100004450, symSize: 0x50 }
  - { offsetInCU: 0x3007B, offset: 0x3007B, size: 0x8, addend: 0x0, symName: __ZNSt3__114regex_iteratorINS_11__wrap_iterIPKcEEcNS_12regex_traitsIcEEED2Ev, symObjAddr: 0x2860, symBinAddr: 0x1000044A0, symSize: 0x20 }
  - { offsetInCU: 0x300A8, offset: 0x300A8, size: 0x8, addend: 0x0, symName: __ZNSt3__113match_resultsINS_11__wrap_iterIPKcEENS_9allocatorINS_9sub_matchIS4_EEEEEC2ERKS9_, symObjAddr: 0x2880, symBinAddr: 0x1000044C0, symSize: 0x50 }
  - { offsetInCU: 0x300DE, offset: 0x300DE, size: 0x8, addend: 0x0, symName: __ZNSt3__16vectorINS_9sub_matchINS_11__wrap_iterIPKcEEEENS_9allocatorIS6_EEEC1ERKS9_, symObjAddr: 0x28D0, symBinAddr: 0x100004510, symSize: 0x30 }
  - { offsetInCU: 0x30119, offset: 0x30119, size: 0x8, addend: 0x0, symName: __ZNSt3__16vectorINS_9sub_matchINS_11__wrap_iterIPKcEEEENS_9allocatorIS6_EEEC2ERKS9_, symObjAddr: 0x2900, symBinAddr: 0x100004540, symSize: 0x110 }
  - { offsetInCU: 0x30184, offset: 0x30184, size: 0x8, addend: 0x0, symName: __ZNSt3__116allocator_traitsINS_9allocatorINS_9sub_matchINS_11__wrap_iterIPKcEEEEEEE37select_on_container_copy_constructionB7v160006IS8_vvEES8_RKS8_, symObjAddr: 0x2A10, symBinAddr: 0x100004650, symSize: 0x10 }
  - { offsetInCU: 0x301B3, offset: 0x301B3, size: 0x8, addend: 0x0, symName: __ZNKSt3__16vectorINS_9sub_matchINS_11__wrap_iterIPKcEEEENS_9allocatorIS6_EEE7__allocB7v160006Ev, symObjAddr: 0x2A20, symBinAddr: 0x100004660, symSize: 0x20 }
  - { offsetInCU: 0x301E5, offset: 0x301E5, size: 0x8, addend: 0x0, symName: __ZNSt3__117__compressed_pairIPNS_9sub_matchINS_11__wrap_iterIPKcEEEENS_9allocatorIS6_EEEC1B7v160006IDnS9_EEOT_OT0_, symObjAddr: 0x2A40, symBinAddr: 0x100004680, symSize: 0x30 }
  - { offsetInCU: 0x3023D, offset: 0x3023D, size: 0x8, addend: 0x0, symName: __ZNSt3__16vectorINS_9sub_matchINS_11__wrap_iterIPKcEEEENS_9allocatorIS6_EEE16__destroy_vectorC1ERS9_, symObjAddr: 0x2AB0, symBinAddr: 0x1000046F0, symSize: 0x30 }
  - { offsetInCU: 0x30276, offset: 0x30276, size: 0x8, addend: 0x0, symName: __ZNKSt3__16vectorINS_9sub_matchINS_11__wrap_iterIPKcEEEENS_9allocatorIS6_EEE4sizeB7v160006Ev, symObjAddr: 0x2AF0, symBinAddr: 0x100004730, symSize: 0x30 }
  - { offsetInCU: 0x3029C, offset: 0x3029C, size: 0x8, addend: 0x0, symName: __ZNSt3__16vectorINS_9sub_matchINS_11__wrap_iterIPKcEEEENS_9allocatorIS6_EEE11__vallocateB7v160006Em, symObjAddr: 0x2B20, symBinAddr: 0x100004760, symSize: 0xA0 }
  - { offsetInCU: 0x302E0, offset: 0x302E0, size: 0x8, addend: 0x0, symName: __ZNSt3__16vectorINS_9sub_matchINS_11__wrap_iterIPKcEEEENS_9allocatorIS6_EEE18__construct_at_endIPS6_Li0EEEvT_SC_m, symObjAddr: 0x2BC0, symBinAddr: 0x100004800, symSize: 0x90 }
  - { offsetInCU: 0x30353, offset: 0x30353, size: 0x8, addend: 0x0, symName: __ZNSt3__128__exception_guard_exceptionsINS_6vectorINS_9sub_matchINS_11__wrap_iterIPKcEEEENS_9allocatorIS7_EEE16__destroy_vectorEE10__completeB7v160006Ev, symObjAddr: 0x2C50, symBinAddr: 0x100004890, symSize: 0x20 }
  - { offsetInCU: 0x30379, offset: 0x30379, size: 0x8, addend: 0x0, symName: __ZNSt3__128__exception_guard_exceptionsINS_6vectorINS_9sub_matchINS_11__wrap_iterIPKcEEEENS_9allocatorIS7_EEE16__destroy_vectorEED1B7v160006Ev, symObjAddr: 0x2C70, symBinAddr: 0x1000048B0, symSize: 0x20 }
  - { offsetInCU: 0x303A3, offset: 0x303A3, size: 0x8, addend: 0x0, symName: __ZNKSt3__117__compressed_pairIPNS_9sub_matchINS_11__wrap_iterIPKcEEEENS_9allocatorIS6_EEE6secondB7v160006Ev, symObjAddr: 0x2C90, symBinAddr: 0x1000048D0, symSize: 0x20 }
  - { offsetInCU: 0x303C9, offset: 0x303C9, size: 0x8, addend: 0x0, symName: __ZNKSt3__122__compressed_pair_elemINS_9allocatorINS_9sub_matchINS_11__wrap_iterIPKcEEEEEELi1ELb1EE5__getB7v160006Ev, symObjAddr: 0x2CB0, symBinAddr: 0x1000048F0, symSize: 0x10 }
  - { offsetInCU: 0x303EF, offset: 0x303EF, size: 0x8, addend: 0x0, symName: __ZNSt3__117__compressed_pairIPNS_9sub_matchINS_11__wrap_iterIPKcEEEENS_9allocatorIS6_EEEC2B7v160006IDnS9_EEOT_OT0_, symObjAddr: 0x2CC0, symBinAddr: 0x100004900, symSize: 0x40 }
  - { offsetInCU: 0x30447, offset: 0x30447, size: 0x8, addend: 0x0, symName: __ZNSt3__122__compressed_pair_elemIPNS_9sub_matchINS_11__wrap_iterIPKcEEEELi0ELb0EEC2B7v160006IDnvEEOT_, symObjAddr: 0x2D00, symBinAddr: 0x100004940, symSize: 0x20 }
  - { offsetInCU: 0x30489, offset: 0x30489, size: 0x8, addend: 0x0, symName: __ZNSt3__122__compressed_pair_elemINS_9allocatorINS_9sub_matchINS_11__wrap_iterIPKcEEEEEELi1ELb1EEC2B7v160006IS8_vEEOT_, symObjAddr: 0x2D20, symBinAddr: 0x100004960, symSize: 0x10 }
  - { offsetInCU: 0x304CB, offset: 0x304CB, size: 0x8, addend: 0x0, symName: __ZNSt3__128__exception_guard_exceptionsINS_6vectorINS_9sub_matchINS_11__wrap_iterIPKcEEEENS_9allocatorIS7_EEE16__destroy_vectorEEC1B7v160006ESB_, symObjAddr: 0x2D30, symBinAddr: 0x100004970, symSize: 0x30 }
  - { offsetInCU: 0x30503, offset: 0x30503, size: 0x8, addend: 0x0, symName: __ZNSt3__128__exception_guard_exceptionsINS_6vectorINS_9sub_matchINS_11__wrap_iterIPKcEEEENS_9allocatorIS7_EEE16__destroy_vectorEEC2B7v160006ESB_, symObjAddr: 0x2D60, symBinAddr: 0x1000049A0, symSize: 0x20 }
  - { offsetInCU: 0x3053B, offset: 0x3053B, size: 0x8, addend: 0x0, symName: __ZNSt3__16vectorINS_9sub_matchINS_11__wrap_iterIPKcEEEENS_9allocatorIS6_EEE16__destroy_vectorC2ERS9_, symObjAddr: 0x2D80, symBinAddr: 0x1000049C0, symSize: 0x20 }
  - { offsetInCU: 0x30574, offset: 0x30574, size: 0x8, addend: 0x0, symName: __ZNKSt3__16vectorINS_9sub_matchINS_11__wrap_iterIPKcEEEENS_9allocatorIS6_EEE8max_sizeEv, symObjAddr: 0x2DA0, symBinAddr: 0x1000049E0, symSize: 0x60 }
  - { offsetInCU: 0x3059C, offset: 0x3059C, size: 0x8, addend: 0x0, symName: __ZNKSt3__16vectorINS_9sub_matchINS_11__wrap_iterIPKcEEEENS_9allocatorIS6_EEE20__throw_length_errorB7v160006Ev, symObjAddr: 0x2E00, symBinAddr: 0x100004A40, symSize: 0x20 }
  - { offsetInCU: 0x305C2, offset: 0x305C2, size: 0x8, addend: 0x0, symName: __ZNSt3__16vectorINS_9sub_matchINS_11__wrap_iterIPKcEEEENS_9allocatorIS6_EEE7__allocB7v160006Ev, symObjAddr: 0x2E60, symBinAddr: 0x100004AA0, symSize: 0x20 }
  - { offsetInCU: 0x305E8, offset: 0x305E8, size: 0x8, addend: 0x0, symName: __ZNSt3__16vectorINS_9sub_matchINS_11__wrap_iterIPKcEEEENS_9allocatorIS6_EEE9__end_capB7v160006Ev, symObjAddr: 0x2E80, symBinAddr: 0x100004AC0, symSize: 0x20 }
  - { offsetInCU: 0x3060E, offset: 0x3060E, size: 0x8, addend: 0x0, symName: __ZNKSt3__16vectorINS_9sub_matchINS_11__wrap_iterIPKcEEEENS_9allocatorIS6_EEE14__annotate_newB7v160006Em, symObjAddr: 0x2EA0, symBinAddr: 0x100004AE0, symSize: 0xA0 }
  - { offsetInCU: 0x30643, offset: 0x30643, size: 0x8, addend: 0x0, symName: __ZNSt3__116allocator_traitsINS_9allocatorINS_9sub_matchINS_11__wrap_iterIPKcEEEEEEE8max_sizeB7v160006IS8_vEEmRKS8_, symObjAddr: 0x2F70, symBinAddr: 0x100004BB0, symSize: 0x20 }
  - { offsetInCU: 0x30671, offset: 0x30671, size: 0x8, addend: 0x0, symName: __ZNSt3__114numeric_limitsIlE3maxB7v160006Ev, symObjAddr: 0x2F90, symBinAddr: 0x100004BD0, symSize: 0x10 }
  - { offsetInCU: 0x3068F, offset: 0x3068F, size: 0x8, addend: 0x0, symName: __ZNKSt3__16__lessImmEclB7v160006ERKmS3_, symObjAddr: 0x2FF0, symBinAddr: 0x100004C30, symSize: 0x30 }
  - { offsetInCU: 0x306D1, offset: 0x306D1, size: 0x8, addend: 0x0, symName: __ZNKSt3__19allocatorINS_9sub_matchINS_11__wrap_iterIPKcEEEEE8max_sizeB7v160006Ev, symObjAddr: 0x3020, symBinAddr: 0x100004C60, symSize: 0x20 }
  - { offsetInCU: 0x306F7, offset: 0x306F7, size: 0x8, addend: 0x0, symName: __ZNSt3__123__libcpp_numeric_limitsIlLb1EE3maxB7v160006Ev, symObjAddr: 0x3040, symBinAddr: 0x100004C80, symSize: 0x10 }
  - { offsetInCU: 0x3070B, offset: 0x3070B, size: 0x8, addend: 0x0, symName: __ZNSt12length_errorC1B7v160006EPKc, symObjAddr: 0x30C0, symBinAddr: 0x100004D00, symSize: 0x30 }
  - { offsetInCU: 0x30743, offset: 0x30743, size: 0x8, addend: 0x0, symName: __ZNSt12length_errorC2B7v160006EPKc, symObjAddr: 0x30F0, symBinAddr: 0x100004D30, symSize: 0x40 }
  - { offsetInCU: 0x3077B, offset: 0x3077B, size: 0x8, addend: 0x0, symName: __ZNSt3__19allocatorINS_9sub_matchINS_11__wrap_iterIPKcEEEEE8allocateB7v160006Em, symObjAddr: 0x3130, symBinAddr: 0x100004D70, symSize: 0x50 }
  - { offsetInCU: 0x307AF, offset: 0x307AF, size: 0x8, addend: 0x0, symName: __ZNSt3__117__compressed_pairIPNS_9sub_matchINS_11__wrap_iterIPKcEEEENS_9allocatorIS6_EEE6secondB7v160006Ev, symObjAddr: 0x3290, symBinAddr: 0x100004ED0, symSize: 0x20 }
  - { offsetInCU: 0x307D5, offset: 0x307D5, size: 0x8, addend: 0x0, symName: __ZNSt3__122__compressed_pair_elemINS_9allocatorINS_9sub_matchINS_11__wrap_iterIPKcEEEEEELi1ELb1EE5__getB7v160006Ev, symObjAddr: 0x32B0, symBinAddr: 0x100004EF0, symSize: 0x10 }
  - { offsetInCU: 0x307FB, offset: 0x307FB, size: 0x8, addend: 0x0, symName: __ZNSt3__117__compressed_pairIPNS_9sub_matchINS_11__wrap_iterIPKcEEEENS_9allocatorIS6_EEE5firstB7v160006Ev, symObjAddr: 0x32C0, symBinAddr: 0x100004F00, symSize: 0x20 }
  - { offsetInCU: 0x30821, offset: 0x30821, size: 0x8, addend: 0x0, symName: __ZNSt3__122__compressed_pair_elemIPNS_9sub_matchINS_11__wrap_iterIPKcEEEELi0ELb0EE5__getB7v160006Ev, symObjAddr: 0x32E0, symBinAddr: 0x100004F20, symSize: 0x10 }
  - { offsetInCU: 0x30847, offset: 0x30847, size: 0x8, addend: 0x0, symName: __ZNKSt3__16vectorINS_9sub_matchINS_11__wrap_iterIPKcEEEENS_9allocatorIS6_EEE31__annotate_contiguous_containerB7v160006EPKvSB_SB_SB_, symObjAddr: 0x32F0, symBinAddr: 0x100004F30, symSize: 0x20 }
  - { offsetInCU: 0x30899, offset: 0x30899, size: 0x8, addend: 0x0, symName: __ZNKSt3__16vectorINS_9sub_matchINS_11__wrap_iterIPKcEEEENS_9allocatorIS6_EEE4dataB7v160006Ev, symObjAddr: 0x3310, symBinAddr: 0x100004F50, symSize: 0x20 }
  - { offsetInCU: 0x308BF, offset: 0x308BF, size: 0x8, addend: 0x0, symName: __ZNKSt3__16vectorINS_9sub_matchINS_11__wrap_iterIPKcEEEENS_9allocatorIS6_EEE8capacityB7v160006Ev, symObjAddr: 0x3330, symBinAddr: 0x100004F70, symSize: 0x40 }
  - { offsetInCU: 0x308E5, offset: 0x308E5, size: 0x8, addend: 0x0, symName: __ZNKSt3__16vectorINS_9sub_matchINS_11__wrap_iterIPKcEEEENS_9allocatorIS6_EEE9__end_capB7v160006Ev, symObjAddr: 0x3380, symBinAddr: 0x100004FC0, symSize: 0x20 }
  - { offsetInCU: 0x3090B, offset: 0x3090B, size: 0x8, addend: 0x0, symName: __ZNKSt3__117__compressed_pairIPNS_9sub_matchINS_11__wrap_iterIPKcEEEENS_9allocatorIS6_EEE5firstB7v160006Ev, symObjAddr: 0x33A0, symBinAddr: 0x100004FE0, symSize: 0x20 }
  - { offsetInCU: 0x30931, offset: 0x30931, size: 0x8, addend: 0x0, symName: __ZNKSt3__122__compressed_pair_elemIPNS_9sub_matchINS_11__wrap_iterIPKcEEEELi0ELb0EE5__getB7v160006Ev, symObjAddr: 0x33C0, symBinAddr: 0x100005000, symSize: 0x10 }
  - { offsetInCU: 0x30972, offset: 0x30972, size: 0x8, addend: 0x0, symName: __ZNSt3__16vectorINS_9sub_matchINS_11__wrap_iterIPKcEEEENS_9allocatorIS6_EEE21_ConstructTransactionC1B7v160006ERS9_m, symObjAddr: 0x33D0, symBinAddr: 0x100005010, symSize: 0x30 }
  - { offsetInCU: 0x309BA, offset: 0x309BA, size: 0x8, addend: 0x0, symName: __ZNSt3__16vectorINS_9sub_matchINS_11__wrap_iterIPKcEEEENS_9allocatorIS6_EEE21_ConstructTransactionD1B7v160006Ev, symObjAddr: 0x3500, symBinAddr: 0x100005140, symSize: 0x20 }
  - { offsetInCU: 0x309E4, offset: 0x309E4, size: 0x8, addend: 0x0, symName: __ZNSt3__16vectorINS_9sub_matchINS_11__wrap_iterIPKcEEEENS_9allocatorIS6_EEE21_ConstructTransactionC2B7v160006ERS9_m, symObjAddr: 0x3520, symBinAddr: 0x100005160, symSize: 0x40 }
  - { offsetInCU: 0x30A2C, offset: 0x30A2C, size: 0x8, addend: 0x0, symName: __ZNSt3__129_AllocatorDestroyRangeReverseINS_9allocatorINS_9sub_matchINS_11__wrap_iterIPKcEEEEEEPS7_EC1B7v160006ERS8_RS9_SC_, symObjAddr: 0x35C0, symBinAddr: 0x100005200, symSize: 0x40 }
  - { offsetInCU: 0x30A83, offset: 0x30A83, size: 0x8, addend: 0x0, symName: __ZNSt3__116allocator_traitsINS_9allocatorINS_9sub_matchINS_11__wrap_iterIPKcEEEEEEE9constructB7v160006IS7_JRS7_EvEEvRS8_PT_DpOT0_, symObjAddr: 0x3600, symBinAddr: 0x100005240, symSize: 0x30 }
  - { offsetInCU: 0x30ADA, offset: 0x30ADA, size: 0x8, addend: 0x0, symName: __ZNSt3__128__exception_guard_exceptionsINS_29_AllocatorDestroyRangeReverseINS_9allocatorINS_9sub_matchINS_11__wrap_iterIPKcEEEEEEPS8_EEE10__completeB7v160006Ev, symObjAddr: 0x3630, symBinAddr: 0x100005270, symSize: 0x20 }
  - { offsetInCU: 0x30B00, offset: 0x30B00, size: 0x8, addend: 0x0, symName: __ZNSt3__128__exception_guard_exceptionsINS_29_AllocatorDestroyRangeReverseINS_9allocatorINS_9sub_matchINS_11__wrap_iterIPKcEEEEEEPS8_EEED1B7v160006Ev, symObjAddr: 0x3650, symBinAddr: 0x100005290, symSize: 0x20 }
  - { offsetInCU: 0x30B2A, offset: 0x30B2A, size: 0x8, addend: 0x0, symName: __ZNSt3__128__exception_guard_exceptionsINS_29_AllocatorDestroyRangeReverseINS_9allocatorINS_9sub_matchINS_11__wrap_iterIPKcEEEEEEPS8_EEEC1B7v160006ESB_, symObjAddr: 0x3670, symBinAddr: 0x1000052B0, symSize: 0x40 }
  - { offsetInCU: 0x30B62, offset: 0x30B62, size: 0x8, addend: 0x0, symName: __ZNSt3__128__exception_guard_exceptionsINS_29_AllocatorDestroyRangeReverseINS_9allocatorINS_9sub_matchINS_11__wrap_iterIPKcEEEEEEPS8_EEEC2B7v160006ESB_, symObjAddr: 0x36B0, symBinAddr: 0x1000052F0, symSize: 0x30 }
  - { offsetInCU: 0x30B9A, offset: 0x30B9A, size: 0x8, addend: 0x0, symName: __ZNSt3__129_AllocatorDestroyRangeReverseINS_9allocatorINS_9sub_matchINS_11__wrap_iterIPKcEEEEEEPS7_EC2B7v160006ERS8_RS9_SC_, symObjAddr: 0x36E0, symBinAddr: 0x100005320, symSize: 0x40 }
  - { offsetInCU: 0x30BF1, offset: 0x30BF1, size: 0x8, addend: 0x0, symName: __ZNSt3__19allocatorINS_9sub_matchINS_11__wrap_iterIPKcEEEEE9constructB7v160006IS6_JRS6_EEEvPT_DpOT0_, symObjAddr: 0x3720, symBinAddr: 0x100005360, symSize: 0x30 }
  - { offsetInCU: 0x30C47, offset: 0x30C47, size: 0x8, addend: 0x0, symName: __ZNSt3__128__exception_guard_exceptionsINS_29_AllocatorDestroyRangeReverseINS_9allocatorINS_9sub_matchINS_11__wrap_iterIPKcEEEEEEPS8_EEED2B7v160006Ev, symObjAddr: 0x3750, symBinAddr: 0x100005390, symSize: 0x40 }
  - { offsetInCU: 0x30C71, offset: 0x30C71, size: 0x8, addend: 0x0, symName: __ZNKSt3__129_AllocatorDestroyRangeReverseINS_9allocatorINS_9sub_matchINS_11__wrap_iterIPKcEEEEEEPS7_EclB7v160006Ev, symObjAddr: 0x3790, symBinAddr: 0x1000053D0, symSize: 0x60 }
  - { offsetInCU: 0x30C97, offset: 0x30C97, size: 0x8, addend: 0x0, symName: __ZNSt3__116reverse_iteratorIPNS_9sub_matchINS_11__wrap_iterIPKcEEEEEC1B7v160006ES7_, symObjAddr: 0x3860, symBinAddr: 0x1000054A0, symSize: 0x30 }
  - { offsetInCU: 0x30CCF, offset: 0x30CCF, size: 0x8, addend: 0x0, symName: __ZNSt3__116allocator_traitsINS_9allocatorINS_9sub_matchINS_11__wrap_iterIPKcEEEEEEE7destroyB7v160006IS7_vEEvRS8_PT_, symObjAddr: 0x38D0, symBinAddr: 0x100005510, symSize: 0x30 }
  - { offsetInCU: 0x30D0C, offset: 0x30D0C, size: 0x8, addend: 0x0, symName: __ZNSt3__116reverse_iteratorIPNS_9sub_matchINS_11__wrap_iterIPKcEEEEEppB7v160006Ev, symObjAddr: 0x3920, symBinAddr: 0x100005560, symSize: 0x20 }
  - { offsetInCU: 0x30D32, offset: 0x30D32, size: 0x8, addend: 0x0, symName: __ZNKSt3__116reverse_iteratorIPNS_9sub_matchINS_11__wrap_iterIPKcEEEEE4baseB7v160006Ev, symObjAddr: 0x3940, symBinAddr: 0x100005580, symSize: 0x20 }
  - { offsetInCU: 0x30D58, offset: 0x30D58, size: 0x8, addend: 0x0, symName: __ZNSt3__19allocatorINS_9sub_matchINS_11__wrap_iterIPKcEEEEE7destroyB7v160006EPS6_, symObjAddr: 0x3960, symBinAddr: 0x1000055A0, symSize: 0x10 }
  - { offsetInCU: 0x30D92, offset: 0x30D92, size: 0x8, addend: 0x0, symName: __ZNSt3__119__to_address_helperINS_16reverse_iteratorIPNS_9sub_matchINS_11__wrap_iterIPKcEEEEEEvE6__callB7v160006ERKS9_, symObjAddr: 0x3970, symBinAddr: 0x1000055B0, symSize: 0x40 }
  - { offsetInCU: 0x30DB5, offset: 0x30DB5, size: 0x8, addend: 0x0, symName: __ZNKSt3__116reverse_iteratorIPNS_9sub_matchINS_11__wrap_iterIPKcEEEEEptB7v160006Ev, symObjAddr: 0x39B0, symBinAddr: 0x1000055F0, symSize: 0x20 }
  - { offsetInCU: 0x30DDB, offset: 0x30DDB, size: 0x8, addend: 0x0, symName: __ZNKSt3__116reverse_iteratorIPNS_9sub_matchINS_11__wrap_iterIPKcEEEEEdeB7v160006Ev, symObjAddr: 0x39D0, symBinAddr: 0x100005610, symSize: 0x30 }
  - { offsetInCU: 0x30E0F, offset: 0x30E0F, size: 0x8, addend: 0x0, symName: __ZNSt3__116reverse_iteratorIPNS_9sub_matchINS_11__wrap_iterIPKcEEEEEC2B7v160006ES7_, symObjAddr: 0x3A00, symBinAddr: 0x100005640, symSize: 0x30 }
  - { offsetInCU: 0x30E47, offset: 0x30E47, size: 0x8, addend: 0x0, symName: __ZNSt3__16vectorINS_9sub_matchINS_11__wrap_iterIPKcEEEENS_9allocatorIS6_EEE21_ConstructTransactionD2B7v160006Ev, symObjAddr: 0x3A30, symBinAddr: 0x100005670, symSize: 0x20 }
  - { offsetInCU: 0x30E71, offset: 0x30E71, size: 0x8, addend: 0x0, symName: __ZNSt3__128__exception_guard_exceptionsINS_6vectorINS_9sub_matchINS_11__wrap_iterIPKcEEEENS_9allocatorIS7_EEE16__destroy_vectorEED2B7v160006Ev, symObjAddr: 0x3A50, symBinAddr: 0x100005690, symSize: 0x40 }
  - { offsetInCU: 0x30E9B, offset: 0x30E9B, size: 0x8, addend: 0x0, symName: __ZNSt3__16vectorINS_9sub_matchINS_11__wrap_iterIPKcEEEENS_9allocatorIS6_EEE16__destroy_vectorclB7v160006Ev, symObjAddr: 0x3A90, symBinAddr: 0x1000056D0, symSize: 0x90 }
  - { offsetInCU: 0x30EC1, offset: 0x30EC1, size: 0x8, addend: 0x0, symName: __ZNKSt3__16vectorINS_9sub_matchINS_11__wrap_iterIPKcEEEENS_9allocatorIS6_EEE17__annotate_deleteB7v160006Ev, symObjAddr: 0x3B20, symBinAddr: 0x100005760, symSize: 0xB0 }
  - { offsetInCU: 0x30EE7, offset: 0x30EE7, size: 0x8, addend: 0x0, symName: __ZNSt3__16vectorINS_9sub_matchINS_11__wrap_iterIPKcEEEENS_9allocatorIS6_EEE7__clearB7v160006Ev, symObjAddr: 0x3BE0, symBinAddr: 0x100005820, symSize: 0x20 }
  - { offsetInCU: 0x30F0D, offset: 0x30F0D, size: 0x8, addend: 0x0, symName: __ZNSt3__116allocator_traitsINS_9allocatorINS_9sub_matchINS_11__wrap_iterIPKcEEEEEEE10deallocateB7v160006ERS8_PS7_m, symObjAddr: 0x3C00, symBinAddr: 0x100005840, symSize: 0x30 }
  - { offsetInCU: 0x30F4F, offset: 0x30F4F, size: 0x8, addend: 0x0, symName: __ZNSt3__16vectorINS_9sub_matchINS_11__wrap_iterIPKcEEEENS_9allocatorIS6_EEE22__base_destruct_at_endB7v160006EPS6_, symObjAddr: 0x3C30, symBinAddr: 0x100005870, symSize: 0x80 }
  - { offsetInCU: 0x30F93, offset: 0x30F93, size: 0x8, addend: 0x0, symName: __ZNSt3__19allocatorINS_9sub_matchINS_11__wrap_iterIPKcEEEEE10deallocateB7v160006EPS6_m, symObjAddr: 0x3CB0, symBinAddr: 0x1000058F0, symSize: 0x50 }
  - { offsetInCU: 0x30FD5, offset: 0x30FD5, size: 0x8, addend: 0x0, symName: __ZNSt3__113match_resultsINS_11__wrap_iterIPKcEENS_9allocatorINS_9sub_matchIS4_EEEEED2Ev, symObjAddr: 0x3E00, symBinAddr: 0x100005A40, symSize: 0x20 }
  - { offsetInCU: 0x31002, offset: 0x31002, size: 0x8, addend: 0x0, symName: __ZNSt3__16vectorINS_9sub_matchINS_11__wrap_iterIPKcEEEENS_9allocatorIS6_EEED1B7v160006Ev, symObjAddr: 0x3E20, symBinAddr: 0x100005A60, symSize: 0x20 }
  - { offsetInCU: 0x3102C, offset: 0x3102C, size: 0x8, addend: 0x0, symName: __ZNSt3__16vectorINS_9sub_matchINS_11__wrap_iterIPKcEEEENS_9allocatorIS6_EEED2B7v160006Ev, symObjAddr: 0x3E40, symBinAddr: 0x100005A80, symSize: 0x40 }
  - { offsetInCU: 0x31056, offset: 0x31056, size: 0x8, addend: 0x0, symName: __ZNSt3__111basic_regexIcNS_12regex_traitsIcEEED2Ev, symObjAddr: 0x3E80, symBinAddr: 0x100005AC0, symSize: 0x30 }
  - { offsetInCU: 0x31083, offset: 0x31083, size: 0x8, addend: 0x0, symName: __ZNSt3__110shared_ptrINS_13__empty_stateIcEEED1B7v160006Ev, symObjAddr: 0x3EB0, symBinAddr: 0x100005AF0, symSize: 0x20 }
  - { offsetInCU: 0x310AD, offset: 0x310AD, size: 0x8, addend: 0x0, symName: __ZNSt3__112regex_traitsIcED1Ev, symObjAddr: 0x3ED0, symBinAddr: 0x100005B10, symSize: 0x20 }
  - { offsetInCU: 0x310DA, offset: 0x310DA, size: 0x8, addend: 0x0, symName: __ZNSt3__110shared_ptrINS_13__empty_stateIcEEED2B7v160006Ev, symObjAddr: 0x3EF0, symBinAddr: 0x100005B30, symSize: 0x40 }
  - { offsetInCU: 0x31104, offset: 0x31104, size: 0x8, addend: 0x0, symName: __ZNSt3__119__shared_weak_count16__release_sharedB7v160006Ev, symObjAddr: 0x3F30, symBinAddr: 0x100005B70, symSize: 0x40 }
  - { offsetInCU: 0x3112A, offset: 0x3112A, size: 0x8, addend: 0x0, symName: __ZNSt3__114__shared_count16__release_sharedB7v160006Ev, symObjAddr: 0x3F70, symBinAddr: 0x100005BB0, symSize: 0x50 }
  - { offsetInCU: 0x31150, offset: 0x31150, size: 0x8, addend: 0x0, symName: __ZNSt3__112regex_traitsIcED2Ev, symObjAddr: 0x3FF0, symBinAddr: 0x100005C30, symSize: 0x20 }
  - { offsetInCU: 0x3117D, offset: 0x3117D, size: 0x8, addend: 0x0, symName: __ZNSt3__114basic_ifstreamIcNS_11char_traitsIcEEED2Ev, symObjAddr: 0x4010, symBinAddr: 0x100005C50, symSize: 0x60 }
  - { offsetInCU: 0x311B7, offset: 0x311B7, size: 0x8, addend: 0x0, symName: __ZTv0_n24_NSt3__114basic_ifstreamIcNS_11char_traitsIcEEED1Ev, symObjAddr: 0x4070, symBinAddr: 0x100005CB0, symSize: 0x20 }
  - { offsetInCU: 0x311CE, offset: 0x311CE, size: 0x8, addend: 0x0, symName: __ZNSt3__112basic_stringIcNS_11char_traitsIcEENS_9allocatorIcEEEC2B7v160006Ev, symObjAddr: 0x4090, symBinAddr: 0x100005CD0, symSize: 0x50 }
  - { offsetInCU: 0x311FE, offset: 0x311FE, size: 0x8, addend: 0x0, symName: __ZNSt3__117__compressed_pairINS_12basic_stringIcNS_11char_traitsIcEENS_9allocatorIcEEE5__repES5_EC1B7v160006INS_18__default_init_tagESA_EEOT_OT0_, symObjAddr: 0x40E0, symBinAddr: 0x100005D20, symSize: 0x30 }
  - { offsetInCU: 0x31256, offset: 0x31256, size: 0x8, addend: 0x0, symName: __ZNSt3__112basic_stringIcNS_11char_traitsIcEENS_9allocatorIcEEE14__default_initB7v160006Ev, symObjAddr: 0x4120, symBinAddr: 0x100005D60, symSize: 0x50 }
  - { offsetInCU: 0x3127C, offset: 0x3127C, size: 0x8, addend: 0x0, symName: __ZNSt3__117__compressed_pairINS_12basic_stringIcNS_11char_traitsIcEENS_9allocatorIcEEE5__repES5_EC2B7v160006INS_18__default_init_tagESA_EEOT_OT0_, symObjAddr: 0x4170, symBinAddr: 0x100005DB0, symSize: 0x30 }
  - { offsetInCU: 0x312D4, offset: 0x312D4, size: 0x8, addend: 0x0, symName: __ZNSt3__122__compressed_pair_elemINS_12basic_stringIcNS_11char_traitsIcEENS_9allocatorIcEEE5__repELi0ELb0EEC2B7v160006ENS_18__default_init_tagE, symObjAddr: 0x41A0, symBinAddr: 0x100005DE0, symSize: 0x10 }
  - { offsetInCU: 0x31308, offset: 0x31308, size: 0x8, addend: 0x0, symName: __ZNSt3__122__compressed_pair_elemINS_9allocatorIcEELi1ELb1EEC2B7v160006ENS_18__default_init_tagE, symObjAddr: 0x41B0, symBinAddr: 0x100005DF0, symSize: 0x20 }
  - { offsetInCU: 0x3133C, offset: 0x3133C, size: 0x8, addend: 0x0, symName: __ZNSt3__19allocatorIcEC2B7v160006Ev, symObjAddr: 0x41D0, symBinAddr: 0x100005E10, symSize: 0x20 }
  - { offsetInCU: 0x31366, offset: 0x31366, size: 0x8, addend: 0x0, symName: __ZNSt3__116__non_trivial_ifILb1ENS_9allocatorIcEEEC2B7v160006Ev, symObjAddr: 0x41F0, symBinAddr: 0x100005E30, symSize: 0x10 }
  - { offsetInCU: 0x31390, offset: 0x31390, size: 0x8, addend: 0x0, symName: __ZNSt3__117__compressed_pairINS_12basic_stringIcNS_11char_traitsIcEENS_9allocatorIcEEE5__repES5_E5firstB7v160006Ev, symObjAddr: 0x4200, symBinAddr: 0x100005E40, symSize: 0x20 }
  - { offsetInCU: 0x313B6, offset: 0x313B6, size: 0x8, addend: 0x0, symName: __ZNSt3__122__compressed_pair_elemINS_12basic_stringIcNS_11char_traitsIcEENS_9allocatorIcEEE5__repELi0ELb0EE5__getB7v160006Ev, symObjAddr: 0x4220, symBinAddr: 0x100005E60, symSize: 0x10 }
  - { offsetInCU: 0x313DC, offset: 0x313DC, size: 0x8, addend: 0x0, symName: __ZNSt3__112basic_stringIcNS_11char_traitsIcEENS_9allocatorIcEEE13__move_assignB7v160006ERS5_NS_17integral_constantIbLb1EEE, symObjAddr: 0x4230, symBinAddr: 0x100005E70, symSize: 0xD0 }
  - { offsetInCU: 0x3141E, offset: 0x3141E, size: 0x8, addend: 0x0, symName: __ZNKSt3__112basic_stringIcNS_11char_traitsIcEENS_9allocatorIcEEE9__is_longB7v160006Ev, symObjAddr: 0x4300, symBinAddr: 0x100005F40, symSize: 0x30 }
  - { offsetInCU: 0x31444, offset: 0x31444, size: 0x8, addend: 0x0, symName: __ZNSt3__116allocator_traitsINS_9allocatorIcEEE10deallocateB7v160006ERS2_Pcm, symObjAddr: 0x4330, symBinAddr: 0x100005F70, symSize: 0x30 }
  - { offsetInCU: 0x31486, offset: 0x31486, size: 0x8, addend: 0x0, symName: __ZNSt3__112basic_stringIcNS_11char_traitsIcEENS_9allocatorIcEEE7__allocB7v160006Ev, symObjAddr: 0x4360, symBinAddr: 0x100005FA0, symSize: 0x20 }
  - { offsetInCU: 0x314AC, offset: 0x314AC, size: 0x8, addend: 0x0, symName: __ZNSt3__112basic_stringIcNS_11char_traitsIcEENS_9allocatorIcEEE18__get_long_pointerB7v160006Ev, symObjAddr: 0x4380, symBinAddr: 0x100005FC0, symSize: 0x20 }
  - { offsetInCU: 0x314D2, offset: 0x314D2, size: 0x8, addend: 0x0, symName: __ZNKSt3__112basic_stringIcNS_11char_traitsIcEENS_9allocatorIcEEE14__get_long_capB7v160006Ev, symObjAddr: 0x43A0, symBinAddr: 0x100005FE0, symSize: 0x30 }
  - { offsetInCU: 0x314F8, offset: 0x314F8, size: 0x8, addend: 0x0, symName: __ZNSt3__112basic_stringIcNS_11char_traitsIcEENS_9allocatorIcEEE19__move_assign_allocB7v160006ERS5_, symObjAddr: 0x43D0, symBinAddr: 0x100006010, symSize: 0x30 }
  - { offsetInCU: 0x3152D, offset: 0x3152D, size: 0x8, addend: 0x0, symName: __ZNSt3__112basic_stringIcNS_11char_traitsIcEENS_9allocatorIcEEE16__set_short_sizeB7v160006Em, symObjAddr: 0x4400, symBinAddr: 0x100006040, symSize: 0x50 }
  - { offsetInCU: 0x31562, offset: 0x31562, size: 0x8, addend: 0x0, symName: __ZNSt3__111char_traitsIcE6assignERcRKc, symObjAddr: 0x4450, symBinAddr: 0x100006090, symSize: 0x20 }
  - { offsetInCU: 0x31593, offset: 0x31593, size: 0x8, addend: 0x0, symName: __ZNSt3__112basic_stringIcNS_11char_traitsIcEENS_9allocatorIcEEE19__get_short_pointerB7v160006Ev, symObjAddr: 0x4470, symBinAddr: 0x1000060B0, symSize: 0x30 }
  - { offsetInCU: 0x315B9, offset: 0x315B9, size: 0x8, addend: 0x0, symName: __ZNKSt3__117__compressed_pairINS_12basic_stringIcNS_11char_traitsIcEENS_9allocatorIcEEE5__repES5_E5firstB7v160006Ev, symObjAddr: 0x44A0, symBinAddr: 0x1000060E0, symSize: 0x20 }
  - { offsetInCU: 0x315DF, offset: 0x315DF, size: 0x8, addend: 0x0, symName: __ZNKSt3__122__compressed_pair_elemINS_12basic_stringIcNS_11char_traitsIcEENS_9allocatorIcEEE5__repELi0ELb0EE5__getB7v160006Ev, symObjAddr: 0x44C0, symBinAddr: 0x100006100, symSize: 0x10 }
  - { offsetInCU: 0x31605, offset: 0x31605, size: 0x8, addend: 0x0, symName: __ZNSt3__19allocatorIcE10deallocateB7v160006EPcm, symObjAddr: 0x44D0, symBinAddr: 0x100006110, symSize: 0x40 }
  - { offsetInCU: 0x31647, offset: 0x31647, size: 0x8, addend: 0x0, symName: __ZNSt3__117__compressed_pairINS_12basic_stringIcNS_11char_traitsIcEENS_9allocatorIcEEE5__repES5_E6secondB7v160006Ev, symObjAddr: 0x4510, symBinAddr: 0x100006150, symSize: 0x20 }
  - { offsetInCU: 0x3166D, offset: 0x3166D, size: 0x8, addend: 0x0, symName: __ZNSt3__122__compressed_pair_elemINS_9allocatorIcEELi1ELb1EE5__getB7v160006Ev, symObjAddr: 0x4530, symBinAddr: 0x100006170, symSize: 0x10 }
  - { offsetInCU: 0x31693, offset: 0x31693, size: 0x8, addend: 0x0, symName: __ZNSt3__112basic_stringIcNS_11char_traitsIcEENS_9allocatorIcEEE19__move_assign_allocB7v160006ERS5_NS_17integral_constantIbLb1EEE, symObjAddr: 0x4540, symBinAddr: 0x100006180, symSize: 0x30 }
  - { offsetInCU: 0x316D3, offset: 0x316D3, size: 0x8, addend: 0x0, symName: __ZNSt3__114pointer_traitsIPcE10pointer_toB7v160006ERc, symObjAddr: 0x4570, symBinAddr: 0x1000061B0, symSize: 0x10 }
  - { offsetInCU: 0x316F6, offset: 0x316F6, size: 0x8, addend: 0x0, symName: __ZNSt3__112basic_stringIcNS_11char_traitsIcEENS_9allocatorIcEEEC2B7v160006IDnEEPKc, symObjAddr: 0x4580, symBinAddr: 0x1000061C0, symSize: 0x60 }
  - { offsetInCU: 0x31734, offset: 0x31734, size: 0x8, addend: 0x0, symName: __ZNSt3__111char_traitsIcE6lengthEPKc, symObjAddr: 0x45E0, symBinAddr: 0x100006220, symSize: 0x30 }
  - { offsetInCU: 0x31757, offset: 0x31757, size: 0x8, addend: 0x0, symName: __ZNSt3__16vectorINS_12basic_stringIcNS_11char_traitsIcEENS_9allocatorIcEEEENS4_IS6_EEEC2B7v160006ESt16initializer_listIS6_E, symObjAddr: 0x4630, symBinAddr: 0x100006270, symSize: 0x120 }
  - { offsetInCU: 0x317A7, offset: 0x317A7, size: 0x8, addend: 0x0, symName: __ZNSt3__117__compressed_pairIPNS_12basic_stringIcNS_11char_traitsIcEENS_9allocatorIcEEEENS4_IS6_EEEC1B7v160006IDnNS_18__default_init_tagEEEOT_OT0_, symObjAddr: 0x4750, symBinAddr: 0x100006390, symSize: 0x30 }
  - { offsetInCU: 0x317FF, offset: 0x317FF, size: 0x8, addend: 0x0, symName: __ZNSt3__16vectorINS_12basic_stringIcNS_11char_traitsIcEENS_9allocatorIcEEEENS4_IS6_EEE16__destroy_vectorC1ERS8_, symObjAddr: 0x47C0, symBinAddr: 0x100006400, symSize: 0x30 }
  - { offsetInCU: 0x31838, offset: 0x31838, size: 0x8, addend: 0x0, symName: __ZNKSt16initializer_listINSt3__112basic_stringIcNS0_11char_traitsIcEENS0_9allocatorIcEEEEE4sizeB7v160006Ev, symObjAddr: 0x4800, symBinAddr: 0x100006440, symSize: 0x20 }
  - { offsetInCU: 0x3185E, offset: 0x3185E, size: 0x8, addend: 0x0, symName: __ZNSt3__16vectorINS_12basic_stringIcNS_11char_traitsIcEENS_9allocatorIcEEEENS4_IS6_EEE11__vallocateB7v160006Em, symObjAddr: 0x4820, symBinAddr: 0x100006460, symSize: 0xA0 }
  - { offsetInCU: 0x318A2, offset: 0x318A2, size: 0x8, addend: 0x0, symName: __ZNSt3__16vectorINS_12basic_stringIcNS_11char_traitsIcEENS_9allocatorIcEEEENS4_IS6_EEE18__construct_at_endIPKS6_Li0EEEvT_SC_m, symObjAddr: 0x48C0, symBinAddr: 0x100006500, symSize: 0x90 }
  - { offsetInCU: 0x31915, offset: 0x31915, size: 0x8, addend: 0x0, symName: __ZNKSt16initializer_listINSt3__112basic_stringIcNS0_11char_traitsIcEENS0_9allocatorIcEEEEE5beginB7v160006Ev, symObjAddr: 0x4950, symBinAddr: 0x100006590, symSize: 0x20 }
  - { offsetInCU: 0x3193B, offset: 0x3193B, size: 0x8, addend: 0x0, symName: __ZNKSt16initializer_listINSt3__112basic_stringIcNS0_11char_traitsIcEENS0_9allocatorIcEEEEE3endB7v160006Ev, symObjAddr: 0x4970, symBinAddr: 0x1000065B0, symSize: 0x20 }
  - { offsetInCU: 0x31961, offset: 0x31961, size: 0x8, addend: 0x0, symName: __ZNSt3__128__exception_guard_exceptionsINS_6vectorINS_12basic_stringIcNS_11char_traitsIcEENS_9allocatorIcEEEENS5_IS7_EEE16__destroy_vectorEE10__completeB7v160006Ev, symObjAddr: 0x4990, symBinAddr: 0x1000065D0, symSize: 0x20 }
  - { offsetInCU: 0x31987, offset: 0x31987, size: 0x8, addend: 0x0, symName: __ZNSt3__128__exception_guard_exceptionsINS_6vectorINS_12basic_stringIcNS_11char_traitsIcEENS_9allocatorIcEEEENS5_IS7_EEE16__destroy_vectorEED1B7v160006Ev, symObjAddr: 0x49B0, symBinAddr: 0x1000065F0, symSize: 0x20 }
  - { offsetInCU: 0x319B1, offset: 0x319B1, size: 0x8, addend: 0x0, symName: __ZNSt3__117__compressed_pairIPNS_12basic_stringIcNS_11char_traitsIcEENS_9allocatorIcEEEENS4_IS6_EEEC2B7v160006IDnNS_18__default_init_tagEEEOT_OT0_, symObjAddr: 0x49D0, symBinAddr: 0x100006610, symSize: 0x40 }
  - { offsetInCU: 0x31A09, offset: 0x31A09, size: 0x8, addend: 0x0, symName: __ZNSt3__122__compressed_pair_elemIPNS_12basic_stringIcNS_11char_traitsIcEENS_9allocatorIcEEEELi0ELb0EEC2B7v160006IDnvEEOT_, symObjAddr: 0x4A10, symBinAddr: 0x100006650, symSize: 0x20 }
  - { offsetInCU: 0x31A4B, offset: 0x31A4B, size: 0x8, addend: 0x0, symName: __ZNSt3__122__compressed_pair_elemINS_9allocatorINS_12basic_stringIcNS_11char_traitsIcEENS1_IcEEEEEELi1ELb1EEC2B7v160006ENS_18__default_init_tagE, symObjAddr: 0x4A30, symBinAddr: 0x100006670, symSize: 0x20 }
  - { offsetInCU: 0x31A7F, offset: 0x31A7F, size: 0x8, addend: 0x0, symName: __ZNSt3__19allocatorINS_12basic_stringIcNS_11char_traitsIcEENS0_IcEEEEEC2B7v160006Ev, symObjAddr: 0x4A50, symBinAddr: 0x100006690, symSize: 0x20 }
  - { offsetInCU: 0x31AA9, offset: 0x31AA9, size: 0x8, addend: 0x0, symName: __ZNSt3__116__non_trivial_ifILb1ENS_9allocatorINS_12basic_stringIcNS_11char_traitsIcEENS1_IcEEEEEEEC2B7v160006Ev, symObjAddr: 0x4A70, symBinAddr: 0x1000066B0, symSize: 0x10 }
  - { offsetInCU: 0x31AD3, offset: 0x31AD3, size: 0x8, addend: 0x0, symName: __ZNSt3__128__exception_guard_exceptionsINS_6vectorINS_12basic_stringIcNS_11char_traitsIcEENS_9allocatorIcEEEENS5_IS7_EEE16__destroy_vectorEEC1B7v160006ESA_, symObjAddr: 0x4A80, symBinAddr: 0x1000066C0, symSize: 0x30 }
  - { offsetInCU: 0x31B0B, offset: 0x31B0B, size: 0x8, addend: 0x0, symName: __ZNSt3__128__exception_guard_exceptionsINS_6vectorINS_12basic_stringIcNS_11char_traitsIcEENS_9allocatorIcEEEENS5_IS7_EEE16__destroy_vectorEEC2B7v160006ESA_, symObjAddr: 0x4AB0, symBinAddr: 0x1000066F0, symSize: 0x20 }
  - { offsetInCU: 0x31B43, offset: 0x31B43, size: 0x8, addend: 0x0, symName: __ZNSt3__16vectorINS_12basic_stringIcNS_11char_traitsIcEENS_9allocatorIcEEEENS4_IS6_EEE16__destroy_vectorC2ERS8_, symObjAddr: 0x4AD0, symBinAddr: 0x100006710, symSize: 0x20 }
  - { offsetInCU: 0x31B7C, offset: 0x31B7C, size: 0x8, addend: 0x0, symName: __ZNKSt3__16vectorINS_12basic_stringIcNS_11char_traitsIcEENS_9allocatorIcEEEENS4_IS6_EEE8max_sizeEv, symObjAddr: 0x4AF0, symBinAddr: 0x100006730, symSize: 0x60 }
  - { offsetInCU: 0x31BA4, offset: 0x31BA4, size: 0x8, addend: 0x0, symName: __ZNKSt3__16vectorINS_12basic_stringIcNS_11char_traitsIcEENS_9allocatorIcEEEENS4_IS6_EEE20__throw_length_errorB7v160006Ev, symObjAddr: 0x4B50, symBinAddr: 0x100006790, symSize: 0x20 }
  - { offsetInCU: 0x31BCA, offset: 0x31BCA, size: 0x8, addend: 0x0, symName: __ZNSt3__16vectorINS_12basic_stringIcNS_11char_traitsIcEENS_9allocatorIcEEEENS4_IS6_EEE7__allocB7v160006Ev, symObjAddr: 0x4BB0, symBinAddr: 0x1000067F0, symSize: 0x20 }
  - { offsetInCU: 0x31BF0, offset: 0x31BF0, size: 0x8, addend: 0x0, symName: __ZNSt3__16vectorINS_12basic_stringIcNS_11char_traitsIcEENS_9allocatorIcEEEENS4_IS6_EEE9__end_capB7v160006Ev, symObjAddr: 0x4BD0, symBinAddr: 0x100006810, symSize: 0x20 }
  - { offsetInCU: 0x31C16, offset: 0x31C16, size: 0x8, addend: 0x0, symName: __ZNKSt3__16vectorINS_12basic_stringIcNS_11char_traitsIcEENS_9allocatorIcEEEENS4_IS6_EEE14__annotate_newB7v160006Em, symObjAddr: 0x4BF0, symBinAddr: 0x100006830, symSize: 0xA0 }
  - { offsetInCU: 0x31C56, offset: 0x31C56, size: 0x8, addend: 0x0, symName: __ZNSt3__116allocator_traitsINS_9allocatorINS_12basic_stringIcNS_11char_traitsIcEENS1_IcEEEEEEE8max_sizeB7v160006IS7_vEEmRKS7_, symObjAddr: 0x4C90, symBinAddr: 0x1000068D0, symSize: 0x20 }
  - { offsetInCU: 0x31C84, offset: 0x31C84, size: 0x8, addend: 0x0, symName: __ZNKSt3__16vectorINS_12basic_stringIcNS_11char_traitsIcEENS_9allocatorIcEEEENS4_IS6_EEE7__allocB7v160006Ev, symObjAddr: 0x4CB0, symBinAddr: 0x1000068F0, symSize: 0x20 }
  - { offsetInCU: 0x31CAA, offset: 0x31CAA, size: 0x8, addend: 0x0, symName: __ZNKSt3__19allocatorINS_12basic_stringIcNS_11char_traitsIcEENS0_IcEEEEE8max_sizeB7v160006Ev, symObjAddr: 0x4CD0, symBinAddr: 0x100006910, symSize: 0x20 }
  - { offsetInCU: 0x31CD0, offset: 0x31CD0, size: 0x8, addend: 0x0, symName: __ZNKSt3__117__compressed_pairIPNS_12basic_stringIcNS_11char_traitsIcEENS_9allocatorIcEEEENS4_IS6_EEE6secondB7v160006Ev, symObjAddr: 0x4CF0, symBinAddr: 0x100006930, symSize: 0x20 }
  - { offsetInCU: 0x31CF6, offset: 0x31CF6, size: 0x8, addend: 0x0, symName: __ZNKSt3__122__compressed_pair_elemINS_9allocatorINS_12basic_stringIcNS_11char_traitsIcEENS1_IcEEEEEELi1ELb1EE5__getB7v160006Ev, symObjAddr: 0x4D10, symBinAddr: 0x100006950, symSize: 0x10 }
  - { offsetInCU: 0x31D1C, offset: 0x31D1C, size: 0x8, addend: 0x0, symName: __ZNSt3__19allocatorINS_12basic_stringIcNS_11char_traitsIcEENS0_IcEEEEE8allocateB7v160006Em, symObjAddr: 0x4D20, symBinAddr: 0x100006960, symSize: 0x50 }
  - { offsetInCU: 0x31D50, offset: 0x31D50, size: 0x8, addend: 0x0, symName: __ZNSt3__117__compressed_pairIPNS_12basic_stringIcNS_11char_traitsIcEENS_9allocatorIcEEEENS4_IS6_EEE6secondB7v160006Ev, symObjAddr: 0x4D70, symBinAddr: 0x1000069B0, symSize: 0x20 }
  - { offsetInCU: 0x31D76, offset: 0x31D76, size: 0x8, addend: 0x0, symName: __ZNSt3__122__compressed_pair_elemINS_9allocatorINS_12basic_stringIcNS_11char_traitsIcEENS1_IcEEEEEELi1ELb1EE5__getB7v160006Ev, symObjAddr: 0x4D90, symBinAddr: 0x1000069D0, symSize: 0x10 }
  - { offsetInCU: 0x31D9C, offset: 0x31D9C, size: 0x8, addend: 0x0, symName: __ZNSt3__117__compressed_pairIPNS_12basic_stringIcNS_11char_traitsIcEENS_9allocatorIcEEEENS4_IS6_EEE5firstB7v160006Ev, symObjAddr: 0x4DA0, symBinAddr: 0x1000069E0, symSize: 0x20 }
  - { offsetInCU: 0x31DC2, offset: 0x31DC2, size: 0x8, addend: 0x0, symName: __ZNSt3__122__compressed_pair_elemIPNS_12basic_stringIcNS_11char_traitsIcEENS_9allocatorIcEEEELi0ELb0EE5__getB7v160006Ev, symObjAddr: 0x4DC0, symBinAddr: 0x100006A00, symSize: 0x10 }
  - { offsetInCU: 0x31DE8, offset: 0x31DE8, size: 0x8, addend: 0x0, symName: __ZNKSt3__16vectorINS_12basic_stringIcNS_11char_traitsIcEENS_9allocatorIcEEEENS4_IS6_EEE31__annotate_contiguous_containerB7v160006EPKvSA_SA_SA_, symObjAddr: 0x4DD0, symBinAddr: 0x100006A10, symSize: 0x20 }
  - { offsetInCU: 0x31E3A, offset: 0x31E3A, size: 0x8, addend: 0x0, symName: __ZNKSt3__16vectorINS_12basic_stringIcNS_11char_traitsIcEENS_9allocatorIcEEEENS4_IS6_EEE4dataB7v160006Ev, symObjAddr: 0x4DF0, symBinAddr: 0x100006A30, symSize: 0x20 }
  - { offsetInCU: 0x31E60, offset: 0x31E60, size: 0x8, addend: 0x0, symName: __ZNKSt3__16vectorINS_12basic_stringIcNS_11char_traitsIcEENS_9allocatorIcEEEENS4_IS6_EEE8capacityB7v160006Ev, symObjAddr: 0x4E10, symBinAddr: 0x100006A50, symSize: 0x40 }
  - { offsetInCU: 0x31E86, offset: 0x31E86, size: 0x8, addend: 0x0, symName: __ZNKSt3__16vectorINS_12basic_stringIcNS_11char_traitsIcEENS_9allocatorIcEEEENS4_IS6_EEE9__end_capB7v160006Ev, symObjAddr: 0x4E60, symBinAddr: 0x100006AA0, symSize: 0x20 }
  - { offsetInCU: 0x31EAC, offset: 0x31EAC, size: 0x8, addend: 0x0, symName: __ZNKSt3__117__compressed_pairIPNS_12basic_stringIcNS_11char_traitsIcEENS_9allocatorIcEEEENS4_IS6_EEE5firstB7v160006Ev, symObjAddr: 0x4E80, symBinAddr: 0x100006AC0, symSize: 0x20 }
  - { offsetInCU: 0x31ED2, offset: 0x31ED2, size: 0x8, addend: 0x0, symName: __ZNKSt3__122__compressed_pair_elemIPNS_12basic_stringIcNS_11char_traitsIcEENS_9allocatorIcEEEELi0ELb0EE5__getB7v160006Ev, symObjAddr: 0x4EA0, symBinAddr: 0x100006AE0, symSize: 0x10 }
  - { offsetInCU: 0x31F13, offset: 0x31F13, size: 0x8, addend: 0x0, symName: __ZNSt3__16vectorINS_12basic_stringIcNS_11char_traitsIcEENS_9allocatorIcEEEENS4_IS6_EEE21_ConstructTransactionC1B7v160006ERS8_m, symObjAddr: 0x4EB0, symBinAddr: 0x100006AF0, symSize: 0x30 }
  - { offsetInCU: 0x31F5B, offset: 0x31F5B, size: 0x8, addend: 0x0, symName: __ZNSt3__16vectorINS_12basic_stringIcNS_11char_traitsIcEENS_9allocatorIcEEEENS4_IS6_EEE21_ConstructTransactionD1B7v160006Ev, symObjAddr: 0x4FE0, symBinAddr: 0x100006C20, symSize: 0x20 }
  - { offsetInCU: 0x31F85, offset: 0x31F85, size: 0x8, addend: 0x0, symName: __ZNSt3__16vectorINS_12basic_stringIcNS_11char_traitsIcEENS_9allocatorIcEEEENS4_IS6_EEE21_ConstructTransactionC2B7v160006ERS8_m, symObjAddr: 0x5000, symBinAddr: 0x100006C40, symSize: 0x40 }
  - { offsetInCU: 0x31FCD, offset: 0x31FCD, size: 0x8, addend: 0x0, symName: __ZNSt3__129_AllocatorDestroyRangeReverseINS_9allocatorINS_12basic_stringIcNS_11char_traitsIcEENS1_IcEEEEEEPS6_EC1B7v160006ERS7_RS8_SB_, symObjAddr: 0x50A0, symBinAddr: 0x100006CE0, symSize: 0x40 }
  - { offsetInCU: 0x32024, offset: 0x32024, size: 0x8, addend: 0x0, symName: __ZNSt3__116allocator_traitsINS_9allocatorINS_12basic_stringIcNS_11char_traitsIcEENS1_IcEEEEEEE9constructB7v160006IS6_JRKS6_EvEEvRS7_PT_DpOT0_, symObjAddr: 0x50E0, symBinAddr: 0x100006D20, symSize: 0x30 }
  - { offsetInCU: 0x3207B, offset: 0x3207B, size: 0x8, addend: 0x0, symName: __ZNSt3__128__exception_guard_exceptionsINS_29_AllocatorDestroyRangeReverseINS_9allocatorINS_12basic_stringIcNS_11char_traitsIcEENS2_IcEEEEEEPS7_EEE10__completeB7v160006Ev, symObjAddr: 0x5110, symBinAddr: 0x100006D50, symSize: 0x20 }
  - { offsetInCU: 0x320A1, offset: 0x320A1, size: 0x8, addend: 0x0, symName: __ZNSt3__128__exception_guard_exceptionsINS_29_AllocatorDestroyRangeReverseINS_9allocatorINS_12basic_stringIcNS_11char_traitsIcEENS2_IcEEEEEEPS7_EEED1B7v160006Ev, symObjAddr: 0x5130, symBinAddr: 0x100006D70, symSize: 0x20 }
  - { offsetInCU: 0x320CB, offset: 0x320CB, size: 0x8, addend: 0x0, symName: __ZNSt3__128__exception_guard_exceptionsINS_29_AllocatorDestroyRangeReverseINS_9allocatorINS_12basic_stringIcNS_11char_traitsIcEENS2_IcEEEEEEPS7_EEEC1B7v160006ESA_, symObjAddr: 0x5150, symBinAddr: 0x100006D90, symSize: 0x40 }
  - { offsetInCU: 0x32103, offset: 0x32103, size: 0x8, addend: 0x0, symName: __ZNSt3__128__exception_guard_exceptionsINS_29_AllocatorDestroyRangeReverseINS_9allocatorINS_12basic_stringIcNS_11char_traitsIcEENS2_IcEEEEEEPS7_EEEC2B7v160006ESA_, symObjAddr: 0x5190, symBinAddr: 0x100006DD0, symSize: 0x30 }
  - { offsetInCU: 0x3213B, offset: 0x3213B, size: 0x8, addend: 0x0, symName: __ZNSt3__129_AllocatorDestroyRangeReverseINS_9allocatorINS_12basic_stringIcNS_11char_traitsIcEENS1_IcEEEEEEPS6_EC2B7v160006ERS7_RS8_SB_, symObjAddr: 0x51C0, symBinAddr: 0x100006E00, symSize: 0x40 }
  - { offsetInCU: 0x32192, offset: 0x32192, size: 0x8, addend: 0x0, symName: __ZNSt3__19allocatorINS_12basic_stringIcNS_11char_traitsIcEENS0_IcEEEEE9constructB7v160006IS5_JRKS5_EEEvPT_DpOT0_, symObjAddr: 0x5200, symBinAddr: 0x100006E40, symSize: 0x30 }
  - { offsetInCU: 0x321E8, offset: 0x321E8, size: 0x8, addend: 0x0, symName: __ZNSt3__128__exception_guard_exceptionsINS_29_AllocatorDestroyRangeReverseINS_9allocatorINS_12basic_stringIcNS_11char_traitsIcEENS2_IcEEEEEEPS7_EEED2B7v160006Ev, symObjAddr: 0x5230, symBinAddr: 0x100006E70, symSize: 0x40 }
  - { offsetInCU: 0x32212, offset: 0x32212, size: 0x8, addend: 0x0, symName: __ZNKSt3__129_AllocatorDestroyRangeReverseINS_9allocatorINS_12basic_stringIcNS_11char_traitsIcEENS1_IcEEEEEEPS6_EclB7v160006Ev, symObjAddr: 0x5270, symBinAddr: 0x100006EB0, symSize: 0x60 }
  - { offsetInCU: 0x32238, offset: 0x32238, size: 0x8, addend: 0x0, symName: __ZNSt3__116reverse_iteratorIPNS_12basic_stringIcNS_11char_traitsIcEENS_9allocatorIcEEEEEC1B7v160006ES7_, symObjAddr: 0x5340, symBinAddr: 0x100006F80, symSize: 0x30 }
  - { offsetInCU: 0x32270, offset: 0x32270, size: 0x8, addend: 0x0, symName: __ZNSt3__116allocator_traitsINS_9allocatorINS_12basic_stringIcNS_11char_traitsIcEENS1_IcEEEEEEE7destroyB7v160006IS6_vEEvRS7_PT_, symObjAddr: 0x53B0, symBinAddr: 0x100006FF0, symSize: 0x30 }
  - { offsetInCU: 0x322AD, offset: 0x322AD, size: 0x8, addend: 0x0, symName: __ZNSt3__116reverse_iteratorIPNS_12basic_stringIcNS_11char_traitsIcEENS_9allocatorIcEEEEEppB7v160006Ev, symObjAddr: 0x5400, symBinAddr: 0x100007040, symSize: 0x20 }
  - { offsetInCU: 0x322D3, offset: 0x322D3, size: 0x8, addend: 0x0, symName: __ZNKSt3__116reverse_iteratorIPNS_12basic_stringIcNS_11char_traitsIcEENS_9allocatorIcEEEEE4baseB7v160006Ev, symObjAddr: 0x5420, symBinAddr: 0x100007060, symSize: 0x20 }
  - { offsetInCU: 0x322F9, offset: 0x322F9, size: 0x8, addend: 0x0, symName: __ZNSt3__19allocatorINS_12basic_stringIcNS_11char_traitsIcEENS0_IcEEEEE7destroyB7v160006EPS5_, symObjAddr: 0x5440, symBinAddr: 0x100007080, symSize: 0x20 }
  - { offsetInCU: 0x32333, offset: 0x32333, size: 0x8, addend: 0x0, symName: __ZNSt3__119__to_address_helperINS_16reverse_iteratorIPNS_12basic_stringIcNS_11char_traitsIcEENS_9allocatorIcEEEEEEvE6__callB7v160006ERKS9_, symObjAddr: 0x5460, symBinAddr: 0x1000070A0, symSize: 0x40 }
  - { offsetInCU: 0x32356, offset: 0x32356, size: 0x8, addend: 0x0, symName: __ZNKSt3__116reverse_iteratorIPNS_12basic_stringIcNS_11char_traitsIcEENS_9allocatorIcEEEEEptB7v160006Ev, symObjAddr: 0x54A0, symBinAddr: 0x1000070E0, symSize: 0x20 }
  - { offsetInCU: 0x3237C, offset: 0x3237C, size: 0x8, addend: 0x0, symName: __ZNKSt3__116reverse_iteratorIPNS_12basic_stringIcNS_11char_traitsIcEENS_9allocatorIcEEEEEdeB7v160006Ev, symObjAddr: 0x54C0, symBinAddr: 0x100007100, symSize: 0x30 }
  - { offsetInCU: 0x323B0, offset: 0x323B0, size: 0x8, addend: 0x0, symName: __ZNSt3__116reverse_iteratorIPNS_12basic_stringIcNS_11char_traitsIcEENS_9allocatorIcEEEEEC2B7v160006ES7_, symObjAddr: 0x54F0, symBinAddr: 0x100007130, symSize: 0x30 }
  - { offsetInCU: 0x323E8, offset: 0x323E8, size: 0x8, addend: 0x0, symName: __ZNSt3__16vectorINS_12basic_stringIcNS_11char_traitsIcEENS_9allocatorIcEEEENS4_IS6_EEE21_ConstructTransactionD2B7v160006Ev, symObjAddr: 0x5520, symBinAddr: 0x100007160, symSize: 0x20 }
  - { offsetInCU: 0x32412, offset: 0x32412, size: 0x8, addend: 0x0, symName: __ZNSt3__128__exception_guard_exceptionsINS_6vectorINS_12basic_stringIcNS_11char_traitsIcEENS_9allocatorIcEEEENS5_IS7_EEE16__destroy_vectorEED2B7v160006Ev, symObjAddr: 0x5540, symBinAddr: 0x100007180, symSize: 0x40 }
  - { offsetInCU: 0x3243C, offset: 0x3243C, size: 0x8, addend: 0x0, symName: __ZNSt3__16vectorINS_12basic_stringIcNS_11char_traitsIcEENS_9allocatorIcEEEENS4_IS6_EEE16__destroy_vectorclB7v160006Ev, symObjAddr: 0x5580, symBinAddr: 0x1000071C0, symSize: 0x90 }
  - { offsetInCU: 0x32462, offset: 0x32462, size: 0x8, addend: 0x0, symName: __ZNKSt3__16vectorINS_12basic_stringIcNS_11char_traitsIcEENS_9allocatorIcEEEENS4_IS6_EEE17__annotate_deleteB7v160006Ev, symObjAddr: 0x5610, symBinAddr: 0x100007250, symSize: 0xB0 }
  - { offsetInCU: 0x32488, offset: 0x32488, size: 0x8, addend: 0x0, symName: __ZNSt3__16vectorINS_12basic_stringIcNS_11char_traitsIcEENS_9allocatorIcEEEENS4_IS6_EEE7__clearB7v160006Ev, symObjAddr: 0x56D0, symBinAddr: 0x100007310, symSize: 0x20 }
  - { offsetInCU: 0x324AE, offset: 0x324AE, size: 0x8, addend: 0x0, symName: __ZNSt3__116allocator_traitsINS_9allocatorINS_12basic_stringIcNS_11char_traitsIcEENS1_IcEEEEEEE10deallocateB7v160006ERS7_PS6_m, symObjAddr: 0x56F0, symBinAddr: 0x100007330, symSize: 0x30 }
  - { offsetInCU: 0x324F0, offset: 0x324F0, size: 0x8, addend: 0x0, symName: __ZNKSt3__16vectorINS_12basic_stringIcNS_11char_traitsIcEENS_9allocatorIcEEEENS4_IS6_EEE4sizeB7v160006Ev, symObjAddr: 0x5720, symBinAddr: 0x100007360, symSize: 0x30 }
  - { offsetInCU: 0x32516, offset: 0x32516, size: 0x8, addend: 0x0, symName: __ZNSt3__16vectorINS_12basic_stringIcNS_11char_traitsIcEENS_9allocatorIcEEEENS4_IS6_EEE22__base_destruct_at_endB7v160006EPS6_, symObjAddr: 0x5750, symBinAddr: 0x100007390, symSize: 0x80 }
  - { offsetInCU: 0x3255A, offset: 0x3255A, size: 0x8, addend: 0x0, symName: __ZNSt3__19allocatorINS_12basic_stringIcNS_11char_traitsIcEENS0_IcEEEEE10deallocateB7v160006EPS5_m, symObjAddr: 0x57D0, symBinAddr: 0x100007410, symSize: 0x50 }
  - { offsetInCU: 0x3259C, offset: 0x3259C, size: 0x8, addend: 0x0, symName: __ZNSt3__16vectorINS_12basic_stringIcNS_11char_traitsIcEENS_9allocatorIcEEEENS4_IS6_EEED2B7v160006Ev, symObjAddr: 0x5820, symBinAddr: 0x100007460, symSize: 0x40 }
  - { offsetInCU: 0x325C6, offset: 0x325C6, size: 0x8, addend: 0x0, symName: __ZNKSt3__112basic_stringIcNS_11char_traitsIcEENS_9allocatorIcEEE4sizeB7v160006Ev, symObjAddr: 0x5860, symBinAddr: 0x1000074A0, symSize: 0x50 }
  - { offsetInCU: 0x325EC, offset: 0x325EC, size: 0x8, addend: 0x0, symName: __ZNKSt3__112basic_stringIcNS_11char_traitsIcEENS_9allocatorIcEEE15__get_long_sizeB7v160006Ev, symObjAddr: 0x58B0, symBinAddr: 0x1000074F0, symSize: 0x20 }
  - { offsetInCU: 0x32612, offset: 0x32612, size: 0x8, addend: 0x0, symName: __ZNKSt3__112basic_stringIcNS_11char_traitsIcEENS_9allocatorIcEEE16__get_short_sizeB7v160006Ev, symObjAddr: 0x58D0, symBinAddr: 0x100007510, symSize: 0x30 }
  - { offsetInCU: 0x32638, offset: 0x32638, size: 0x8, addend: 0x0, symName: __ZNSt3__16vectorINS_12basic_stringIcNS_11char_traitsIcEENS_9allocatorIcEEEENS4_IS6_EEE11__make_iterB7v160006EPS6_, symObjAddr: 0x5900, symBinAddr: 0x100007540, symSize: 0x30 }
  - { offsetInCU: 0x3266D, offset: 0x3266D, size: 0x8, addend: 0x0, symName: __ZNSt3__111__wrap_iterIPNS_12basic_stringIcNS_11char_traitsIcEENS_9allocatorIcEEEEEC1B7v160006EPKvS7_, symObjAddr: 0x5930, symBinAddr: 0x100007570, symSize: 0x30 }
  - { offsetInCU: 0x326B3, offset: 0x326B3, size: 0x8, addend: 0x0, symName: __ZNSt3__111__wrap_iterIPNS_12basic_stringIcNS_11char_traitsIcEENS_9allocatorIcEEEEEC2B7v160006EPKvS7_, symObjAddr: 0x5960, symBinAddr: 0x1000075A0, symSize: 0x20 }
  - { offsetInCU: 0x326F9, offset: 0x326F9, size: 0x8, addend: 0x0, symName: __ZNKSt3__112basic_stringIcNS_11char_traitsIcEENS_9allocatorIcEEE4dataB7v160006Ev, symObjAddr: 0x5A90, symBinAddr: 0x1000076D0, symSize: 0x30 }
  - { offsetInCU: 0x3271F, offset: 0x3271F, size: 0x8, addend: 0x0, symName: __ZNSt3__111char_traitsIcE7compareEPKcS3_m, symObjAddr: 0x5AC0, symBinAddr: 0x100007700, symSize: 0x60 }
  - { offsetInCU: 0x3275E, offset: 0x3275E, size: 0x8, addend: 0x0, symName: __ZNKSt3__112basic_stringIcNS_11char_traitsIcEENS_9allocatorIcEEE13__get_pointerB7v160006Ev, symObjAddr: 0x5B30, symBinAddr: 0x100007770, symSize: 0x50 }
  - { offsetInCU: 0x32784, offset: 0x32784, size: 0x8, addend: 0x0, symName: __ZNKSt3__112basic_stringIcNS_11char_traitsIcEENS_9allocatorIcEEE18__get_long_pointerB7v160006Ev, symObjAddr: 0x5B80, symBinAddr: 0x1000077C0, symSize: 0x20 }
  - { offsetInCU: 0x327AA, offset: 0x327AA, size: 0x8, addend: 0x0, symName: __ZNKSt3__112basic_stringIcNS_11char_traitsIcEENS_9allocatorIcEEE19__get_short_pointerB7v160006Ev, symObjAddr: 0x5BA0, symBinAddr: 0x1000077E0, symSize: 0x30 }
  - { offsetInCU: 0x327D0, offset: 0x327D0, size: 0x8, addend: 0x0, symName: __ZNSt3__114pointer_traitsIPKcE10pointer_toB7v160006ERS1_, symObjAddr: 0x5BD0, symBinAddr: 0x100007810, symSize: 0x10 }
  - { offsetInCU: 0x32814, offset: 0x32814, size: 0x8, addend: 0x0, symName: __ZNKSt3__113basic_ostreamIcNS_11char_traitsIcEEE6sentrycvbB7v160006Ev, symObjAddr: 0x5E00, symBinAddr: 0x100007A40, symSize: 0x20 }
  - { offsetInCU: 0x3283A, offset: 0x3283A, size: 0x8, addend: 0x0, symName: __ZNSt3__119ostreambuf_iteratorIcNS_11char_traitsIcEEEC1B7v160006ERNS_13basic_ostreamIcS2_EE, symObjAddr: 0x6040, symBinAddr: 0x100007C80, symSize: 0x30 }
  - { offsetInCU: 0x32872, offset: 0x32872, size: 0x8, addend: 0x0, symName: __ZNKSt3__18ios_base5flagsB7v160006Ev, symObjAddr: 0x6070, symBinAddr: 0x100007CB0, symSize: 0x20 }
  - { offsetInCU: 0x3289A, offset: 0x3289A, size: 0x8, addend: 0x0, symName: __ZNKSt3__19basic_iosIcNS_11char_traitsIcEEE4fillB7v160006Ev, symObjAddr: 0x6090, symBinAddr: 0x100007CD0, symSize: 0x70 }
  - { offsetInCU: 0x328C2, offset: 0x328C2, size: 0x8, addend: 0x0, symName: __ZNKSt3__119ostreambuf_iteratorIcNS_11char_traitsIcEEE6failedB7v160006Ev, symObjAddr: 0x6100, symBinAddr: 0x100007D40, symSize: 0x20 }
  - { offsetInCU: 0x328E8, offset: 0x328E8, size: 0x8, addend: 0x0, symName: __ZNSt3__19basic_iosIcNS_11char_traitsIcEEE8setstateB7v160006Ej, symObjAddr: 0x6120, symBinAddr: 0x100007D60, symSize: 0x30 }
  - { offsetInCU: 0x3291D, offset: 0x3291D, size: 0x8, addend: 0x0, symName: __ZNKSt3__18ios_base5widthB7v160006Ev, symObjAddr: 0x6150, symBinAddr: 0x100007D90, symSize: 0x20 }
  - { offsetInCU: 0x32945, offset: 0x32945, size: 0x8, addend: 0x0, symName: __ZNSt3__115basic_streambufIcNS_11char_traitsIcEEE5sputnB7v160006EPKcl, symObjAddr: 0x6170, symBinAddr: 0x100007DB0, symSize: 0x30 }
  - { offsetInCU: 0x32987, offset: 0x32987, size: 0x8, addend: 0x0, symName: __ZNSt3__112basic_stringIcNS_11char_traitsIcEENS_9allocatorIcEEEC1B7v160006Emc, symObjAddr: 0x61A0, symBinAddr: 0x100007DE0, symSize: 0x30 }
  - { offsetInCU: 0x329CF, offset: 0x329CF, size: 0x8, addend: 0x0, symName: __ZNSt3__112basic_stringIcNS_11char_traitsIcEENS_9allocatorIcEEE4dataB7v160006Ev, symObjAddr: 0x61D0, symBinAddr: 0x100007E10, symSize: 0x30 }
  - { offsetInCU: 0x329F5, offset: 0x329F5, size: 0x8, addend: 0x0, symName: __ZNSt3__18ios_base5widthB7v160006El, symObjAddr: 0x6200, symBinAddr: 0x100007E40, symSize: 0x30 }
  - { offsetInCU: 0x32A3B, offset: 0x32A3B, size: 0x8, addend: 0x0, symName: __ZNSt3__112basic_stringIcNS_11char_traitsIcEENS_9allocatorIcEEEC2B7v160006Emc, symObjAddr: 0x6230, symBinAddr: 0x100007E70, symSize: 0x50 }
  - { offsetInCU: 0x32A83, offset: 0x32A83, size: 0x8, addend: 0x0, symName: __ZNSt3__112basic_stringIcNS_11char_traitsIcEENS_9allocatorIcEEE13__get_pointerB7v160006Ev, symObjAddr: 0x6290, symBinAddr: 0x100007ED0, symSize: 0x50 }
  - { offsetInCU: 0x32AA9, offset: 0x32AA9, size: 0x8, addend: 0x0, symName: __ZNSt3__119ostreambuf_iteratorIcNS_11char_traitsIcEEEC2B7v160006ERNS_13basic_ostreamIcS2_EE, symObjAddr: 0x62E0, symBinAddr: 0x100007F20, symSize: 0x50 }
  - { offsetInCU: 0x32AE1, offset: 0x32AE1, size: 0x8, addend: 0x0, symName: __ZNKSt3__19basic_iosIcNS_11char_traitsIcEEE5rdbufB7v160006Ev, symObjAddr: 0x6330, symBinAddr: 0x100007F70, symSize: 0x20 }
  - { offsetInCU: 0x32B09, offset: 0x32B09, size: 0x8, addend: 0x0, symName: __ZNKSt3__18ios_base5rdbufB7v160006Ev, symObjAddr: 0x6350, symBinAddr: 0x100007F90, symSize: 0x20 }
  - { offsetInCU: 0x32B2F, offset: 0x32B2F, size: 0x8, addend: 0x0, symName: __ZNSt3__111char_traitsIcE11eq_int_typeEii, symObjAddr: 0x6370, symBinAddr: 0x100007FB0, symSize: 0x20 }
  - { offsetInCU: 0x32B60, offset: 0x32B60, size: 0x8, addend: 0x0, symName: __ZNSt3__111char_traitsIcE3eofEv, symObjAddr: 0x6390, symBinAddr: 0x100007FD0, symSize: 0x10 }
  - { offsetInCU: 0x32B74, offset: 0x32B74, size: 0x8, addend: 0x0, symName: __ZNKSt3__19basic_iosIcNS_11char_traitsIcEEE5widenB7v160006Ec, symObjAddr: 0x63A0, symBinAddr: 0x100007FE0, symSize: 0x80 }
  - { offsetInCU: 0x32BAB, offset: 0x32BAB, size: 0x8, addend: 0x0, symName: __ZNKSt3__15ctypeIcE5widenB7v160006Ec, symObjAddr: 0x6450, symBinAddr: 0x100008090, symSize: 0x30 }
  - { offsetInCU: 0x32BE0, offset: 0x32BE0, size: 0x8, addend: 0x0, symName: __ZNSt3__18ios_base8setstateB7v160006Ej, symObjAddr: 0x6480, symBinAddr: 0x1000080C0, symSize: 0x30 }
  - { offsetInCU: 0x32C17, offset: 0x32C17, size: 0x8, addend: 0x0, symName: __ZNSt3__111char_traitsIcE4findEPKcmRS2_, symObjAddr: 0x6680, symBinAddr: 0x1000082C0, symSize: 0x70 }
  - { offsetInCU: 0x32C56, offset: 0x32C56, size: 0x8, addend: 0x0, symName: __ZNSt3__19basic_iosIcNS_11char_traitsIcEEEC2B7v160006Ev, symObjAddr: 0x6720, symBinAddr: 0x100008360, symSize: 0x40 }
  - { offsetInCU: 0x32C80, offset: 0x32C80, size: 0x8, addend: 0x0, symName: __ZNSt3__113basic_istreamIcNS_11char_traitsIcEEEC2B7v160006EPNS_15basic_streambufIcS2_EE, symObjAddr: 0x6760, symBinAddr: 0x1000083A0, symSize: 0x50 }
  - { offsetInCU: 0x32CC5, offset: 0x32CC5, size: 0x8, addend: 0x0, symName: __ZNSt3__18ios_baseC2B7v160006Ev, symObjAddr: 0x67B0, symBinAddr: 0x1000083F0, symSize: 0x20 }
  - { offsetInCU: 0x32CEF, offset: 0x32CEF, size: 0x8, addend: 0x0, symName: __ZNSt3__19basic_iosIcNS_11char_traitsIcEEE4initB7v160006EPNS_15basic_streambufIcS2_EE, symObjAddr: 0x67D0, symBinAddr: 0x100008410, symSize: 0x50 }
  - { offsetInCU: 0x32D26, offset: 0x32D26, size: 0x8, addend: 0x0, symName: __ZNKSt3__113basic_filebufIcNS_11char_traitsIcEEE7is_openEv, symObjAddr: 0x6820, symBinAddr: 0x100008460, symSize: 0x20 }
  - { offsetInCU: 0x32D4E, offset: 0x32D4E, size: 0x8, addend: 0x0, symName: __ZNSt3__111basic_regexIcNS_12regex_traitsIcEEEC2B7v160006EPKcNS_15regex_constants18syntax_option_typeE, symObjAddr: 0x6840, symBinAddr: 0x100008480, symSize: 0xD0 }
  - { offsetInCU: 0x32D96, offset: 0x32D96, size: 0x8, addend: 0x0, symName: __ZNSt3__112regex_traitsIcEC1Ev, symObjAddr: 0x6910, symBinAddr: 0x100008550, symSize: 0x20 }
  - { offsetInCU: 0x32DC2, offset: 0x32DC2, size: 0x8, addend: 0x0, symName: __ZNSt3__110shared_ptrINS_13__empty_stateIcEEEC1B7v160006Ev, symObjAddr: 0x6930, symBinAddr: 0x100008570, symSize: 0x20 }
  - { offsetInCU: 0x32DEC, offset: 0x32DEC, size: 0x8, addend: 0x0, symName: __ZNSt3__111basic_regexIcNS_12regex_traitsIcEEE6__initIPKcEEvT_S7_, symObjAddr: 0x6950, symBinAddr: 0x100008590, symSize: 0x70 }
  - { offsetInCU: 0x32E4A, offset: 0x32E4A, size: 0x8, addend: 0x0, symName: __ZNSt3__112regex_traitsIcE6lengthB7v160006EPKc, symObjAddr: 0x69C0, symBinAddr: 0x100008600, symSize: 0x20 }
  - { offsetInCU: 0x32E6E, offset: 0x32E6E, size: 0x8, addend: 0x0, symName: __ZNSt3__112regex_traitsIcEC2Ev, symObjAddr: 0x69E0, symBinAddr: 0x100008620, symSize: 0x50 }
  - { offsetInCU: 0x32E9A, offset: 0x32E9A, size: 0x8, addend: 0x0, symName: __ZNSt3__112regex_traitsIcE6__initEv, symObjAddr: 0x6A30, symBinAddr: 0x100008670, symSize: 0x40 }
  - { offsetInCU: 0x32EC2, offset: 0x32EC2, size: 0x8, addend: 0x0, symName: __ZNSt3__110shared_ptrINS_13__empty_stateIcEEEC2B7v160006Ev, symObjAddr: 0x6AA0, symBinAddr: 0x1000086E0, symSize: 0x20 }
  - { offsetInCU: 0x32EEC, offset: 0x32EEC, size: 0x8, addend: 0x0, symName: __ZNSt3__111basic_regexIcNS_12regex_traitsIcEEE7__parseIPKcEET_S7_S7_, symObjAddr: 0x6B10, symBinAddr: 0x100008750, symSize: 0x220 }
  - { offsetInCU: 0x32F65, offset: 0x32F65, size: 0x8, addend: 0x0, symName: __ZNSt3__111__end_stateIcEC1B7v160006Ev, symObjAddr: 0x6DB0, symBinAddr: 0x1000089F0, symSize: 0x20 }
  - { offsetInCU: 0x33023, offset: 0x33023, size: 0x8, addend: 0x0, symName: __ZNSt3__110unique_ptrINS_6__nodeIcEENS_14default_deleteIS2_EEEC1B7v160006ILb1EvEEPS2_, symObjAddr: 0x6DD0, symBinAddr: 0x100008A10, symSize: 0x30 }
  - { offsetInCU: 0x3306B, offset: 0x3306B, size: 0x8, addend: 0x0, symName: __ZNSt3__110shared_ptrINS_13__empty_stateIcEEE5resetB7v160006IS2_vEEvPT_, symObjAddr: 0x6E00, symBinAddr: 0x100008A40, symSize: 0x50 }
  - { offsetInCU: 0x330AA, offset: 0x330AA, size: 0x8, addend: 0x0, symName: __ZNKSt3__110unique_ptrINS_6__nodeIcEENS_14default_deleteIS2_EEE3getB7v160006Ev, symObjAddr: 0x6E50, symBinAddr: 0x100008A90, symSize: 0x20 }
  - { offsetInCU: 0x330D0, offset: 0x330D0, size: 0x8, addend: 0x0, symName: __ZNSt3__113__empty_stateIcEC1B7v160006EPNS_6__nodeIcEE, symObjAddr: 0x6E70, symBinAddr: 0x100008AB0, symSize: 0x30 }
  - { offsetInCU: 0x33109, offset: 0x33109, size: 0x8, addend: 0x0, symName: __ZNSt3__110unique_ptrINS_6__nodeIcEENS_14default_deleteIS2_EEE7releaseB7v160006Ev, symObjAddr: 0x6EA0, symBinAddr: 0x100008AE0, symSize: 0x40 }
  - { offsetInCU: 0x3313E, offset: 0x3313E, size: 0x8, addend: 0x0, symName: __ZNKSt3__110shared_ptrINS_13__empty_stateIcEEE3getB7v160006Ev, symObjAddr: 0x6EE0, symBinAddr: 0x100008B20, symSize: 0x20 }
  - { offsetInCU: 0x33164, offset: 0x33164, size: 0x8, addend: 0x0, symName: __ZNSt3__110unique_ptrINS_6__nodeIcEENS_14default_deleteIS2_EEED1B7v160006Ev, symObjAddr: 0x6F00, symBinAddr: 0x100008B40, symSize: 0x20 }
  - { offsetInCU: 0x3318E, offset: 0x3318E, size: 0x8, addend: 0x0, symName: __ZNSt3__111basic_regexIcNS_12regex_traitsIcEEE16__parse_ecma_expIPKcEET_S7_S7_, symObjAddr: 0x6F20, symBinAddr: 0x100008B60, symSize: 0xF0 }
  - { offsetInCU: 0x33218, offset: 0x33218, size: 0x8, addend: 0x0, symName: __ZNSt3__111basic_regexIcNS_12regex_traitsIcEEE21__parse_basic_reg_expIPKcEET_S7_S7_, symObjAddr: 0x7010, symBinAddr: 0x100008C50, symSize: 0x100 }
  - { offsetInCU: 0x33284, offset: 0x33284, size: 0x8, addend: 0x0, symName: __ZNSt3__111basic_regexIcNS_12regex_traitsIcEEE24__parse_extended_reg_expIPKcEET_S7_S7_, symObjAddr: 0x7110, symBinAddr: 0x100008D50, symSize: 0xF0 }
  - { offsetInCU: 0x3330E, offset: 0x3330E, size: 0x8, addend: 0x0, symName: __ZNSt3__111basic_regexIcNS_12regex_traitsIcEEE12__parse_grepIPKcEET_S7_S7_, symObjAddr: 0x7200, symBinAddr: 0x100008E40, symSize: 0x140 }
  - { offsetInCU: 0x33398, offset: 0x33398, size: 0x8, addend: 0x0, symName: __ZNSt3__111basic_regexIcNS_12regex_traitsIcEEE13__parse_egrepIPKcEET_S7_S7_, symObjAddr: 0x7340, symBinAddr: 0x100008F80, symSize: 0x140 }
  - { offsetInCU: 0x33422, offset: 0x33422, size: 0x8, addend: 0x0, symName: __ZNSt3__111__end_stateIcEC2B7v160006Ev, symObjAddr: 0x74E0, symBinAddr: 0x100009120, symSize: 0x40 }
  - { offsetInCU: 0x3344C, offset: 0x3344C, size: 0x8, addend: 0x0, symName: __ZNSt3__16__nodeIcEC2B7v160006Ev, symObjAddr: 0x7520, symBinAddr: 0x100009160, symSize: 0x20 }
  - { offsetInCU: 0x33476, offset: 0x33476, size: 0x8, addend: 0x0, symName: __ZNSt3__111__end_stateIcED1Ev, symObjAddr: 0x7540, symBinAddr: 0x100009180, symSize: 0x20 }
  - { offsetInCU: 0x334A3, offset: 0x334A3, size: 0x8, addend: 0x0, symName: __ZNSt3__111__end_stateIcED0Ev, symObjAddr: 0x7560, symBinAddr: 0x1000091A0, symSize: 0x30 }
  - { offsetInCU: 0x334D0, offset: 0x334D0, size: 0x8, addend: 0x0, symName: __ZNKSt3__111__end_stateIcE6__execERNS_7__stateIcEE, symObjAddr: 0x7590, symBinAddr: 0x1000091D0, symSize: 0x20 }
  - { offsetInCU: 0x33507, offset: 0x33507, size: 0x8, addend: 0x0, symName: __ZNKSt3__16__nodeIcE12__exec_splitEbRNS_7__stateIcEE, symObjAddr: 0x75B0, symBinAddr: 0x1000091F0, symSize: 0x20 }
  - { offsetInCU: 0x33543, offset: 0x33543, size: 0x8, addend: 0x0, symName: __ZNSt3__16__nodeIcED1Ev, symObjAddr: 0x75D0, symBinAddr: 0x100009210, symSize: 0x20 }
  - { offsetInCU: 0x3356D, offset: 0x3356D, size: 0x8, addend: 0x0, symName: __ZNSt3__16__nodeIcED0Ev, symObjAddr: 0x75F0, symBinAddr: 0x100009230, symSize: 0x30 }
  - { offsetInCU: 0x33597, offset: 0x33597, size: 0x8, addend: 0x0, symName: __ZNKSt3__16__nodeIcE6__execERNS_7__stateIcEE, symObjAddr: 0x7620, symBinAddr: 0x100009260, symSize: 0x10 }
  - { offsetInCU: 0x335C8, offset: 0x335C8, size: 0x8, addend: 0x0, symName: __ZNSt3__16__nodeIcED2Ev, symObjAddr: 0x7630, symBinAddr: 0x100009270, symSize: 0x10 }
  - { offsetInCU: 0x335F2, offset: 0x335F2, size: 0x8, addend: 0x0, symName: __ZNSt3__111__end_stateIcED2Ev, symObjAddr: 0x7640, symBinAddr: 0x100009280, symSize: 0x20 }
  - { offsetInCU: 0x3361F, offset: 0x3361F, size: 0x8, addend: 0x0, symName: __ZNSt3__110unique_ptrINS_6__nodeIcEENS_14default_deleteIS2_EEEC2B7v160006ILb1EvEEPS2_, symObjAddr: 0x7660, symBinAddr: 0x1000092A0, symSize: 0x40 }
  - { offsetInCU: 0x33668, offset: 0x33668, size: 0x8, addend: 0x0, symName: __ZNSt3__117__compressed_pairIPNS_6__nodeIcEENS_14default_deleteIS2_EEEC1B7v160006IRS3_NS_16__value_init_tagEEEOT_OT0_, symObjAddr: 0x76A0, symBinAddr: 0x1000092E0, symSize: 0x30 }
  - { offsetInCU: 0x336C0, offset: 0x336C0, size: 0x8, addend: 0x0, symName: __ZNSt3__117__compressed_pairIPNS_6__nodeIcEENS_14default_deleteIS2_EEEC2B7v160006IRS3_NS_16__value_init_tagEEEOT_OT0_, symObjAddr: 0x76D0, symBinAddr: 0x100009310, symSize: 0x40 }
  - { offsetInCU: 0x33718, offset: 0x33718, size: 0x8, addend: 0x0, symName: __ZNSt3__122__compressed_pair_elemIPNS_6__nodeIcEELi0ELb0EEC2B7v160006IRS3_vEEOT_, symObjAddr: 0x7710, symBinAddr: 0x100009350, symSize: 0x20 }
  - { offsetInCU: 0x3375A, offset: 0x3375A, size: 0x8, addend: 0x0, symName: __ZNSt3__122__compressed_pair_elemINS_14default_deleteINS_6__nodeIcEEEELi1ELb1EEC2B7v160006ENS_16__value_init_tagE, symObjAddr: 0x7730, symBinAddr: 0x100009370, symSize: 0x10 }
  - { offsetInCU: 0x3378E, offset: 0x3378E, size: 0x8, addend: 0x0, symName: __ZNSt3__110shared_ptrINS_13__empty_stateIcEEEC1IS2_vEEPT_, symObjAddr: 0x7740, symBinAddr: 0x100009380, symSize: 0x30 }
  - { offsetInCU: 0x337D1, offset: 0x337D1, size: 0x8, addend: 0x0, symName: __ZNSt3__110shared_ptrINS_13__empty_stateIcEEE4swapB7v160006ERS3_, symObjAddr: 0x7770, symBinAddr: 0x1000093B0, symSize: 0x40 }
  - { offsetInCU: 0x33806, offset: 0x33806, size: 0x8, addend: 0x0, symName: __ZNSt3__110shared_ptrINS_13__empty_stateIcEEEC2IS2_vEEPT_, symObjAddr: 0x77B0, symBinAddr: 0x1000093F0, symSize: 0xE0 }
  - { offsetInCU: 0x338F8, offset: 0x338F8, size: 0x8, addend: 0x0, symName: __ZNSt3__110unique_ptrINS_13__empty_stateIcEENS_14default_deleteIS2_EEEC1B7v160006ILb1EvEEPS2_, symObjAddr: 0x7890, symBinAddr: 0x1000094D0, symSize: 0x30 }
  - { offsetInCU: 0x3395A, offset: 0x3395A, size: 0x8, addend: 0x0, symName: __ZNSt3__19allocatorINS_13__empty_stateIcEEEC1B7v160006Ev, symObjAddr: 0x78C0, symBinAddr: 0x100009500, symSize: 0x20 }
  - { offsetInCU: 0x33A26, offset: 0x33A26, size: 0x8, addend: 0x0, symName: __ZNSt3__120__shared_ptr_pointerIPNS_13__empty_stateIcEENS_10shared_ptrIS2_E27__shared_ptr_default_deleteIS2_S2_EENS_9allocatorIS2_EEEC1B7v160006ES3_S7_S9_, symObjAddr: 0x78E0, symBinAddr: 0x100009520, symSize: 0x30 }
  - { offsetInCU: 0x33A7A, offset: 0x33A7A, size: 0x8, addend: 0x0, symName: __ZNSt3__110unique_ptrINS_13__empty_stateIcEENS_14default_deleteIS2_EEE7releaseB7v160006Ev, symObjAddr: 0x7910, symBinAddr: 0x100009550, symSize: 0x40 }
  - { offsetInCU: 0x33AAF, offset: 0x33AAF, size: 0x8, addend: 0x0, symName: __ZNSt3__110shared_ptrINS_13__empty_stateIcEEE18__enable_weak_thisB7v160006Ez, symObjAddr: 0x7950, symBinAddr: 0x100009590, symSize: 0x10 }
  - { offsetInCU: 0x33AD6, offset: 0x33AD6, size: 0x8, addend: 0x0, symName: __ZNSt3__110unique_ptrINS_13__empty_stateIcEENS_14default_deleteIS2_EEED1B7v160006Ev, symObjAddr: 0x7960, symBinAddr: 0x1000095A0, symSize: 0x20 }
  - { offsetInCU: 0x33B00, offset: 0x33B00, size: 0x8, addend: 0x0, symName: __ZNSt3__110unique_ptrINS_13__empty_stateIcEENS_14default_deleteIS2_EEEC2B7v160006ILb1EvEEPS2_, symObjAddr: 0x7980, symBinAddr: 0x1000095C0, symSize: 0x40 }
  - { offsetInCU: 0x33B43, offset: 0x33B43, size: 0x8, addend: 0x0, symName: __ZNSt3__117__compressed_pairIPNS_13__empty_stateIcEENS_14default_deleteIS2_EEEC1B7v160006IRS3_NS_16__value_init_tagEEEOT_OT0_, symObjAddr: 0x79C0, symBinAddr: 0x100009600, symSize: 0x30 }
  - { offsetInCU: 0x33B9B, offset: 0x33B9B, size: 0x8, addend: 0x0, symName: __ZNSt3__117__compressed_pairIPNS_13__empty_stateIcEENS_14default_deleteIS2_EEEC2B7v160006IRS3_NS_16__value_init_tagEEEOT_OT0_, symObjAddr: 0x79F0, symBinAddr: 0x100009630, symSize: 0x40 }
  - { offsetInCU: 0x33BF3, offset: 0x33BF3, size: 0x8, addend: 0x0, symName: __ZNSt3__122__compressed_pair_elemIPNS_13__empty_stateIcEELi0ELb0EEC2B7v160006IRS3_vEEOT_, symObjAddr: 0x7A30, symBinAddr: 0x100009670, symSize: 0x20 }
  - { offsetInCU: 0x33C35, offset: 0x33C35, size: 0x8, addend: 0x0, symName: __ZNSt3__122__compressed_pair_elemINS_14default_deleteINS_13__empty_stateIcEEEELi1ELb1EEC2B7v160006ENS_16__value_init_tagE, symObjAddr: 0x7A50, symBinAddr: 0x100009690, symSize: 0x10 }
  - { offsetInCU: 0x33C69, offset: 0x33C69, size: 0x8, addend: 0x0, symName: __ZNSt3__19allocatorINS_13__empty_stateIcEEEC2B7v160006Ev, symObjAddr: 0x7A60, symBinAddr: 0x1000096A0, symSize: 0x20 }
  - { offsetInCU: 0x33C93, offset: 0x33C93, size: 0x8, addend: 0x0, symName: __ZNSt3__116__non_trivial_ifILb1ENS_9allocatorINS_13__empty_stateIcEEEEEC2B7v160006Ev, symObjAddr: 0x7A80, symBinAddr: 0x1000096C0, symSize: 0x10 }
  - { offsetInCU: 0x33CBD, offset: 0x33CBD, size: 0x8, addend: 0x0, symName: __ZNSt3__120__shared_ptr_pointerIPNS_13__empty_stateIcEENS_10shared_ptrIS2_E27__shared_ptr_default_deleteIS2_S2_EENS_9allocatorIS2_EEEC2B7v160006ES3_S7_S9_, symObjAddr: 0x7A90, symBinAddr: 0x1000096D0, symSize: 0x90 }
  - { offsetInCU: 0x33D11, offset: 0x33D11, size: 0x8, addend: 0x0, symName: __ZNSt3__119__shared_weak_countC2B7v160006El, symObjAddr: 0x7B20, symBinAddr: 0x100009760, symSize: 0x50 }
  - { offsetInCU: 0x33D4F, offset: 0x33D4F, size: 0x8, addend: 0x0, symName: __ZNSt3__117__compressed_pairIPNS_13__empty_stateIcEENS_10shared_ptrIS2_E27__shared_ptr_default_deleteIS2_S2_EEEC1B7v160006IRS3_S7_EEOT_OT0_, symObjAddr: 0x7B70, symBinAddr: 0x1000097B0, symSize: 0x30 }
  - { offsetInCU: 0x33DB3, offset: 0x33DB3, size: 0x8, addend: 0x0, symName: __ZNSt3__117__compressed_pairINS0_IPNS_13__empty_stateIcEENS_10shared_ptrIS2_E27__shared_ptr_default_deleteIS2_S2_EEEENS_9allocatorIS2_EEEC1B7v160006IS8_SA_EEOT_OT0_, symObjAddr: 0x7BA0, symBinAddr: 0x1000097E0, symSize: 0x30 }
  - { offsetInCU: 0x33E0B, offset: 0x33E0B, size: 0x8, addend: 0x0, symName: __ZNSt3__120__shared_ptr_pointerIPNS_13__empty_stateIcEENS_10shared_ptrIS2_E27__shared_ptr_default_deleteIS2_S2_EENS_9allocatorIS2_EEED1Ev, symObjAddr: 0x7BD0, symBinAddr: 0x100009810, symSize: 0x20 }
  - { offsetInCU: 0x33E37, offset: 0x33E37, size: 0x8, addend: 0x0, symName: __ZNSt3__120__shared_ptr_pointerIPNS_13__empty_stateIcEENS_10shared_ptrIS2_E27__shared_ptr_default_deleteIS2_S2_EENS_9allocatorIS2_EEED0Ev, symObjAddr: 0x7BF0, symBinAddr: 0x100009830, symSize: 0x30 }
  - { offsetInCU: 0x33E63, offset: 0x33E63, size: 0x8, addend: 0x0, symName: __ZNSt3__120__shared_ptr_pointerIPNS_13__empty_stateIcEENS_10shared_ptrIS2_E27__shared_ptr_default_deleteIS2_S2_EENS_9allocatorIS2_EEE16__on_zero_sharedEv, symObjAddr: 0x7C20, symBinAddr: 0x100009860, symSize: 0x70 }
  - { offsetInCU: 0x33E8A, offset: 0x33E8A, size: 0x8, addend: 0x0, symName: __ZNKSt3__120__shared_ptr_pointerIPNS_13__empty_stateIcEENS_10shared_ptrIS2_E27__shared_ptr_default_deleteIS2_S2_EENS_9allocatorIS2_EEE13__get_deleterERKSt9type_info, symObjAddr: 0x7C90, symBinAddr: 0x1000098D0, symSize: 0x70 }
  - { offsetInCU: 0x33EBF, offset: 0x33EBF, size: 0x8, addend: 0x0, symName: __ZNSt3__120__shared_ptr_pointerIPNS_13__empty_stateIcEENS_10shared_ptrIS2_E27__shared_ptr_default_deleteIS2_S2_EENS_9allocatorIS2_EEE21__on_zero_shared_weakEv, symObjAddr: 0x7D00, symBinAddr: 0x100009940, symSize: 0x60 }
  - { offsetInCU: 0x33F00, offset: 0x33F00, size: 0x8, addend: 0x0, symName: __ZNSt3__114__shared_countC2B7v160006El, symObjAddr: 0x7D60, symBinAddr: 0x1000099A0, symSize: 0x30 }
  - { offsetInCU: 0x33F38, offset: 0x33F38, size: 0x8, addend: 0x0, symName: __ZNSt3__117__compressed_pairIPNS_13__empty_stateIcEENS_10shared_ptrIS2_E27__shared_ptr_default_deleteIS2_S2_EEEC2B7v160006IRS3_S7_EEOT_OT0_, symObjAddr: 0x7D90, symBinAddr: 0x1000099D0, symSize: 0x40 }
  - { offsetInCU: 0x33F90, offset: 0x33F90, size: 0x8, addend: 0x0, symName: __ZNSt3__122__compressed_pair_elemINS_10shared_ptrINS_13__empty_stateIcEEE27__shared_ptr_default_deleteIS3_S3_EELi1ELb1EEC2B7v160006IS6_vEEOT_, symObjAddr: 0x7DD0, symBinAddr: 0x100009A10, symSize: 0x10 }
  - { offsetInCU: 0x33FD2, offset: 0x33FD2, size: 0x8, addend: 0x0, symName: __ZNSt3__117__compressed_pairINS0_IPNS_13__empty_stateIcEENS_10shared_ptrIS2_E27__shared_ptr_default_deleteIS2_S2_EEEENS_9allocatorIS2_EEEC2B7v160006IS8_SA_EEOT_OT0_, symObjAddr: 0x7DE0, symBinAddr: 0x100009A20, symSize: 0x40 }
  - { offsetInCU: 0x3402A, offset: 0x3402A, size: 0x8, addend: 0x0, symName: __ZNSt3__122__compressed_pair_elemINS_17__compressed_pairIPNS_13__empty_stateIcEENS_10shared_ptrIS3_E27__shared_ptr_default_deleteIS3_S3_EEEELi0ELb0EEC2B7v160006IS9_vEEOT_, symObjAddr: 0x7E20, symBinAddr: 0x100009A60, symSize: 0x20 }
  - { offsetInCU: 0x3406C, offset: 0x3406C, size: 0x8, addend: 0x0, symName: __ZNSt3__122__compressed_pair_elemINS_9allocatorINS_13__empty_stateIcEEEELi1ELb1EEC2B7v160006IS4_vEEOT_, symObjAddr: 0x7E40, symBinAddr: 0x100009A80, symSize: 0x10 }
  - { offsetInCU: 0x340AE, offset: 0x340AE, size: 0x8, addend: 0x0, symName: __ZNSt3__120__shared_ptr_pointerIPNS_13__empty_stateIcEENS_10shared_ptrIS2_E27__shared_ptr_default_deleteIS2_S2_EENS_9allocatorIS2_EEED2Ev, symObjAddr: 0x7E50, symBinAddr: 0x100009A90, symSize: 0x20 }
  - { offsetInCU: 0x340DA, offset: 0x340DA, size: 0x8, addend: 0x0, symName: __ZNSt3__117__compressed_pairINS0_IPNS_13__empty_stateIcEENS_10shared_ptrIS2_E27__shared_ptr_default_deleteIS2_S2_EEEENS_9allocatorIS2_EEE5firstB7v160006Ev, symObjAddr: 0x7E70, symBinAddr: 0x100009AB0, symSize: 0x20 }
  - { offsetInCU: 0x34100, offset: 0x34100, size: 0x8, addend: 0x0, symName: __ZNSt3__117__compressed_pairIPNS_13__empty_stateIcEENS_10shared_ptrIS2_E27__shared_ptr_default_deleteIS2_S2_EEE6secondB7v160006Ev, symObjAddr: 0x7E90, symBinAddr: 0x100009AD0, symSize: 0x20 }
  - { offsetInCU: 0x34126, offset: 0x34126, size: 0x8, addend: 0x0, symName: __ZNKSt3__114default_deleteINS_13__empty_stateIcEEEclB7v160006EPS2_, symObjAddr: 0x7EB0, symBinAddr: 0x100009AF0, symSize: 0x40 }
  - { offsetInCU: 0x3415A, offset: 0x3415A, size: 0x8, addend: 0x0, symName: __ZNSt3__117__compressed_pairIPNS_13__empty_stateIcEENS_10shared_ptrIS2_E27__shared_ptr_default_deleteIS2_S2_EEE5firstB7v160006Ev, symObjAddr: 0x7EF0, symBinAddr: 0x100009B30, symSize: 0x20 }
  - { offsetInCU: 0x34180, offset: 0x34180, size: 0x8, addend: 0x0, symName: __ZNSt3__122__compressed_pair_elemINS_17__compressed_pairIPNS_13__empty_stateIcEENS_10shared_ptrIS3_E27__shared_ptr_default_deleteIS3_S3_EEEELi0ELb0EE5__getB7v160006Ev, symObjAddr: 0x7F10, symBinAddr: 0x100009B50, symSize: 0x10 }
  - { offsetInCU: 0x341A6, offset: 0x341A6, size: 0x8, addend: 0x0, symName: __ZNSt3__122__compressed_pair_elemINS_10shared_ptrINS_13__empty_stateIcEEE27__shared_ptr_default_deleteIS3_S3_EELi1ELb1EE5__getB7v160006Ev, symObjAddr: 0x7F20, symBinAddr: 0x100009B60, symSize: 0x10 }
  - { offsetInCU: 0x341CC, offset: 0x341CC, size: 0x8, addend: 0x0, symName: __ZNSt3__122__compressed_pair_elemIPNS_13__empty_stateIcEELi0ELb0EE5__getB7v160006Ev, symObjAddr: 0x7F30, symBinAddr: 0x100009B70, symSize: 0x10 }
  - { offsetInCU: 0x34212, offset: 0x34212, size: 0x8, addend: 0x0, symName: __ZNKSt9type_infoeqB7v160006ERKS_, symObjAddr: 0x7F40, symBinAddr: 0x100009B80, symSize: 0x40 }
  - { offsetInCU: 0x34270, offset: 0x34270, size: 0x8, addend: 0x0, symName: __ZNKSt3__117__compressed_pairINS0_IPNS_13__empty_stateIcEENS_10shared_ptrIS2_E27__shared_ptr_default_deleteIS2_S2_EEEENS_9allocatorIS2_EEE5firstB7v160006Ev, symObjAddr: 0x7F80, symBinAddr: 0x100009BC0, symSize: 0x20 }
  - { offsetInCU: 0x34296, offset: 0x34296, size: 0x8, addend: 0x0, symName: __ZNKSt3__117__compressed_pairIPNS_13__empty_stateIcEENS_10shared_ptrIS2_E27__shared_ptr_default_deleteIS2_S2_EEE6secondB7v160006Ev, symObjAddr: 0x7FA0, symBinAddr: 0x100009BE0, symSize: 0x20 }
  - { offsetInCU: 0x342BC, offset: 0x342BC, size: 0x8, addend: 0x0, symName: __ZNKSt3__122__compressed_pair_elemINS_17__compressed_pairIPNS_13__empty_stateIcEENS_10shared_ptrIS3_E27__shared_ptr_default_deleteIS3_S3_EEEELi0ELb0EE5__getB7v160006Ev, symObjAddr: 0x7FC0, symBinAddr: 0x100009C00, symSize: 0x10 }
  - { offsetInCU: 0x342E2, offset: 0x342E2, size: 0x8, addend: 0x0, symName: __ZNKSt3__122__compressed_pair_elemINS_10shared_ptrINS_13__empty_stateIcEEE27__shared_ptr_default_deleteIS3_S3_EELi1ELb1EE5__getB7v160006Ev, symObjAddr: 0x7FD0, symBinAddr: 0x100009C10, symSize: 0x10 }
  - { offsetInCU: 0x34308, offset: 0x34308, size: 0x8, addend: 0x0, symName: __ZNSt3__117__compressed_pairINS0_IPNS_13__empty_stateIcEENS_10shared_ptrIS2_E27__shared_ptr_default_deleteIS2_S2_EEEENS_9allocatorIS2_EEE6secondB7v160006Ev, symObjAddr: 0x7FE0, symBinAddr: 0x100009C20, symSize: 0x20 }
  - { offsetInCU: 0x34358, offset: 0x34358, size: 0x8, addend: 0x0, symName: __ZNSt3__19allocatorINS_20__shared_ptr_pointerIPNS_13__empty_stateIcEENS_10shared_ptrIS3_E27__shared_ptr_default_deleteIS3_S3_EENS0_IS3_EEEEEC1B7v160006IS3_EERKNS0_IT_EE, symObjAddr: 0x8000, symBinAddr: 0x100009C40, symSize: 0x30 }
  - { offsetInCU: 0x34395, offset: 0x34395, size: 0x8, addend: 0x0, symName: __ZNSt3__19allocatorINS_20__shared_ptr_pointerIPNS_13__empty_stateIcEENS_10shared_ptrIS3_E27__shared_ptr_default_deleteIS3_S3_EENS0_IS3_EEEEE10deallocateB7v160006EPSA_m, symObjAddr: 0x8030, symBinAddr: 0x100009C70, symSize: 0x40 }
  - { offsetInCU: 0x343D7, offset: 0x343D7, size: 0x8, addend: 0x0, symName: __ZNSt3__114pointer_traitsIPNS_20__shared_ptr_pointerIPNS_13__empty_stateIcEENS_10shared_ptrIS3_E27__shared_ptr_default_deleteIS3_S3_EENS_9allocatorIS3_EEEEE10pointer_toB7v160006ERSB_, symObjAddr: 0x8070, symBinAddr: 0x100009CB0, symSize: 0x10 }
  - { offsetInCU: 0x343FA, offset: 0x343FA, size: 0x8, addend: 0x0, symName: __ZNSt3__122__compressed_pair_elemINS_9allocatorINS_13__empty_stateIcEEEELi1ELb1EE5__getB7v160006Ev, symObjAddr: 0x8080, symBinAddr: 0x100009CC0, symSize: 0x10 }
  - { offsetInCU: 0x34420, offset: 0x34420, size: 0x8, addend: 0x0, symName: __ZNSt3__19allocatorINS_20__shared_ptr_pointerIPNS_13__empty_stateIcEENS_10shared_ptrIS3_E27__shared_ptr_default_deleteIS3_S3_EENS0_IS3_EEEEEC2B7v160006IS3_EERKNS0_IT_EE, symObjAddr: 0x8090, symBinAddr: 0x100009CD0, symSize: 0x20 }
  - { offsetInCU: 0x3445D, offset: 0x3445D, size: 0x8, addend: 0x0, symName: __ZNSt3__116__non_trivial_ifILb1ENS_9allocatorINS_20__shared_ptr_pointerIPNS_13__empty_stateIcEENS_10shared_ptrIS4_E27__shared_ptr_default_deleteIS4_S4_EENS1_IS4_EEEEEEEC2B7v160006Ev, symObjAddr: 0x80B0, symBinAddr: 0x100009CF0, symSize: 0x10 }
  - { offsetInCU: 0x34487, offset: 0x34487, size: 0x8, addend: 0x0, symName: __ZNSt3__117__compressed_pairIPNS_13__empty_stateIcEENS_14default_deleteIS2_EEE5firstB7v160006Ev, symObjAddr: 0x80C0, symBinAddr: 0x100009D00, symSize: 0x20 }
  - { offsetInCU: 0x344AD, offset: 0x344AD, size: 0x8, addend: 0x0, symName: __ZNSt3__110unique_ptrINS_13__empty_stateIcEENS_14default_deleteIS2_EEED2B7v160006Ev, symObjAddr: 0x80E0, symBinAddr: 0x100009D20, symSize: 0x20 }
  - { offsetInCU: 0x344D7, offset: 0x344D7, size: 0x8, addend: 0x0, symName: __ZNSt3__110unique_ptrINS_13__empty_stateIcEENS_14default_deleteIS2_EEE5resetB7v160006EPS2_, symObjAddr: 0x8100, symBinAddr: 0x100009D40, symSize: 0x70 }
  - { offsetInCU: 0x3451B, offset: 0x3451B, size: 0x8, addend: 0x0, symName: __ZNSt3__117__compressed_pairIPNS_13__empty_stateIcEENS_14default_deleteIS2_EEE6secondB7v160006Ev, symObjAddr: 0x8170, symBinAddr: 0x100009DB0, symSize: 0x20 }
  - { offsetInCU: 0x34541, offset: 0x34541, size: 0x8, addend: 0x0, symName: __ZNSt3__122__compressed_pair_elemINS_14default_deleteINS_13__empty_stateIcEEEELi1ELb1EE5__getB7v160006Ev, symObjAddr: 0x8190, symBinAddr: 0x100009DD0, symSize: 0x10 }
  - { offsetInCU: 0x34567, offset: 0x34567, size: 0x8, addend: 0x0, symName: __ZNKSt3__117__compressed_pairIPNS_6__nodeIcEENS_14default_deleteIS2_EEE5firstB7v160006Ev, symObjAddr: 0x8220, symBinAddr: 0x100009E60, symSize: 0x20 }
  - { offsetInCU: 0x3458D, offset: 0x3458D, size: 0x8, addend: 0x0, symName: __ZNKSt3__122__compressed_pair_elemIPNS_6__nodeIcEELi0ELb0EE5__getB7v160006Ev, symObjAddr: 0x8240, symBinAddr: 0x100009E80, symSize: 0x10 }
  - { offsetInCU: 0x345B3, offset: 0x345B3, size: 0x8, addend: 0x0, symName: __ZNSt3__113__empty_stateIcEC2B7v160006EPNS_6__nodeIcEE, symObjAddr: 0x8250, symBinAddr: 0x100009E90, symSize: 0x40 }
  - { offsetInCU: 0x345EC, offset: 0x345EC, size: 0x8, addend: 0x0, symName: __ZNSt3__116__owns_one_stateIcEC2B7v160006EPNS_6__nodeIcEE, symObjAddr: 0x8290, symBinAddr: 0x100009ED0, symSize: 0x40 }
  - { offsetInCU: 0x34625, offset: 0x34625, size: 0x8, addend: 0x0, symName: __ZNSt3__113__empty_stateIcED1Ev, symObjAddr: 0x82D0, symBinAddr: 0x100009F10, symSize: 0x20 }
  - { offsetInCU: 0x34652, offset: 0x34652, size: 0x8, addend: 0x0, symName: __ZNSt3__113__empty_stateIcED0Ev, symObjAddr: 0x82F0, symBinAddr: 0x100009F30, symSize: 0x30 }
  - { offsetInCU: 0x3467F, offset: 0x3467F, size: 0x8, addend: 0x0, symName: __ZNKSt3__113__empty_stateIcE6__execERNS_7__stateIcEE, symObjAddr: 0x8320, symBinAddr: 0x100009F60, symSize: 0x40 }
  - { offsetInCU: 0x346B6, offset: 0x346B6, size: 0x8, addend: 0x0, symName: __ZNSt3__115__has_one_stateIcEC2B7v160006EPNS_6__nodeIcEE, symObjAddr: 0x8360, symBinAddr: 0x100009FA0, symSize: 0x40 }
  - { offsetInCU: 0x346EF, offset: 0x346EF, size: 0x8, addend: 0x0, symName: __ZNSt3__116__owns_one_stateIcED1Ev, symObjAddr: 0x83A0, symBinAddr: 0x100009FE0, symSize: 0x20 }
  - { offsetInCU: 0x3471B, offset: 0x3471B, size: 0x8, addend: 0x0, symName: __ZNSt3__116__owns_one_stateIcED0Ev, symObjAddr: 0x83C0, symBinAddr: 0x10000A000, symSize: 0x30 }
  - { offsetInCU: 0x34747, offset: 0x34747, size: 0x8, addend: 0x0, symName: __ZNSt3__115__has_one_stateIcED1Ev, symObjAddr: 0x83F0, symBinAddr: 0x10000A030, symSize: 0x20 }
  - { offsetInCU: 0x34774, offset: 0x34774, size: 0x8, addend: 0x0, symName: __ZNSt3__115__has_one_stateIcED0Ev, symObjAddr: 0x8410, symBinAddr: 0x10000A050, symSize: 0x30 }
  - { offsetInCU: 0x347A1, offset: 0x347A1, size: 0x8, addend: 0x0, symName: __ZNSt3__115__has_one_stateIcED2Ev, symObjAddr: 0x8440, symBinAddr: 0x10000A080, symSize: 0x20 }
  - { offsetInCU: 0x347CE, offset: 0x347CE, size: 0x8, addend: 0x0, symName: __ZNSt3__116__owns_one_stateIcED2Ev, symObjAddr: 0x8460, symBinAddr: 0x10000A0A0, symSize: 0x70 }
  - { offsetInCU: 0x347FA, offset: 0x347FA, size: 0x8, addend: 0x0, symName: __ZNSt3__115__has_one_stateIcE5firstB7v160006Ev, symObjAddr: 0x84D0, symBinAddr: 0x10000A110, symSize: 0x20 }
  - { offsetInCU: 0x34820, offset: 0x34820, size: 0x8, addend: 0x0, symName: __ZNSt3__113__empty_stateIcED2Ev, symObjAddr: 0x84F0, symBinAddr: 0x10000A130, symSize: 0x20 }
  - { offsetInCU: 0x3484D, offset: 0x3484D, size: 0x8, addend: 0x0, symName: __ZNKSt3__115__has_one_stateIcE5firstB7v160006Ev, symObjAddr: 0x8510, symBinAddr: 0x10000A150, symSize: 0x20 }
  - { offsetInCU: 0x34873, offset: 0x34873, size: 0x8, addend: 0x0, symName: __ZNSt3__117__compressed_pairIPNS_6__nodeIcEENS_14default_deleteIS2_EEE5firstB7v160006Ev, symObjAddr: 0x8530, symBinAddr: 0x10000A170, symSize: 0x20 }
  - { offsetInCU: 0x34899, offset: 0x34899, size: 0x8, addend: 0x0, symName: __ZNSt3__122__compressed_pair_elemIPNS_6__nodeIcEELi0ELb0EE5__getB7v160006Ev, symObjAddr: 0x8550, symBinAddr: 0x10000A190, symSize: 0x10 }
  - { offsetInCU: 0x348BF, offset: 0x348BF, size: 0x8, addend: 0x0, symName: __ZNSt3__110unique_ptrINS_6__nodeIcEENS_14default_deleteIS2_EEED2B7v160006Ev, symObjAddr: 0x8560, symBinAddr: 0x10000A1A0, symSize: 0x20 }
  - { offsetInCU: 0x348E9, offset: 0x348E9, size: 0x8, addend: 0x0, symName: __ZNSt3__110unique_ptrINS_6__nodeIcEENS_14default_deleteIS2_EEE5resetB7v160006EPS2_, symObjAddr: 0x8580, symBinAddr: 0x10000A1C0, symSize: 0x70 }
  - { offsetInCU: 0x3492D, offset: 0x3492D, size: 0x8, addend: 0x0, symName: __ZNSt3__117__compressed_pairIPNS_6__nodeIcEENS_14default_deleteIS2_EEE6secondB7v160006Ev, symObjAddr: 0x85F0, symBinAddr: 0x10000A230, symSize: 0x20 }
  - { offsetInCU: 0x34953, offset: 0x34953, size: 0x8, addend: 0x0, symName: __ZNKSt3__114default_deleteINS_6__nodeIcEEEclB7v160006EPS2_, symObjAddr: 0x8610, symBinAddr: 0x10000A250, symSize: 0x40 }
  - { offsetInCU: 0x34987, offset: 0x34987, size: 0x8, addend: 0x0, symName: __ZNSt3__122__compressed_pair_elemINS_14default_deleteINS_6__nodeIcEEEELi1ELb1EE5__getB7v160006Ev, symObjAddr: 0x8650, symBinAddr: 0x10000A290, symSize: 0x10 }
  - { offsetInCU: 0x349AD, offset: 0x349AD, size: 0x8, addend: 0x0, symName: __ZNSt3__111basic_regexIcNS_12regex_traitsIcEEE19__parse_alternativeIPKcEET_S7_S7_, symObjAddr: 0x8660, symBinAddr: 0x10000A2A0, symSize: 0x60 }
  - { offsetInCU: 0x34A19, offset: 0x34A19, size: 0x8, addend: 0x0, symName: __ZNSt3__111basic_regexIcNS_12regex_traitsIcEEE12__push_emptyEv, symObjAddr: 0x86C0, symBinAddr: 0x10000A300, symSize: 0xA0 }
  - { offsetInCU: 0x34A41, offset: 0x34A41, size: 0x8, addend: 0x0, symName: __ZNSt3__111basic_regexIcNS_12regex_traitsIcEEE18__push_alternationEPNS_16__owns_one_stateIcEES6_, symObjAddr: 0x8760, symBinAddr: 0x10000A3A0, symSize: 0x190 }
  - { offsetInCU: 0x34A87, offset: 0x34A87, size: 0x8, addend: 0x0, symName: __ZNSt3__111basic_regexIcNS_12regex_traitsIcEEE12__parse_termIPKcEET_S7_S7_, symObjAddr: 0x88F0, symBinAddr: 0x10000A530, symSize: 0xB0 }
  - { offsetInCU: 0x34B11, offset: 0x34B11, size: 0x8, addend: 0x0, symName: __ZNSt3__111basic_regexIcNS_12regex_traitsIcEEE17__parse_assertionIPKcEET_S7_S7_, symObjAddr: 0x89A0, symBinAddr: 0x10000A5E0, symSize: 0x3D0 }
  - { offsetInCU: 0x34BDE, offset: 0x34BDE, size: 0x8, addend: 0x0, symName: __ZNSt3__111basic_regexIcNS_12regex_traitsIcEEE12__parse_atomIPKcEET_S7_S7_, symObjAddr: 0x8D70, symBinAddr: 0x10000A9B0, symSize: 0x270 }
  - { offsetInCU: 0x34C67, offset: 0x34C67, size: 0x8, addend: 0x0, symName: __ZNSt3__111basic_regexIcNS_12regex_traitsIcEEE23__parse_ERE_dupl_symbolIPKcEET_S7_S7_PNS_16__owns_one_stateIcEEjj, symObjAddr: 0x8FE0, symBinAddr: 0x10000AC20, symSize: 0x510 }
  - { offsetInCU: 0x34D49, offset: 0x34D49, size: 0x8, addend: 0x0, symName: __ZNSt3__111basic_regexIcNS_12regex_traitsIcEEE15__push_l_anchorEv, symObjAddr: 0x94F0, symBinAddr: 0x10000B130, symSize: 0xC0 }
  - { offsetInCU: 0x34D71, offset: 0x34D71, size: 0x8, addend: 0x0, symName: __ZNSt3__111basic_regexIcNS_12regex_traitsIcEEE15__push_r_anchorEv, symObjAddr: 0x95B0, symBinAddr: 0x10000B1F0, symSize: 0xC0 }
  - { offsetInCU: 0x34D99, offset: 0x34D99, size: 0x8, addend: 0x0, symName: __ZNSt3__111basic_regexIcNS_12regex_traitsIcEEE20__push_word_boundaryEb, symObjAddr: 0x96C0, symBinAddr: 0x10000B300, symSize: 0xC0 }
  - { offsetInCU: 0x34DD0, offset: 0x34DD0, size: 0x8, addend: 0x0, symName: __ZNSt3__111basic_regexIcNS_12regex_traitsIcEEEC1B7v160006Ev, symObjAddr: 0x9780, symBinAddr: 0x10000B3C0, symSize: 0x20 }
  - { offsetInCU: 0x34DFA, offset: 0x34DFA, size: 0x8, addend: 0x0, symName: __ZNSt3__111basic_regexIcNS_12regex_traitsIcEEE16__push_lookaheadERKS3_bj, symObjAddr: 0x97A0, symBinAddr: 0x10000B3E0, symSize: 0xD0 }
  - { offsetInCU: 0x34E4F, offset: 0x34E4F, size: 0x8, addend: 0x0, symName: __ZNKSt3__111basic_regexIcNS_12regex_traitsIcEEE15__use_multilineB7v160006Ev, symObjAddr: 0x98D0, symBinAddr: 0x10000B510, symSize: 0x60 }
  - { offsetInCU: 0x34E8A, offset: 0x34E8A, size: 0x8, addend: 0x0, symName: __ZNSt3__120__l_anchor_multilineIcEC1B7v160006EbPNS_6__nodeIcEE, symObjAddr: 0x9930, symBinAddr: 0x10000B570, symSize: 0x40 }
  - { offsetInCU: 0x34ED2, offset: 0x34ED2, size: 0x8, addend: 0x0, symName: __ZNSt3__120__l_anchor_multilineIcEC2B7v160006EbPNS_6__nodeIcEE, symObjAddr: 0x9990, symBinAddr: 0x10000B5D0, symSize: 0x50 }
  - { offsetInCU: 0x34F1A, offset: 0x34F1A, size: 0x8, addend: 0x0, symName: __ZNSt3__120__l_anchor_multilineIcED1Ev, symObjAddr: 0x99E0, symBinAddr: 0x10000B620, symSize: 0x20 }
  - { offsetInCU: 0x34F47, offset: 0x34F47, size: 0x8, addend: 0x0, symName: __ZNSt3__120__l_anchor_multilineIcED0Ev, symObjAddr: 0x9A00, symBinAddr: 0x10000B640, symSize: 0x30 }
  - { offsetInCU: 0x34F74, offset: 0x34F74, size: 0x8, addend: 0x0, symName: __ZNKSt3__120__l_anchor_multilineIcE6__execERNS_7__stateIcEE, symObjAddr: 0x9A30, symBinAddr: 0x10000B670, symSize: 0x100 }
  - { offsetInCU: 0x34FAB, offset: 0x34FAB, size: 0x8, addend: 0x0, symName: __ZNSt3__120__l_anchor_multilineIcED2Ev, symObjAddr: 0x9B30, symBinAddr: 0x10000B770, symSize: 0x20 }
  - { offsetInCU: 0x34FED, offset: 0x34FED, size: 0x8, addend: 0x0, symName: __ZNSt3__120__r_anchor_multilineIcEC1B7v160006EbPNS_6__nodeIcEE, symObjAddr: 0x9C80, symBinAddr: 0x10000B8C0, symSize: 0x40 }
  - { offsetInCU: 0x35035, offset: 0x35035, size: 0x8, addend: 0x0, symName: __ZNSt3__120__r_anchor_multilineIcEC2B7v160006EbPNS_6__nodeIcEE, symObjAddr: 0x9CC0, symBinAddr: 0x10000B900, symSize: 0x50 }
  - { offsetInCU: 0x3507D, offset: 0x3507D, size: 0x8, addend: 0x0, symName: __ZNSt3__120__r_anchor_multilineIcED1Ev, symObjAddr: 0x9D10, symBinAddr: 0x10000B950, symSize: 0x20 }
  - { offsetInCU: 0x350AA, offset: 0x350AA, size: 0x8, addend: 0x0, symName: __ZNSt3__120__r_anchor_multilineIcED0Ev, symObjAddr: 0x9D30, symBinAddr: 0x10000B970, symSize: 0x30 }
  - { offsetInCU: 0x350D7, offset: 0x350D7, size: 0x8, addend: 0x0, symName: __ZNKSt3__120__r_anchor_multilineIcE6__execERNS_7__stateIcEE, symObjAddr: 0x9D60, symBinAddr: 0x10000B9A0, symSize: 0xE0 }
  - { offsetInCU: 0x3510E, offset: 0x3510E, size: 0x8, addend: 0x0, symName: __ZNSt3__120__r_anchor_multilineIcED2Ev, symObjAddr: 0x9E40, symBinAddr: 0x10000BA80, symSize: 0x20 }
  - { offsetInCU: 0x35150, offset: 0x35150, size: 0x8, addend: 0x0, symName: __ZNSt3__115__word_boundaryIcNS_12regex_traitsIcEEEC1B7v160006ERKS2_bPNS_6__nodeIcEE, symObjAddr: 0x9E60, symBinAddr: 0x10000BAA0, symSize: 0x40 }
  - { offsetInCU: 0x351A7, offset: 0x351A7, size: 0x8, addend: 0x0, symName: __ZNSt3__115__word_boundaryIcNS_12regex_traitsIcEEEC2B7v160006ERKS2_bPNS_6__nodeIcEE, symObjAddr: 0x9EA0, symBinAddr: 0x10000BAE0, symSize: 0x60 }
  - { offsetInCU: 0x351FE, offset: 0x351FE, size: 0x8, addend: 0x0, symName: __ZNSt3__112regex_traitsIcEC1ERKS1_, symObjAddr: 0x9F00, symBinAddr: 0x10000BB40, symSize: 0x30 }
  - { offsetInCU: 0x35234, offset: 0x35234, size: 0x8, addend: 0x0, symName: __ZNSt3__115__word_boundaryIcNS_12regex_traitsIcEEED1Ev, symObjAddr: 0x9F30, symBinAddr: 0x10000BB70, symSize: 0x20 }
  - { offsetInCU: 0x35261, offset: 0x35261, size: 0x8, addend: 0x0, symName: __ZNSt3__115__word_boundaryIcNS_12regex_traitsIcEEED0Ev, symObjAddr: 0x9F50, symBinAddr: 0x10000BB90, symSize: 0x30 }
  - { offsetInCU: 0x3528E, offset: 0x3528E, size: 0x8, addend: 0x0, symName: __ZNKSt3__115__word_boundaryIcNS_12regex_traitsIcEEE6__execERNS_7__stateIcEE, symObjAddr: 0x9F80, symBinAddr: 0x10000BBC0, symSize: 0x240 }
  - { offsetInCU: 0x35358, offset: 0x35358, size: 0x8, addend: 0x0, symName: __ZNSt3__112regex_traitsIcEC2ERKS1_, symObjAddr: 0xA1C0, symBinAddr: 0x10000BE00, symSize: 0x40 }
  - { offsetInCU: 0x3538E, offset: 0x3538E, size: 0x8, addend: 0x0, symName: __ZNSt3__115__word_boundaryIcNS_12regex_traitsIcEEED2Ev, symObjAddr: 0xA200, symBinAddr: 0x10000BE40, symSize: 0x40 }
  - { offsetInCU: 0x353BB, offset: 0x353BB, size: 0x8, addend: 0x0, symName: __ZNKSt3__112regex_traitsIcE7isctypeEcj, symObjAddr: 0xA240, symBinAddr: 0x10000BE80, symSize: 0x80 }
  - { offsetInCU: 0x35401, offset: 0x35401, size: 0x8, addend: 0x0, symName: __ZNKSt3__15ctypeIcE2isB7v160006Ejc, symObjAddr: 0xA2C0, symBinAddr: 0x10000BF00, symSize: 0x70 }
  - { offsetInCU: 0x35444, offset: 0x35444, size: 0x8, addend: 0x0, symName: __Z7isasciii, symObjAddr: 0xA330, symBinAddr: 0x10000BF70, symSize: 0x20 }
  - { offsetInCU: 0x35471, offset: 0x35471, size: 0x8, addend: 0x0, symName: __ZNSt3__111basic_regexIcNS_12regex_traitsIcEEEC2B7v160006Ev, symObjAddr: 0xA350, symBinAddr: 0x10000BF90, symSize: 0x60 }
  - { offsetInCU: 0x354BC, offset: 0x354BC, size: 0x8, addend: 0x0, symName: __ZNSt3__111__lookaheadIcNS_12regex_traitsIcEEEC1B7v160006ERKNS_11basic_regexIcS2_EEbPNS_6__nodeIcEEj, symObjAddr: 0xA3B0, symBinAddr: 0x10000BFF0, symSize: 0x50 }
  - { offsetInCU: 0x35522, offset: 0x35522, size: 0x8, addend: 0x0, symName: __ZNSt3__111__lookaheadIcNS_12regex_traitsIcEEEC2B7v160006ERKNS_11basic_regexIcS2_EEbPNS_6__nodeIcEEj, symObjAddr: 0xA400, symBinAddr: 0x10000C040, symSize: 0x70 }
  - { offsetInCU: 0x35588, offset: 0x35588, size: 0x8, addend: 0x0, symName: __ZNSt3__111basic_regexIcNS_12regex_traitsIcEEEC1ERKS3_, symObjAddr: 0xA470, symBinAddr: 0x10000C0B0, symSize: 0x30 }
  - { offsetInCU: 0x355BE, offset: 0x355BE, size: 0x8, addend: 0x0, symName: __ZNSt3__111__lookaheadIcNS_12regex_traitsIcEEED1Ev, symObjAddr: 0xA4A0, symBinAddr: 0x10000C0E0, symSize: 0x20 }
  - { offsetInCU: 0x355EB, offset: 0x355EB, size: 0x8, addend: 0x0, symName: __ZNSt3__111__lookaheadIcNS_12regex_traitsIcEEED0Ev, symObjAddr: 0xA4C0, symBinAddr: 0x10000C100, symSize: 0x30 }
  - { offsetInCU: 0x35618, offset: 0x35618, size: 0x8, addend: 0x0, symName: __ZNKSt3__111__lookaheadIcNS_12regex_traitsIcEEE6__execERNS_7__stateIcEE, symObjAddr: 0xA4F0, symBinAddr: 0x10000C130, symSize: 0x290 }
  - { offsetInCU: 0x3568D, offset: 0x3568D, size: 0x8, addend: 0x0, symName: __ZNSt3__111basic_regexIcNS_12regex_traitsIcEEEC2ERKS3_, symObjAddr: 0xA780, symBinAddr: 0x10000C3C0, symSize: 0x60 }
  - { offsetInCU: 0x356C3, offset: 0x356C3, size: 0x8, addend: 0x0, symName: __ZNSt3__110shared_ptrINS_13__empty_stateIcEEEC1B7v160006ERKS3_, symObjAddr: 0xA7E0, symBinAddr: 0x10000C420, symSize: 0x30 }
  - { offsetInCU: 0x356FC, offset: 0x356FC, size: 0x8, addend: 0x0, symName: __ZNSt3__110shared_ptrINS_13__empty_stateIcEEEC2B7v160006ERKS3_, symObjAddr: 0xA810, symBinAddr: 0x10000C450, symSize: 0x50 }
  - { offsetInCU: 0x35735, offset: 0x35735, size: 0x8, addend: 0x0, symName: __ZNSt3__119__shared_weak_count12__add_sharedB7v160006Ev, symObjAddr: 0xA860, symBinAddr: 0x10000C4A0, symSize: 0x20 }
  - { offsetInCU: 0x3575B, offset: 0x3575B, size: 0x8, addend: 0x0, symName: __ZNSt3__114__shared_count12__add_sharedB7v160006Ev, symObjAddr: 0xA880, symBinAddr: 0x10000C4C0, symSize: 0x20 }
  - { offsetInCU: 0x35781, offset: 0x35781, size: 0x8, addend: 0x0, symName: __ZNSt3__111__lookaheadIcNS_12regex_traitsIcEEED2Ev, symObjAddr: 0xA8D0, symBinAddr: 0x10000C510, symSize: 0x40 }
  - { offsetInCU: 0x357E3, offset: 0x357E3, size: 0x8, addend: 0x0, symName: __ZNSt3__113match_resultsIPKcNS_9allocatorINS_9sub_matchIS2_EEEEEC1Ev, symObjAddr: 0xA910, symBinAddr: 0x10000C550, symSize: 0x30 }
  - { offsetInCU: 0x3580D, offset: 0x3580D, size: 0x8, addend: 0x0, symName: __ZNSt3__113match_resultsIPKcNS_9allocatorINS_9sub_matchIS2_EEEEE6__initEjS2_S2_b, symObjAddr: 0xA940, symBinAddr: 0x10000C580, symSize: 0xA0 }
  - { offsetInCU: 0x35871, offset: 0x35871, size: 0x8, addend: 0x0, symName: __ZNKSt3__111basic_regexIcNS_12regex_traitsIcEEE10mark_countB7v160006Ev, symObjAddr: 0xA9E0, symBinAddr: 0x10000C620, symSize: 0x20 }
  - { offsetInCU: 0x3589D, offset: 0x3589D, size: 0x8, addend: 0x0, symName: __ZNKSt3__111basic_regexIcNS_12regex_traitsIcEEE21__match_at_start_ecmaINS_9allocatorINS_9sub_matchIPKcEEEEEEbS8_S8_RNS_13match_resultsIS8_T_EENS_15regex_constants15match_flag_typeEb, symObjAddr: 0xAA00, symBinAddr: 0x10000C640, symSize: 0x5E0 }
  - { offsetInCU: 0x359C1, offset: 0x359C1, size: 0x8, addend: 0x0, symName: __ZNKSt3__113match_resultsIPKcNS_9allocatorINS_9sub_matchIS2_EEEEE4sizeB7v160006Ev, symObjAddr: 0xB020, symBinAddr: 0x10000CC60, symSize: 0x20 }
  - { offsetInCU: 0x359E7, offset: 0x359E7, size: 0x8, addend: 0x0, symName: __ZNSt3__16vectorINS_9sub_matchIPKcEENS_9allocatorIS4_EEEixB7v160006Em, symObjAddr: 0xB040, symBinAddr: 0x10000CC80, symSize: 0x20 }
  - { offsetInCU: 0x35A1E, offset: 0x35A1E, size: 0x8, addend: 0x0, symName: __ZNSt3__19sub_matchIPKcEaSERKS3_, symObjAddr: 0xB060, symBinAddr: 0x10000CCA0, symSize: 0x40 }
  - { offsetInCU: 0x35A55, offset: 0x35A55, size: 0x8, addend: 0x0, symName: __ZNSt3__113match_resultsIPKcNS_9allocatorINS_9sub_matchIS2_EEEEED1Ev, symObjAddr: 0xB0A0, symBinAddr: 0x10000CCE0, symSize: 0x20 }
  - { offsetInCU: 0x35A82, offset: 0x35A82, size: 0x8, addend: 0x0, symName: __ZNSt3__19allocatorINS_9sub_matchIPKcEEEC1B7v160006Ev, symObjAddr: 0xB0C0, symBinAddr: 0x10000CD00, symSize: 0x20 }
  - { offsetInCU: 0x35AAC, offset: 0x35AAC, size: 0x8, addend: 0x0, symName: __ZNSt3__113match_resultsIPKcNS_9allocatorINS_9sub_matchIS2_EEEEEC1ERKS6_, symObjAddr: 0xB0E0, symBinAddr: 0x10000CD20, symSize: 0x30 }
  - { offsetInCU: 0x35AE7, offset: 0x35AE7, size: 0x8, addend: 0x0, symName: __ZNSt3__19allocatorINS_9sub_matchIPKcEEEC2B7v160006Ev, symObjAddr: 0xB110, symBinAddr: 0x10000CD50, symSize: 0x20 }
  - { offsetInCU: 0x35B11, offset: 0x35B11, size: 0x8, addend: 0x0, symName: __ZNSt3__116__non_trivial_ifILb1ENS_9allocatorINS_9sub_matchIPKcEEEEEC2B7v160006Ev, symObjAddr: 0xB130, symBinAddr: 0x10000CD70, symSize: 0x10 }
  - { offsetInCU: 0x35B3B, offset: 0x35B3B, size: 0x8, addend: 0x0, symName: __ZNSt3__113match_resultsIPKcNS_9allocatorINS_9sub_matchIS2_EEEEEC2ERKS6_, symObjAddr: 0xB140, symBinAddr: 0x10000CD80, symSize: 0xA0 }
  - { offsetInCU: 0x35B76, offset: 0x35B76, size: 0x8, addend: 0x0, symName: __ZNSt3__16vectorINS_9sub_matchIPKcEENS_9allocatorIS4_EEEC1B7v160006ERKS6_, symObjAddr: 0xB1E0, symBinAddr: 0x10000CE20, symSize: 0x30 }
  - { offsetInCU: 0x35BAF, offset: 0x35BAF, size: 0x8, addend: 0x0, symName: __ZNSt3__19sub_matchIPKcEC1B7v160006Ev, symObjAddr: 0xB210, symBinAddr: 0x10000CE50, symSize: 0x20 }
  - { offsetInCU: 0x35BD9, offset: 0x35BD9, size: 0x8, addend: 0x0, symName: __ZNSt3__16vectorINS_9sub_matchIPKcEENS_9allocatorIS4_EEED1B7v160006Ev, symObjAddr: 0xB230, symBinAddr: 0x10000CE70, symSize: 0x20 }
  - { offsetInCU: 0x35C03, offset: 0x35C03, size: 0x8, addend: 0x0, symName: __ZNSt3__16vectorINS_9sub_matchIPKcEENS_9allocatorIS4_EEEC2B7v160006ERKS6_, symObjAddr: 0xB250, symBinAddr: 0x10000CE90, symSize: 0x70 }
  - { offsetInCU: 0x35C3C, offset: 0x35C3C, size: 0x8, addend: 0x0, symName: __ZNSt3__117__compressed_pairIPNS_9sub_matchIPKcEENS_9allocatorIS4_EEEC1B7v160006IDnRKS7_EEOT_OT0_, symObjAddr: 0xB2C0, symBinAddr: 0x10000CF00, symSize: 0x30 }
  - { offsetInCU: 0x35C94, offset: 0x35C94, size: 0x8, addend: 0x0, symName: __ZNSt3__117__compressed_pairIPNS_9sub_matchIPKcEENS_9allocatorIS4_EEEC2B7v160006IDnRKS7_EEOT_OT0_, symObjAddr: 0xB300, symBinAddr: 0x10000CF40, symSize: 0x40 }
  - { offsetInCU: 0x35CEC, offset: 0x35CEC, size: 0x8, addend: 0x0, symName: __ZNSt3__122__compressed_pair_elemIPNS_9sub_matchIPKcEELi0ELb0EEC2B7v160006IDnvEEOT_, symObjAddr: 0xB340, symBinAddr: 0x10000CF80, symSize: 0x20 }
  - { offsetInCU: 0x35D2E, offset: 0x35D2E, size: 0x8, addend: 0x0, symName: __ZNSt3__122__compressed_pair_elemINS_9allocatorINS_9sub_matchIPKcEEEELi1ELb1EEC2B7v160006IRKS6_vEEOT_, symObjAddr: 0xB360, symBinAddr: 0x10000CFA0, symSize: 0x10 }
  - { offsetInCU: 0x35D70, offset: 0x35D70, size: 0x8, addend: 0x0, symName: __ZNSt3__19sub_matchIPKcEC2B7v160006Ev, symObjAddr: 0xB370, symBinAddr: 0x10000CFB0, symSize: 0x30 }
  - { offsetInCU: 0x35D9A, offset: 0x35D9A, size: 0x8, addend: 0x0, symName: __ZNSt3__14pairIPKcS2_EC2B7v160006ILb1ELPv0EEEv, symObjAddr: 0xB3A0, symBinAddr: 0x10000CFE0, symSize: 0x20 }
  - { offsetInCU: 0x35DD4, offset: 0x35DD4, size: 0x8, addend: 0x0, symName: __ZNSt3__16vectorINS_9sub_matchIPKcEENS_9allocatorIS4_EEED2B7v160006Ev, symObjAddr: 0xB3C0, symBinAddr: 0x10000D000, symSize: 0x40 }
  - { offsetInCU: 0x35DFE, offset: 0x35DFE, size: 0x8, addend: 0x0, symName: __ZNSt3__16vectorINS_9sub_matchIPKcEENS_9allocatorIS4_EEE16__destroy_vectorC1ERS7_, symObjAddr: 0xB400, symBinAddr: 0x10000D040, symSize: 0x30 }
  - { offsetInCU: 0x35E37, offset: 0x35E37, size: 0x8, addend: 0x0, symName: __ZNSt3__16vectorINS_9sub_matchIPKcEENS_9allocatorIS4_EEE16__destroy_vectorclB7v160006Ev, symObjAddr: 0xB430, symBinAddr: 0x10000D070, symSize: 0x90 }
  - { offsetInCU: 0x35E5D, offset: 0x35E5D, size: 0x8, addend: 0x0, symName: __ZNSt3__16vectorINS_9sub_matchIPKcEENS_9allocatorIS4_EEE16__destroy_vectorC2ERS7_, symObjAddr: 0xB4C0, symBinAddr: 0x10000D100, symSize: 0x20 }
  - { offsetInCU: 0x35E96, offset: 0x35E96, size: 0x8, addend: 0x0, symName: __ZNKSt3__16vectorINS_9sub_matchIPKcEENS_9allocatorIS4_EEE17__annotate_deleteB7v160006Ev, symObjAddr: 0xB4E0, symBinAddr: 0x10000D120, symSize: 0xB0 }
  - { offsetInCU: 0x35EBC, offset: 0x35EBC, size: 0x8, addend: 0x0, symName: __ZNSt3__16vectorINS_9sub_matchIPKcEENS_9allocatorIS4_EEE7__clearB7v160006Ev, symObjAddr: 0xB5A0, symBinAddr: 0x10000D1E0, symSize: 0x20 }
  - { offsetInCU: 0x35EE2, offset: 0x35EE2, size: 0x8, addend: 0x0, symName: __ZNSt3__116allocator_traitsINS_9allocatorINS_9sub_matchIPKcEEEEE10deallocateB7v160006ERS6_PS5_m, symObjAddr: 0xB5C0, symBinAddr: 0x10000D200, symSize: 0x30 }
  - { offsetInCU: 0x35F24, offset: 0x35F24, size: 0x8, addend: 0x0, symName: __ZNSt3__16vectorINS_9sub_matchIPKcEENS_9allocatorIS4_EEE7__allocB7v160006Ev, symObjAddr: 0xB5F0, symBinAddr: 0x10000D230, symSize: 0x20 }
  - { offsetInCU: 0x35F4A, offset: 0x35F4A, size: 0x8, addend: 0x0, symName: __ZNKSt3__16vectorINS_9sub_matchIPKcEENS_9allocatorIS4_EEE8capacityB7v160006Ev, symObjAddr: 0xB610, symBinAddr: 0x10000D250, symSize: 0x40 }
  - { offsetInCU: 0x35F70, offset: 0x35F70, size: 0x8, addend: 0x0, symName: __ZNKSt3__16vectorINS_9sub_matchIPKcEENS_9allocatorIS4_EEE31__annotate_contiguous_containerB7v160006EPKvS9_S9_S9_, symObjAddr: 0xB650, symBinAddr: 0x10000D290, symSize: 0x20 }
  - { offsetInCU: 0x35FC2, offset: 0x35FC2, size: 0x8, addend: 0x0, symName: __ZNKSt3__16vectorINS_9sub_matchIPKcEENS_9allocatorIS4_EEE4dataB7v160006Ev, symObjAddr: 0xB670, symBinAddr: 0x10000D2B0, symSize: 0x20 }
  - { offsetInCU: 0x35FE8, offset: 0x35FE8, size: 0x8, addend: 0x0, symName: __ZNKSt3__16vectorINS_9sub_matchIPKcEENS_9allocatorIS4_EEE4sizeB7v160006Ev, symObjAddr: 0xB690, symBinAddr: 0x10000D2D0, symSize: 0x30 }
  - { offsetInCU: 0x3600E, offset: 0x3600E, size: 0x8, addend: 0x0, symName: __ZNSt3__16vectorINS_9sub_matchIPKcEENS_9allocatorIS4_EEE22__base_destruct_at_endB7v160006EPS4_, symObjAddr: 0xB6D0, symBinAddr: 0x10000D310, symSize: 0x80 }
  - { offsetInCU: 0x36052, offset: 0x36052, size: 0x8, addend: 0x0, symName: __ZNSt3__116allocator_traitsINS_9allocatorINS_9sub_matchIPKcEEEEE7destroyB7v160006IS5_vEEvRS6_PT_, symObjAddr: 0xB750, symBinAddr: 0x10000D390, symSize: 0x30 }
  - { offsetInCU: 0x3608F, offset: 0x3608F, size: 0x8, addend: 0x0, symName: __ZNSt3__19allocatorINS_9sub_matchIPKcEEE7destroyB7v160006EPS4_, symObjAddr: 0xB780, symBinAddr: 0x10000D3C0, symSize: 0x10 }
  - { offsetInCU: 0x360C3, offset: 0x360C3, size: 0x8, addend: 0x0, symName: __ZNSt3__19allocatorINS_9sub_matchIPKcEEE10deallocateB7v160006EPS4_m, symObjAddr: 0xB790, symBinAddr: 0x10000D3D0, symSize: 0x50 }
  - { offsetInCU: 0x36105, offset: 0x36105, size: 0x8, addend: 0x0, symName: __ZNSt3__117__compressed_pairIPNS_9sub_matchIPKcEENS_9allocatorIS4_EEE6secondB7v160006Ev, symObjAddr: 0xB7E0, symBinAddr: 0x10000D420, symSize: 0x20 }
  - { offsetInCU: 0x3612B, offset: 0x3612B, size: 0x8, addend: 0x0, symName: __ZNSt3__122__compressed_pair_elemINS_9allocatorINS_9sub_matchIPKcEEEELi1ELb1EE5__getB7v160006Ev, symObjAddr: 0xB800, symBinAddr: 0x10000D440, symSize: 0x10 }
  - { offsetInCU: 0x36151, offset: 0x36151, size: 0x8, addend: 0x0, symName: __ZNKSt3__16vectorINS_9sub_matchIPKcEENS_9allocatorIS4_EEE9__end_capB7v160006Ev, symObjAddr: 0xB810, symBinAddr: 0x10000D450, symSize: 0x20 }
  - { offsetInCU: 0x36177, offset: 0x36177, size: 0x8, addend: 0x0, symName: __ZNKSt3__117__compressed_pairIPNS_9sub_matchIPKcEENS_9allocatorIS4_EEE5firstB7v160006Ev, symObjAddr: 0xB830, symBinAddr: 0x10000D470, symSize: 0x20 }
  - { offsetInCU: 0x3619D, offset: 0x3619D, size: 0x8, addend: 0x0, symName: __ZNKSt3__122__compressed_pair_elemIPNS_9sub_matchIPKcEELi0ELb0EE5__getB7v160006Ev, symObjAddr: 0xB850, symBinAddr: 0x10000D490, symSize: 0x10 }
  - { offsetInCU: 0x361C3, offset: 0x361C3, size: 0x8, addend: 0x0, symName: __ZNSt3__16vectorINS_9sub_matchIPKcEENS_9allocatorIS4_EEE6assignEmRKS4_, symObjAddr: 0xB860, symBinAddr: 0x10000D4A0, symSize: 0x100 }
  - { offsetInCU: 0x36226, offset: 0x36226, size: 0x8, addend: 0x0, symName: __ZNSt3__16vectorINS_9sub_matchIPKcEENS_9allocatorIS4_EEE18__construct_at_endEmRKS4_, symObjAddr: 0xB9A0, symBinAddr: 0x10000D5E0, symSize: 0xC0 }
  - { offsetInCU: 0x362A7, offset: 0x362A7, size: 0x8, addend: 0x0, symName: __ZNSt3__16vectorINS_9sub_matchIPKcEENS_9allocatorIS4_EEE17__destruct_at_endB7v160006EPS4_, symObjAddr: 0xBA60, symBinAddr: 0x10000D6A0, symSize: 0x60 }
  - { offsetInCU: 0x362EB, offset: 0x362EB, size: 0x8, addend: 0x0, symName: __ZNSt3__16vectorINS_9sub_matchIPKcEENS_9allocatorIS4_EEE13__vdeallocateEv, symObjAddr: 0xBAC0, symBinAddr: 0x10000D700, symSize: 0x80 }
  - { offsetInCU: 0x36313, offset: 0x36313, size: 0x8, addend: 0x0, symName: __ZNSt3__16vectorINS_9sub_matchIPKcEENS_9allocatorIS4_EEE11__vallocateB7v160006Em, symObjAddr: 0xBB40, symBinAddr: 0x10000D780, symSize: 0xA0 }
  - { offsetInCU: 0x36357, offset: 0x36357, size: 0x8, addend: 0x0, symName: __ZNKSt3__16vectorINS_9sub_matchIPKcEENS_9allocatorIS4_EEE11__recommendB7v160006Em, symObjAddr: 0xBBE0, symBinAddr: 0x10000D820, symSize: 0xA0 }
  - { offsetInCU: 0x363C7, offset: 0x363C7, size: 0x8, addend: 0x0, symName: __ZNSt3__16vectorINS_9sub_matchIPKcEENS_9allocatorIS4_EEE21_ConstructTransactionC1B7v160006ERS7_m, symObjAddr: 0xBD00, symBinAddr: 0x10000D940, symSize: 0x30 }
  - { offsetInCU: 0x3640F, offset: 0x3640F, size: 0x8, addend: 0x0, symName: __ZNSt3__116allocator_traitsINS_9allocatorINS_9sub_matchIPKcEEEEE9constructB7v160006IS5_JRKS5_EvEEvRS6_PT_DpOT0_, symObjAddr: 0xBD30, symBinAddr: 0x10000D970, symSize: 0x30 }
  - { offsetInCU: 0x36466, offset: 0x36466, size: 0x8, addend: 0x0, symName: __ZNSt3__16vectorINS_9sub_matchIPKcEENS_9allocatorIS4_EEE21_ConstructTransactionD1B7v160006Ev, symObjAddr: 0xBD60, symBinAddr: 0x10000D9A0, symSize: 0x20 }
  - { offsetInCU: 0x36490, offset: 0x36490, size: 0x8, addend: 0x0, symName: __ZNSt3__16vectorINS_9sub_matchIPKcEENS_9allocatorIS4_EEE21_ConstructTransactionC2B7v160006ERS7_m, symObjAddr: 0xBD80, symBinAddr: 0x10000D9C0, symSize: 0x40 }
  - { offsetInCU: 0x364D8, offset: 0x364D8, size: 0x8, addend: 0x0, symName: __ZNSt3__19allocatorINS_9sub_matchIPKcEEE9constructB7v160006IS4_JRKS4_EEEvPT_DpOT0_, symObjAddr: 0xBDC0, symBinAddr: 0x10000DA00, symSize: 0x30 }
  - { offsetInCU: 0x3652E, offset: 0x3652E, size: 0x8, addend: 0x0, symName: __ZNSt3__16vectorINS_9sub_matchIPKcEENS_9allocatorIS4_EEE21_ConstructTransactionD2B7v160006Ev, symObjAddr: 0xBDF0, symBinAddr: 0x10000DA30, symSize: 0x20 }
  - { offsetInCU: 0x36558, offset: 0x36558, size: 0x8, addend: 0x0, symName: __ZNSt3__16vectorINS_9sub_matchIPKcEENS_9allocatorIS4_EEE27__invalidate_iterators_pastB7v160006EPS4_, symObjAddr: 0xBE10, symBinAddr: 0x10000DA50, symSize: 0x10 }
  - { offsetInCU: 0x3658F, offset: 0x3658F, size: 0x8, addend: 0x0, symName: __ZNKSt3__16vectorINS_9sub_matchIPKcEENS_9allocatorIS4_EEE17__annotate_shrinkB7v160006Em, symObjAddr: 0xBE20, symBinAddr: 0x10000DA60, symSize: 0xA0 }
  - { offsetInCU: 0x365C4, offset: 0x365C4, size: 0x8, addend: 0x0, symName: __ZNSt3__16vectorINS_9sub_matchIPKcEENS_9allocatorIS4_EEE5clearB7v160006Ev, symObjAddr: 0xBEC0, symBinAddr: 0x10000DB00, symSize: 0x50 }
  - { offsetInCU: 0x365F9, offset: 0x365F9, size: 0x8, addend: 0x0, symName: __ZNSt3__16vectorINS_9sub_matchIPKcEENS_9allocatorIS4_EEE9__end_capB7v160006Ev, symObjAddr: 0xBF10, symBinAddr: 0x10000DB50, symSize: 0x20 }
  - { offsetInCU: 0x3661F, offset: 0x3661F, size: 0x8, addend: 0x0, symName: __ZNSt3__117__compressed_pairIPNS_9sub_matchIPKcEENS_9allocatorIS4_EEE5firstB7v160006Ev, symObjAddr: 0xBF30, symBinAddr: 0x10000DB70, symSize: 0x20 }
  - { offsetInCU: 0x36645, offset: 0x36645, size: 0x8, addend: 0x0, symName: __ZNSt3__122__compressed_pair_elemIPNS_9sub_matchIPKcEELi0ELb0EE5__getB7v160006Ev, symObjAddr: 0xBF50, symBinAddr: 0x10000DB90, symSize: 0x10 }
  - { offsetInCU: 0x3666B, offset: 0x3666B, size: 0x8, addend: 0x0, symName: __ZNKSt3__16vectorINS_9sub_matchIPKcEENS_9allocatorIS4_EEE8max_sizeEv, symObjAddr: 0xBF60, symBinAddr: 0x10000DBA0, symSize: 0x60 }
  - { offsetInCU: 0x36693, offset: 0x36693, size: 0x8, addend: 0x0, symName: __ZNKSt3__16vectorINS_9sub_matchIPKcEENS_9allocatorIS4_EEE20__throw_length_errorB7v160006Ev, symObjAddr: 0xBFC0, symBinAddr: 0x10000DC00, symSize: 0x20 }
  - { offsetInCU: 0x366B9, offset: 0x366B9, size: 0x8, addend: 0x0, symName: __ZNKSt3__16vectorINS_9sub_matchIPKcEENS_9allocatorIS4_EEE14__annotate_newB7v160006Em, symObjAddr: 0xC020, symBinAddr: 0x10000DC60, symSize: 0xA0 }
  - { offsetInCU: 0x366F9, offset: 0x366F9, size: 0x8, addend: 0x0, symName: __ZNSt3__116allocator_traitsINS_9allocatorINS_9sub_matchIPKcEEEEE8max_sizeB7v160006IS6_vEEmRKS6_, symObjAddr: 0xC0C0, symBinAddr: 0x10000DD00, symSize: 0x20 }
  - { offsetInCU: 0x36727, offset: 0x36727, size: 0x8, addend: 0x0, symName: __ZNKSt3__16vectorINS_9sub_matchIPKcEENS_9allocatorIS4_EEE7__allocB7v160006Ev, symObjAddr: 0xC0E0, symBinAddr: 0x10000DD20, symSize: 0x20 }
  - { offsetInCU: 0x3674D, offset: 0x3674D, size: 0x8, addend: 0x0, symName: __ZNKSt3__19allocatorINS_9sub_matchIPKcEEE8max_sizeB7v160006Ev, symObjAddr: 0xC100, symBinAddr: 0x10000DD40, symSize: 0x20 }
  - { offsetInCU: 0x36773, offset: 0x36773, size: 0x8, addend: 0x0, symName: __ZNKSt3__117__compressed_pairIPNS_9sub_matchIPKcEENS_9allocatorIS4_EEE6secondB7v160006Ev, symObjAddr: 0xC120, symBinAddr: 0x10000DD60, symSize: 0x20 }
  - { offsetInCU: 0x36799, offset: 0x36799, size: 0x8, addend: 0x0, symName: __ZNKSt3__122__compressed_pair_elemINS_9allocatorINS_9sub_matchIPKcEEEELi1ELb1EE5__getB7v160006Ev, symObjAddr: 0xC140, symBinAddr: 0x10000DD80, symSize: 0x10 }
  - { offsetInCU: 0x367BF, offset: 0x367BF, size: 0x8, addend: 0x0, symName: __ZNSt3__19allocatorINS_9sub_matchIPKcEEE8allocateB7v160006Em, symObjAddr: 0xC150, symBinAddr: 0x10000DD90, symSize: 0x50 }
  - { offsetInCU: 0x367F3, offset: 0x367F3, size: 0x8, addend: 0x0, symName: __ZNSt3__16vectorINS_7__stateIcEENS_9allocatorIS2_EEEC1B7v160006Ev, symObjAddr: 0xC220, symBinAddr: 0x10000DE60, symSize: 0x20 }
  - { offsetInCU: 0x3681D, offset: 0x3681D, size: 0x8, addend: 0x0, symName: __ZNSt3__16vectorINS_7__stateIcEENS_9allocatorIS2_EEE9push_backB7v160006EOS2_, symObjAddr: 0xC240, symBinAddr: 0x10000DE80, symSize: 0x60 }
  - { offsetInCU: 0x36854, offset: 0x36854, size: 0x8, addend: 0x0, symName: __ZNSt3__17__stateIcEC1B7v160006Ev, symObjAddr: 0xC2A0, symBinAddr: 0x10000DEE0, symSize: 0x20 }
  - { offsetInCU: 0x3687E, offset: 0x3687E, size: 0x8, addend: 0x0, symName: __ZNSt3__17__stateIcED1Ev, symObjAddr: 0xC2C0, symBinAddr: 0x10000DF00, symSize: 0x20 }
  - { offsetInCU: 0x368AB, offset: 0x368AB, size: 0x8, addend: 0x0, symName: __ZNSt3__16vectorINS_7__stateIcEENS_9allocatorIS2_EEE4backB7v160006Ev, symObjAddr: 0xC2E0, symBinAddr: 0x10000DF20, symSize: 0x20 }
  - { offsetInCU: 0x368D1, offset: 0x368D1, size: 0x8, addend: 0x0, symName: __ZNSt3__16vectorINS_9sub_matchIPKcEENS_9allocatorIS4_EEE6resizeEmRKS4_, symObjAddr: 0xC300, symBinAddr: 0x10000DF40, symSize: 0x80 }
  - { offsetInCU: 0x36926, offset: 0x36926, size: 0x8, addend: 0x0, symName: __ZNSt3__16vectorINS_4pairImPKcEENS_9allocatorIS4_EEE6resizeEm, symObjAddr: 0xC380, symBinAddr: 0x10000DFC0, symSize: 0x80 }
  - { offsetInCU: 0x3696C, offset: 0x3696C, size: 0x8, addend: 0x0, symName: __ZNKSt3__111basic_regexIcNS_12regex_traitsIcEEE12__loop_countB7v160006Ev, symObjAddr: 0xC400, symBinAddr: 0x10000E040, symSize: 0x20 }
  - { offsetInCU: 0x36992, offset: 0x36992, size: 0x8, addend: 0x0, symName: __ZNSt3__16vectorINS_7__stateIcEENS_9allocatorIS2_EEE8pop_backEv, symObjAddr: 0xC480, symBinAddr: 0x10000E0C0, symSize: 0x30 }
  - { offsetInCU: 0x369BA, offset: 0x369BA, size: 0x8, addend: 0x0, symName: __ZNSt3__17__stateIcEC1ERKS1_, symObjAddr: 0xC4B0, symBinAddr: 0x10000E0F0, symSize: 0x30 }
  - { offsetInCU: 0x369F0, offset: 0x369F0, size: 0x8, addend: 0x0, symName: __ZNKSt3__16vectorINS_7__stateIcEENS_9allocatorIS2_EEE5emptyB7v160006Ev, symObjAddr: 0xC540, symBinAddr: 0x10000E180, symSize: 0x20 }
  - { offsetInCU: 0x36A16, offset: 0x36A16, size: 0x8, addend: 0x0, symName: __ZNSt3__16vectorINS_7__stateIcEENS_9allocatorIS2_EEED1B7v160006Ev, symObjAddr: 0xC560, symBinAddr: 0x10000E1A0, symSize: 0x20 }
  - { offsetInCU: 0x36A40, offset: 0x36A40, size: 0x8, addend: 0x0, symName: __ZNSt3__16vectorINS_7__stateIcEENS_9allocatorIS2_EEEC2B7v160006Ev, symObjAddr: 0xC580, symBinAddr: 0x10000E1C0, symSize: 0x60 }
  - { offsetInCU: 0x36A6A, offset: 0x36A6A, size: 0x8, addend: 0x0, symName: __ZNSt3__117__compressed_pairIPNS_7__stateIcEENS_9allocatorIS2_EEEC1B7v160006IDnNS_18__default_init_tagEEEOT_OT0_, symObjAddr: 0xC5E0, symBinAddr: 0x10000E220, symSize: 0x30 }
  - { offsetInCU: 0x36AC2, offset: 0x36AC2, size: 0x8, addend: 0x0, symName: __ZNSt3__117__compressed_pairIPNS_7__stateIcEENS_9allocatorIS2_EEEC2B7v160006IDnNS_18__default_init_tagEEEOT_OT0_, symObjAddr: 0xC620, symBinAddr: 0x10000E260, symSize: 0x40 }
  - { offsetInCU: 0x36B1A, offset: 0x36B1A, size: 0x8, addend: 0x0, symName: __ZNSt3__122__compressed_pair_elemIPNS_7__stateIcEELi0ELb0EEC2B7v160006IDnvEEOT_, symObjAddr: 0xC660, symBinAddr: 0x10000E2A0, symSize: 0x20 }
  - { offsetInCU: 0x36B5C, offset: 0x36B5C, size: 0x8, addend: 0x0, symName: __ZNSt3__122__compressed_pair_elemINS_9allocatorINS_7__stateIcEEEELi1ELb1EEC2B7v160006ENS_18__default_init_tagE, symObjAddr: 0xC680, symBinAddr: 0x10000E2C0, symSize: 0x20 }
  - { offsetInCU: 0x36B90, offset: 0x36B90, size: 0x8, addend: 0x0, symName: __ZNSt3__19allocatorINS_7__stateIcEEEC2B7v160006Ev, symObjAddr: 0xC6A0, symBinAddr: 0x10000E2E0, symSize: 0x20 }
  - { offsetInCU: 0x36BBA, offset: 0x36BBA, size: 0x8, addend: 0x0, symName: __ZNSt3__116__non_trivial_ifILb1ENS_9allocatorINS_7__stateIcEEEEEC2B7v160006Ev, symObjAddr: 0xC6C0, symBinAddr: 0x10000E300, symSize: 0x10 }
  - { offsetInCU: 0x36BE4, offset: 0x36BE4, size: 0x8, addend: 0x0, symName: __ZNSt3__16vectorINS_7__stateIcEENS_9allocatorIS2_EEE9__end_capB7v160006Ev, symObjAddr: 0xC6D0, symBinAddr: 0x10000E310, symSize: 0x20 }
  - { offsetInCU: 0x36C10, offset: 0x36C10, size: 0x8, addend: 0x0, symName: __ZNSt3__16vectorINS_7__stateIcEENS_9allocatorIS2_EEE22__construct_one_at_endB7v160006IJS2_EEEvDpOT_, symObjAddr: 0xC6F0, symBinAddr: 0x10000E330, symSize: 0x90 }
  - { offsetInCU: 0x36C5F, offset: 0x36C5F, size: 0x8, addend: 0x0, symName: __ZNSt3__16vectorINS_7__stateIcEENS_9allocatorIS2_EEE21__push_back_slow_pathIS2_EEvOT_, symObjAddr: 0xC780, symBinAddr: 0x10000E3C0, symSize: 0xD0 }
  - { offsetInCU: 0x36CBD, offset: 0x36CBD, size: 0x8, addend: 0x0, symName: __ZNSt3__117__compressed_pairIPNS_7__stateIcEENS_9allocatorIS2_EEE5firstB7v160006Ev, symObjAddr: 0xC850, symBinAddr: 0x10000E490, symSize: 0x20 }
  - { offsetInCU: 0x36CE3, offset: 0x36CE3, size: 0x8, addend: 0x0, symName: __ZNSt3__122__compressed_pair_elemIPNS_7__stateIcEELi0ELb0EE5__getB7v160006Ev, symObjAddr: 0xC870, symBinAddr: 0x10000E4B0, symSize: 0x10 }
  - { offsetInCU: 0x36D24, offset: 0x36D24, size: 0x8, addend: 0x0, symName: __ZNSt3__16vectorINS_7__stateIcEENS_9allocatorIS2_EEE21_ConstructTransactionC1B7v160006ERS5_m, symObjAddr: 0xC880, symBinAddr: 0x10000E4C0, symSize: 0x30 }
  - { offsetInCU: 0x36D6C, offset: 0x36D6C, size: 0x8, addend: 0x0, symName: __ZNSt3__116allocator_traitsINS_9allocatorINS_7__stateIcEEEEE9constructB7v160006IS3_JS3_EvEEvRS4_PT_DpOT0_, symObjAddr: 0xC8B0, symBinAddr: 0x10000E4F0, symSize: 0x30 }
  - { offsetInCU: 0x36DC3, offset: 0x36DC3, size: 0x8, addend: 0x0, symName: __ZNSt3__16vectorINS_7__stateIcEENS_9allocatorIS2_EEE7__allocB7v160006Ev, symObjAddr: 0xC8E0, symBinAddr: 0x10000E520, symSize: 0x20 }
  - { offsetInCU: 0x36DE9, offset: 0x36DE9, size: 0x8, addend: 0x0, symName: __ZNSt3__16vectorINS_7__stateIcEENS_9allocatorIS2_EEE21_ConstructTransactionD1B7v160006Ev, symObjAddr: 0xC910, symBinAddr: 0x10000E550, symSize: 0x20 }
  - { offsetInCU: 0x36E13, offset: 0x36E13, size: 0x8, addend: 0x0, symName: __ZNSt3__16vectorINS_7__stateIcEENS_9allocatorIS2_EEE21_ConstructTransactionC2B7v160006ERS5_m, symObjAddr: 0xC930, symBinAddr: 0x10000E570, symSize: 0x40 }
  - { offsetInCU: 0x36E5B, offset: 0x36E5B, size: 0x8, addend: 0x0, symName: __ZNSt3__19allocatorINS_7__stateIcEEE9constructB7v160006IS2_JS2_EEEvPT_DpOT0_, symObjAddr: 0xC970, symBinAddr: 0x10000E5B0, symSize: 0x30 }
  - { offsetInCU: 0x36EB1, offset: 0x36EB1, size: 0x8, addend: 0x0, symName: __ZNSt3__17__stateIcEC1EOS1_, symObjAddr: 0xC9A0, symBinAddr: 0x10000E5E0, symSize: 0x30 }
  - { offsetInCU: 0x36EE7, offset: 0x36EE7, size: 0x8, addend: 0x0, symName: __ZNSt3__17__stateIcEC2EOS1_, symObjAddr: 0xC9D0, symBinAddr: 0x10000E610, symSize: 0x90 }
  - { offsetInCU: 0x36F1D, offset: 0x36F1D, size: 0x8, addend: 0x0, symName: __ZNSt3__16vectorINS_9sub_matchIPKcEENS_9allocatorIS4_EEEC1B7v160006EOS7_, symObjAddr: 0xCA60, symBinAddr: 0x10000E6A0, symSize: 0x30 }
  - { offsetInCU: 0x36F58, offset: 0x36F58, size: 0x8, addend: 0x0, symName: __ZNSt3__16vectorINS_4pairImPKcEENS_9allocatorIS4_EEEC1B7v160006EOS7_, symObjAddr: 0xCA90, symBinAddr: 0x10000E6D0, symSize: 0x30 }
  - { offsetInCU: 0x36F93, offset: 0x36F93, size: 0x8, addend: 0x0, symName: __ZNSt3__16vectorINS_9sub_matchIPKcEENS_9allocatorIS4_EEEC2B7v160006EOS7_, symObjAddr: 0xCAC0, symBinAddr: 0x10000E700, symSize: 0xE0 }
  - { offsetInCU: 0x36FD4, offset: 0x36FD4, size: 0x8, addend: 0x0, symName: __ZNSt3__117__compressed_pairIPNS_9sub_matchIPKcEENS_9allocatorIS4_EEEC1B7v160006IDnS7_EEOT_OT0_, symObjAddr: 0xCBA0, symBinAddr: 0x10000E7E0, symSize: 0x30 }
  - { offsetInCU: 0x3702C, offset: 0x3702C, size: 0x8, addend: 0x0, symName: __ZNSt3__117__compressed_pairIPNS_9sub_matchIPKcEENS_9allocatorIS4_EEEC2B7v160006IDnS7_EEOT_OT0_, symObjAddr: 0xCBE0, symBinAddr: 0x10000E820, symSize: 0x40 }
  - { offsetInCU: 0x37084, offset: 0x37084, size: 0x8, addend: 0x0, symName: __ZNSt3__122__compressed_pair_elemINS_9allocatorINS_9sub_matchIPKcEEEELi1ELb1EEC2B7v160006IS6_vEEOT_, symObjAddr: 0xCC20, symBinAddr: 0x10000E860, symSize: 0x10 }
  - { offsetInCU: 0x370C6, offset: 0x370C6, size: 0x8, addend: 0x0, symName: __ZNSt3__16vectorINS_4pairImPKcEENS_9allocatorIS4_EEEC2B7v160006EOS7_, symObjAddr: 0xCC30, symBinAddr: 0x10000E870, symSize: 0xF0 }
  - { offsetInCU: 0x37101, offset: 0x37101, size: 0x8, addend: 0x0, symName: __ZNSt3__16vectorINS_4pairImPKcEENS_9allocatorIS4_EEE7__allocB7v160006Ev, symObjAddr: 0xCD20, symBinAddr: 0x10000E960, symSize: 0x20 }
  - { offsetInCU: 0x3712D, offset: 0x3712D, size: 0x8, addend: 0x0, symName: __ZNSt3__117__compressed_pairIPNS_4pairImPKcEENS_9allocatorIS4_EEEC1B7v160006IDnS7_EEOT_OT0_, symObjAddr: 0xCD40, symBinAddr: 0x10000E980, symSize: 0x30 }
  - { offsetInCU: 0x37185, offset: 0x37185, size: 0x8, addend: 0x0, symName: __ZNSt3__16vectorINS_4pairImPKcEENS_9allocatorIS4_EEE9__end_capB7v160006Ev, symObjAddr: 0xCD90, symBinAddr: 0x10000E9D0, symSize: 0x20 }
  - { offsetInCU: 0x371AB, offset: 0x371AB, size: 0x8, addend: 0x0, symName: __ZNSt3__117__compressed_pairIPNS_4pairImPKcEENS_9allocatorIS4_EEE6secondB7v160006Ev, symObjAddr: 0xCDB0, symBinAddr: 0x10000E9F0, symSize: 0x20 }
  - { offsetInCU: 0x371D1, offset: 0x371D1, size: 0x8, addend: 0x0, symName: __ZNSt3__122__compressed_pair_elemINS_9allocatorINS_4pairImPKcEEEELi1ELb1EE5__getB7v160006Ev, symObjAddr: 0xCDD0, symBinAddr: 0x10000EA10, symSize: 0x10 }
  - { offsetInCU: 0x371F7, offset: 0x371F7, size: 0x8, addend: 0x0, symName: __ZNSt3__117__compressed_pairIPNS_4pairImPKcEENS_9allocatorIS4_EEEC2B7v160006IDnS7_EEOT_OT0_, symObjAddr: 0xCDE0, symBinAddr: 0x10000EA20, symSize: 0x40 }
  - { offsetInCU: 0x3724F, offset: 0x3724F, size: 0x8, addend: 0x0, symName: __ZNSt3__122__compressed_pair_elemIPNS_4pairImPKcEELi0ELb0EEC2B7v160006IDnvEEOT_, symObjAddr: 0xCE20, symBinAddr: 0x10000EA60, symSize: 0x20 }
  - { offsetInCU: 0x37291, offset: 0x37291, size: 0x8, addend: 0x0, symName: __ZNSt3__122__compressed_pair_elemINS_9allocatorINS_4pairImPKcEEEELi1ELb1EEC2B7v160006IS6_vEEOT_, symObjAddr: 0xCE40, symBinAddr: 0x10000EA80, symSize: 0x10 }
  - { offsetInCU: 0x372D3, offset: 0x372D3, size: 0x8, addend: 0x0, symName: __ZNSt3__117__compressed_pairIPNS_4pairImPKcEENS_9allocatorIS4_EEE5firstB7v160006Ev, symObjAddr: 0xCE50, symBinAddr: 0x10000EA90, symSize: 0x20 }
  - { offsetInCU: 0x372F9, offset: 0x372F9, size: 0x8, addend: 0x0, symName: __ZNSt3__122__compressed_pair_elemIPNS_4pairImPKcEELi0ELb0EE5__getB7v160006Ev, symObjAddr: 0xCE70, symBinAddr: 0x10000EAB0, symSize: 0x10 }
  - { offsetInCU: 0x3731F, offset: 0x3731F, size: 0x8, addend: 0x0, symName: __ZNSt3__117__compressed_pairIPNS_7__stateIcEENS_9allocatorIS2_EEE6secondB7v160006Ev, symObjAddr: 0xCE80, symBinAddr: 0x10000EAC0, symSize: 0x20 }
  - { offsetInCU: 0x37345, offset: 0x37345, size: 0x8, addend: 0x0, symName: __ZNSt3__122__compressed_pair_elemINS_9allocatorINS_7__stateIcEEEELi1ELb1EE5__getB7v160006Ev, symObjAddr: 0xCEA0, symBinAddr: 0x10000EAE0, symSize: 0x10 }
  - { offsetInCU: 0x3736B, offset: 0x3736B, size: 0x8, addend: 0x0, symName: __ZNSt3__16vectorINS_7__stateIcEENS_9allocatorIS2_EEE21_ConstructTransactionD2B7v160006Ev, symObjAddr: 0xCEB0, symBinAddr: 0x10000EAF0, symSize: 0x20 }
  - { offsetInCU: 0x37395, offset: 0x37395, size: 0x8, addend: 0x0, symName: __ZNKSt3__16vectorINS_7__stateIcEENS_9allocatorIS2_EEE11__recommendB7v160006Em, symObjAddr: 0xCED0, symBinAddr: 0x10000EB10, symSize: 0xA0 }
  - { offsetInCU: 0x373EA, offset: 0x373EA, size: 0x8, addend: 0x0, symName: __ZNKSt3__16vectorINS_7__stateIcEENS_9allocatorIS2_EEE4sizeB7v160006Ev, symObjAddr: 0xCF70, symBinAddr: 0x10000EBB0, symSize: 0x30 }
  - { offsetInCU: 0x37410, offset: 0x37410, size: 0x8, addend: 0x0, symName: __ZNSt3__114__split_bufferINS_7__stateIcEERNS_9allocatorIS2_EEEC1EmmS5_, symObjAddr: 0xCFA0, symBinAddr: 0x10000EBE0, symSize: 0x40 }
  - { offsetInCU: 0x37466, offset: 0x37466, size: 0x8, addend: 0x0, symName: __ZNSt3__114__split_bufferINS_7__stateIcEERNS_9allocatorIS2_EEED1Ev, symObjAddr: 0xD110, symBinAddr: 0x10000ED50, symSize: 0x20 }
  - { offsetInCU: 0x37492, offset: 0x37492, size: 0x8, addend: 0x0, symName: __ZNKSt3__16vectorINS_7__stateIcEENS_9allocatorIS2_EEE8max_sizeEv, symObjAddr: 0xD130, symBinAddr: 0x10000ED70, symSize: 0x60 }
  - { offsetInCU: 0x374BA, offset: 0x374BA, size: 0x8, addend: 0x0, symName: __ZNKSt3__16vectorINS_7__stateIcEENS_9allocatorIS2_EEE20__throw_length_errorB7v160006Ev, symObjAddr: 0xD190, symBinAddr: 0x10000EDD0, symSize: 0x20 }
  - { offsetInCU: 0x374E0, offset: 0x374E0, size: 0x8, addend: 0x0, symName: __ZNKSt3__16vectorINS_7__stateIcEENS_9allocatorIS2_EEE8capacityB7v160006Ev, symObjAddr: 0xD1B0, symBinAddr: 0x10000EDF0, symSize: 0x40 }
  - { offsetInCU: 0x37511, offset: 0x37511, size: 0x8, addend: 0x0, symName: __ZNSt3__116allocator_traitsINS_9allocatorINS_7__stateIcEEEEE8max_sizeB7v160006IS4_vEEmRKS4_, symObjAddr: 0xD1F0, symBinAddr: 0x10000EE30, symSize: 0x20 }
  - { offsetInCU: 0x3753F, offset: 0x3753F, size: 0x8, addend: 0x0, symName: __ZNKSt3__16vectorINS_7__stateIcEENS_9allocatorIS2_EEE7__allocB7v160006Ev, symObjAddr: 0xD210, symBinAddr: 0x10000EE50, symSize: 0x20 }
  - { offsetInCU: 0x37565, offset: 0x37565, size: 0x8, addend: 0x0, symName: __ZNKSt3__19allocatorINS_7__stateIcEEE8max_sizeB7v160006Ev, symObjAddr: 0xD230, symBinAddr: 0x10000EE70, symSize: 0x20 }
  - { offsetInCU: 0x3758B, offset: 0x3758B, size: 0x8, addend: 0x0, symName: __ZNKSt3__117__compressed_pairIPNS_7__stateIcEENS_9allocatorIS2_EEE6secondB7v160006Ev, symObjAddr: 0xD250, symBinAddr: 0x10000EE90, symSize: 0x20 }
  - { offsetInCU: 0x375B1, offset: 0x375B1, size: 0x8, addend: 0x0, symName: __ZNKSt3__122__compressed_pair_elemINS_9allocatorINS_7__stateIcEEEELi1ELb1EE5__getB7v160006Ev, symObjAddr: 0xD270, symBinAddr: 0x10000EEB0, symSize: 0x10 }
  - { offsetInCU: 0x375D7, offset: 0x375D7, size: 0x8, addend: 0x0, symName: __ZNKSt3__16vectorINS_7__stateIcEENS_9allocatorIS2_EEE9__end_capB7v160006Ev, symObjAddr: 0xD280, symBinAddr: 0x10000EEC0, symSize: 0x20 }
  - { offsetInCU: 0x375FD, offset: 0x375FD, size: 0x8, addend: 0x0, symName: __ZNKSt3__117__compressed_pairIPNS_7__stateIcEENS_9allocatorIS2_EEE5firstB7v160006Ev, symObjAddr: 0xD2A0, symBinAddr: 0x10000EEE0, symSize: 0x20 }
  - { offsetInCU: 0x37623, offset: 0x37623, size: 0x8, addend: 0x0, symName: __ZNKSt3__122__compressed_pair_elemIPNS_7__stateIcEELi0ELb0EE5__getB7v160006Ev, symObjAddr: 0xD2C0, symBinAddr: 0x10000EF00, symSize: 0x10 }
  - { offsetInCU: 0x37649, offset: 0x37649, size: 0x8, addend: 0x0, symName: __ZNSt3__114__split_bufferINS_7__stateIcEERNS_9allocatorIS2_EEEC2EmmS5_, symObjAddr: 0xD2D0, symBinAddr: 0x10000EF10, symSize: 0xC0 }
  - { offsetInCU: 0x376BC, offset: 0x376BC, size: 0x8, addend: 0x0, symName: __ZNSt3__117__compressed_pairIPNS_7__stateIcEERNS_9allocatorIS2_EEEC1B7v160006IDnS6_EEOT_OT0_, symObjAddr: 0xD390, symBinAddr: 0x10000EFD0, symSize: 0x30 }
  - { offsetInCU: 0x37714, offset: 0x37714, size: 0x8, addend: 0x0, symName: __ZNSt3__114__split_bufferINS_7__stateIcEERNS_9allocatorIS2_EEE7__allocB7v160006Ev, symObjAddr: 0xD400, symBinAddr: 0x10000F040, symSize: 0x20 }
  - { offsetInCU: 0x3773A, offset: 0x3773A, size: 0x8, addend: 0x0, symName: __ZNSt3__114__split_bufferINS_7__stateIcEERNS_9allocatorIS2_EEE9__end_capB7v160006Ev, symObjAddr: 0xD420, symBinAddr: 0x10000F060, symSize: 0x20 }
  - { offsetInCU: 0x37760, offset: 0x37760, size: 0x8, addend: 0x0, symName: __ZNSt3__117__compressed_pairIPNS_7__stateIcEERNS_9allocatorIS2_EEEC2B7v160006IDnS6_EEOT_OT0_, symObjAddr: 0xD440, symBinAddr: 0x10000F080, symSize: 0x40 }
  - { offsetInCU: 0x377B8, offset: 0x377B8, size: 0x8, addend: 0x0, symName: __ZNSt3__122__compressed_pair_elemIRNS_9allocatorINS_7__stateIcEEEELi1ELb0EEC2B7v160006IS5_vEEOT_, symObjAddr: 0xD480, symBinAddr: 0x10000F0C0, symSize: 0x20 }
  - { offsetInCU: 0x377FA, offset: 0x377FA, size: 0x8, addend: 0x0, symName: __ZNSt3__19allocatorINS_7__stateIcEEE8allocateB7v160006Em, symObjAddr: 0xD4A0, symBinAddr: 0x10000F0E0, symSize: 0x50 }
  - { offsetInCU: 0x3782E, offset: 0x3782E, size: 0x8, addend: 0x0, symName: __ZNSt3__117__compressed_pairIPNS_7__stateIcEERNS_9allocatorIS2_EEE6secondB7v160006Ev, symObjAddr: 0xD4F0, symBinAddr: 0x10000F130, symSize: 0x20 }
  - { offsetInCU: 0x37854, offset: 0x37854, size: 0x8, addend: 0x0, symName: __ZNSt3__122__compressed_pair_elemIRNS_9allocatorINS_7__stateIcEEEELi1ELb0EE5__getB7v160006Ev, symObjAddr: 0xD510, symBinAddr: 0x10000F150, symSize: 0x20 }
  - { offsetInCU: 0x3787A, offset: 0x3787A, size: 0x8, addend: 0x0, symName: __ZNSt3__117__compressed_pairIPNS_7__stateIcEERNS_9allocatorIS2_EEE5firstB7v160006Ev, symObjAddr: 0xD530, symBinAddr: 0x10000F170, symSize: 0x20 }
  - { offsetInCU: 0x378A0, offset: 0x378A0, size: 0x8, addend: 0x0, symName: __ZNKSt3__16vectorINS_7__stateIcEENS_9allocatorIS2_EEE17__annotate_deleteB7v160006Ev, symObjAddr: 0xD550, symBinAddr: 0x10000F190, symSize: 0xB0 }
  - { offsetInCU: 0x378C6, offset: 0x378C6, size: 0x8, addend: 0x0, symName: __ZNSt3__116reverse_iteratorIPNS_7__stateIcEEEC1B7v160006ES3_, symObjAddr: 0xD780, symBinAddr: 0x10000F3C0, symSize: 0x30 }
  - { offsetInCU: 0x378FE, offset: 0x378FE, size: 0x8, addend: 0x0, symName: __ZNKSt3__116reverse_iteratorIPNS_7__stateIcEEE4baseB7v160006Ev, symObjAddr: 0xD7B0, symBinAddr: 0x10000F3F0, symSize: 0x20 }
  - { offsetInCU: 0x37924, offset: 0x37924, size: 0x8, addend: 0x0, symName: __ZNKSt3__16vectorINS_7__stateIcEENS_9allocatorIS2_EEE14__annotate_newB7v160006Em, symObjAddr: 0xD810, symBinAddr: 0x10000F450, symSize: 0xA0 }
  - { offsetInCU: 0x37959, offset: 0x37959, size: 0x8, addend: 0x0, symName: __ZNKSt3__16vectorINS_7__stateIcEENS_9allocatorIS2_EEE31__annotate_contiguous_containerB7v160006EPKvS7_S7_S7_, symObjAddr: 0xD8C0, symBinAddr: 0x10000F500, symSize: 0x20 }
  - { offsetInCU: 0x379AB, offset: 0x379AB, size: 0x8, addend: 0x0, symName: __ZNKSt3__16vectorINS_7__stateIcEENS_9allocatorIS2_EEE4dataB7v160006Ev, symObjAddr: 0xD8E0, symBinAddr: 0x10000F520, symSize: 0x20 }
  - { offsetInCU: 0x379D1, offset: 0x379D1, size: 0x8, addend: 0x0, symName: __ZNSt3__129_AllocatorDestroyRangeReverseINS_9allocatorINS_7__stateIcEEEENS_16reverse_iteratorIPS3_EEEC1B7v160006ERS4_RS7_SA_, symObjAddr: 0xD960, symBinAddr: 0x10000F5A0, symSize: 0x40 }
  - { offsetInCU: 0x37A28, offset: 0x37A28, size: 0x8, addend: 0x0, symName: __ZNKSt3__116reverse_iteratorIPNS_7__stateIcEEEdeB7v160006Ev, symObjAddr: 0xDA00, symBinAddr: 0x10000F640, symSize: 0x30 }
  - { offsetInCU: 0x37A5C, offset: 0x37A5C, size: 0x8, addend: 0x0, symName: __ZNSt3__116reverse_iteratorIPNS_7__stateIcEEEppB7v160006Ev, symObjAddr: 0xDA30, symBinAddr: 0x10000F670, symSize: 0x20 }
  - { offsetInCU: 0x37A82, offset: 0x37A82, size: 0x8, addend: 0x0, symName: __ZNSt3__128__exception_guard_exceptionsINS_29_AllocatorDestroyRangeReverseINS_9allocatorINS_7__stateIcEEEENS_16reverse_iteratorIPS4_EEEEE10__completeB7v160006Ev, symObjAddr: 0xDA50, symBinAddr: 0x10000F690, symSize: 0x20 }
  - { offsetInCU: 0x37AA8, offset: 0x37AA8, size: 0x8, addend: 0x0, symName: __ZNSt3__128__exception_guard_exceptionsINS_29_AllocatorDestroyRangeReverseINS_9allocatorINS_7__stateIcEEEENS_16reverse_iteratorIPS4_EEEEED1B7v160006Ev, symObjAddr: 0xDA70, symBinAddr: 0x10000F6B0, symSize: 0x20 }
  - { offsetInCU: 0x37AD2, offset: 0x37AD2, size: 0x8, addend: 0x0, symName: __ZNSt3__128__exception_guard_exceptionsINS_29_AllocatorDestroyRangeReverseINS_9allocatorINS_7__stateIcEEEENS_16reverse_iteratorIPS4_EEEEEC1B7v160006ES9_, symObjAddr: 0xDA90, symBinAddr: 0x10000F6D0, symSize: 0x40 }
  - { offsetInCU: 0x37B0A, offset: 0x37B0A, size: 0x8, addend: 0x0, symName: __ZNSt3__128__exception_guard_exceptionsINS_29_AllocatorDestroyRangeReverseINS_9allocatorINS_7__stateIcEEEENS_16reverse_iteratorIPS4_EEEEEC2B7v160006ES9_, symObjAddr: 0xDAD0, symBinAddr: 0x10000F710, symSize: 0x30 }
  - { offsetInCU: 0x37B42, offset: 0x37B42, size: 0x8, addend: 0x0, symName: __ZNSt3__129_AllocatorDestroyRangeReverseINS_9allocatorINS_7__stateIcEEEENS_16reverse_iteratorIPS3_EEEC2B7v160006ERS4_RS7_SA_, symObjAddr: 0xDB00, symBinAddr: 0x10000F740, symSize: 0x40 }
  - { offsetInCU: 0x37B9F, offset: 0x37B9F, size: 0x8, addend: 0x0, symName: __ZNSt3__119__to_address_helperINS_16reverse_iteratorIPNS_7__stateIcEEEEvE6__callB7v160006ERKS5_, symObjAddr: 0xDB40, symBinAddr: 0x10000F780, symSize: 0x40 }
  - { offsetInCU: 0x37BC2, offset: 0x37BC2, size: 0x8, addend: 0x0, symName: __ZNKSt3__116reverse_iteratorIPNS_7__stateIcEEEptB7v160006Ev, symObjAddr: 0xDB80, symBinAddr: 0x10000F7C0, symSize: 0x20 }
  - { offsetInCU: 0x37BE8, offset: 0x37BE8, size: 0x8, addend: 0x0, symName: __ZNSt3__128__exception_guard_exceptionsINS_29_AllocatorDestroyRangeReverseINS_9allocatorINS_7__stateIcEEEENS_16reverse_iteratorIPS4_EEEEED2B7v160006Ev, symObjAddr: 0xDBA0, symBinAddr: 0x10000F7E0, symSize: 0x40 }
  - { offsetInCU: 0x37C12, offset: 0x37C12, size: 0x8, addend: 0x0, symName: __ZNKSt3__129_AllocatorDestroyRangeReverseINS_9allocatorINS_7__stateIcEEEENS_16reverse_iteratorIPS3_EEEclB7v160006Ev, symObjAddr: 0xDBE0, symBinAddr: 0x10000F820, symSize: 0xF0 }
  - { offsetInCU: 0x37C39, offset: 0x37C39, size: 0x8, addend: 0x0, symName: __ZNSt3__116reverse_iteratorINS0_IPNS_7__stateIcEEEEEC1B7v160006ES4_, symObjAddr: 0xDD40, symBinAddr: 0x10000F980, symSize: 0x30 }
  - { offsetInCU: 0x37C71, offset: 0x37C71, size: 0x8, addend: 0x0, symName: __ZNSt3__116allocator_traitsINS_9allocatorINS_7__stateIcEEEEE7destroyB7v160006IS3_vEEvRS4_PT_, symObjAddr: 0xDDC0, symBinAddr: 0x10000FA00, symSize: 0x30 }
  - { offsetInCU: 0x37CAE, offset: 0x37CAE, size: 0x8, addend: 0x0, symName: __ZNSt3__116reverse_iteratorINS0_IPNS_7__stateIcEEEEEppB7v160006Ev, symObjAddr: 0xDE10, symBinAddr: 0x10000FA50, symSize: 0x30 }
  - { offsetInCU: 0x37CD4, offset: 0x37CD4, size: 0x8, addend: 0x0, symName: __ZNKSt3__116reverse_iteratorINS0_IPNS_7__stateIcEEEEE4baseB7v160006Ev, symObjAddr: 0xDE40, symBinAddr: 0x10000FA80, symSize: 0x20 }
  - { offsetInCU: 0x37CFA, offset: 0x37CFA, size: 0x8, addend: 0x0, symName: __ZNSt3__19allocatorINS_7__stateIcEEE7destroyB7v160006EPS2_, symObjAddr: 0xDE60, symBinAddr: 0x10000FAA0, symSize: 0x20 }
  - { offsetInCU: 0x37D34, offset: 0x37D34, size: 0x8, addend: 0x0, symName: __ZNSt3__119__to_address_helperINS_16reverse_iteratorINS1_IPNS_7__stateIcEEEEEEvE6__callB7v160006ERKS6_, symObjAddr: 0xDE80, symBinAddr: 0x10000FAC0, symSize: 0x40 }
  - { offsetInCU: 0x37D57, offset: 0x37D57, size: 0x8, addend: 0x0, symName: __ZNKSt3__116reverse_iteratorINS0_IPNS_7__stateIcEEEEEptB7v160006Ev, symObjAddr: 0xDEC0, symBinAddr: 0x10000FB00, symSize: 0x20 }
  - { offsetInCU: 0x37D7D, offset: 0x37D7D, size: 0x8, addend: 0x0, symName: __ZNKSt3__116reverse_iteratorINS0_IPNS_7__stateIcEEEEEdeB7v160006Ev, symObjAddr: 0xDEE0, symBinAddr: 0x10000FB20, symSize: 0x40 }
  - { offsetInCU: 0x37DB1, offset: 0x37DB1, size: 0x8, addend: 0x0, symName: __ZNSt3__116reverse_iteratorIPNS_7__stateIcEEEmmB7v160006Ev, symObjAddr: 0xDF20, symBinAddr: 0x10000FB60, symSize: 0x20 }
  - { offsetInCU: 0x37DD7, offset: 0x37DD7, size: 0x8, addend: 0x0, symName: __ZNSt3__116reverse_iteratorINS0_IPNS_7__stateIcEEEEEC2B7v160006ES4_, symObjAddr: 0xDF40, symBinAddr: 0x10000FB80, symSize: 0x40 }
  - { offsetInCU: 0x37E0F, offset: 0x37E0F, size: 0x8, addend: 0x0, symName: __ZNSt3__116reverse_iteratorIPNS_7__stateIcEEEC2B7v160006ES3_, symObjAddr: 0xDF80, symBinAddr: 0x10000FBC0, symSize: 0x30 }
  - { offsetInCU: 0x37E47, offset: 0x37E47, size: 0x8, addend: 0x0, symName: __ZNSt3__114__split_bufferINS_7__stateIcEERNS_9allocatorIS2_EEED2Ev, symObjAddr: 0xDFB0, symBinAddr: 0x10000FBF0, symSize: 0x70 }
  - { offsetInCU: 0x37E73, offset: 0x37E73, size: 0x8, addend: 0x0, symName: __ZNSt3__114__split_bufferINS_7__stateIcEERNS_9allocatorIS2_EEE5clearB7v160006Ev, symObjAddr: 0xE020, symBinAddr: 0x10000FC60, symSize: 0x20 }
  - { offsetInCU: 0x37E99, offset: 0x37E99, size: 0x8, addend: 0x0, symName: __ZNSt3__116allocator_traitsINS_9allocatorINS_7__stateIcEEEEE10deallocateB7v160006ERS4_PS3_m, symObjAddr: 0xE040, symBinAddr: 0x10000FC80, symSize: 0x30 }
  - { offsetInCU: 0x37EDB, offset: 0x37EDB, size: 0x8, addend: 0x0, symName: __ZNKSt3__114__split_bufferINS_7__stateIcEERNS_9allocatorIS2_EEE8capacityB7v160006Ev, symObjAddr: 0xE070, symBinAddr: 0x10000FCB0, symSize: 0x40 }
  - { offsetInCU: 0x37F01, offset: 0x37F01, size: 0x8, addend: 0x0, symName: __ZNSt3__114__split_bufferINS_7__stateIcEERNS_9allocatorIS2_EEE17__destruct_at_endB7v160006EPS2_, symObjAddr: 0xE0B0, symBinAddr: 0x10000FCF0, symSize: 0x30 }
  - { offsetInCU: 0x37F35, offset: 0x37F35, size: 0x8, addend: 0x0, symName: __ZNSt3__114__split_bufferINS_7__stateIcEERNS_9allocatorIS2_EEE17__destruct_at_endB7v160006EPS2_NS_17integral_constantIbLb0EEE, symObjAddr: 0xE0E0, symBinAddr: 0x10000FD20, symSize: 0x80 }
  - { offsetInCU: 0x37F75, offset: 0x37F75, size: 0x8, addend: 0x0, symName: __ZNSt3__19allocatorINS_7__stateIcEEE10deallocateB7v160006EPS2_m, symObjAddr: 0xE160, symBinAddr: 0x10000FDA0, symSize: 0x50 }
  - { offsetInCU: 0x37FB7, offset: 0x37FB7, size: 0x8, addend: 0x0, symName: __ZNKSt3__114__split_bufferINS_7__stateIcEERNS_9allocatorIS2_EEE9__end_capB7v160006Ev, symObjAddr: 0xE1B0, symBinAddr: 0x10000FDF0, symSize: 0x20 }
  - { offsetInCU: 0x37FDD, offset: 0x37FDD, size: 0x8, addend: 0x0, symName: __ZNKSt3__117__compressed_pairIPNS_7__stateIcEERNS_9allocatorIS2_EEE5firstB7v160006Ev, symObjAddr: 0xE1D0, symBinAddr: 0x10000FE10, symSize: 0x20 }
  - { offsetInCU: 0x38003, offset: 0x38003, size: 0x8, addend: 0x0, symName: __ZNSt3__17__stateIcEC2B7v160006Ev, symObjAddr: 0xE1F0, symBinAddr: 0x10000FE30, symSize: 0x70 }
  - { offsetInCU: 0x3802D, offset: 0x3802D, size: 0x8, addend: 0x0, symName: __ZNSt3__16vectorINS_9sub_matchIPKcEENS_9allocatorIS4_EEEC1B7v160006Ev, symObjAddr: 0xE260, symBinAddr: 0x10000FEA0, symSize: 0x20 }
  - { offsetInCU: 0x38057, offset: 0x38057, size: 0x8, addend: 0x0, symName: __ZNSt3__16vectorINS_4pairImPKcEENS_9allocatorIS4_EEEC1B7v160006Ev, symObjAddr: 0xE280, symBinAddr: 0x10000FEC0, symSize: 0x20 }
  - { offsetInCU: 0x38081, offset: 0x38081, size: 0x8, addend: 0x0, symName: __ZNSt3__16vectorINS_9sub_matchIPKcEENS_9allocatorIS4_EEEC2B7v160006Ev, symObjAddr: 0xE2A0, symBinAddr: 0x10000FEE0, symSize: 0x60 }
  - { offsetInCU: 0x380AB, offset: 0x380AB, size: 0x8, addend: 0x0, symName: __ZNSt3__117__compressed_pairIPNS_9sub_matchIPKcEENS_9allocatorIS4_EEEC1B7v160006IDnNS_18__default_init_tagEEEOT_OT0_, symObjAddr: 0xE300, symBinAddr: 0x10000FF40, symSize: 0x30 }
  - { offsetInCU: 0x38103, offset: 0x38103, size: 0x8, addend: 0x0, symName: __ZNSt3__117__compressed_pairIPNS_9sub_matchIPKcEENS_9allocatorIS4_EEEC2B7v160006IDnNS_18__default_init_tagEEEOT_OT0_, symObjAddr: 0xE330, symBinAddr: 0x10000FF70, symSize: 0x40 }
  - { offsetInCU: 0x3815B, offset: 0x3815B, size: 0x8, addend: 0x0, symName: __ZNSt3__122__compressed_pair_elemINS_9allocatorINS_9sub_matchIPKcEEEELi1ELb1EEC2B7v160006ENS_18__default_init_tagE, symObjAddr: 0xE370, symBinAddr: 0x10000FFB0, symSize: 0x20 }
  - { offsetInCU: 0x3818F, offset: 0x3818F, size: 0x8, addend: 0x0, symName: __ZNSt3__16vectorINS_4pairImPKcEENS_9allocatorIS4_EEEC2B7v160006Ev, symObjAddr: 0xE390, symBinAddr: 0x10000FFD0, symSize: 0x60 }
  - { offsetInCU: 0x381B9, offset: 0x381B9, size: 0x8, addend: 0x0, symName: __ZNSt3__117__compressed_pairIPNS_4pairImPKcEENS_9allocatorIS4_EEEC1B7v160006IDnNS_18__default_init_tagEEEOT_OT0_, symObjAddr: 0xE3F0, symBinAddr: 0x100010030, symSize: 0x30 }
  - { offsetInCU: 0x38211, offset: 0x38211, size: 0x8, addend: 0x0, symName: __ZNSt3__117__compressed_pairIPNS_4pairImPKcEENS_9allocatorIS4_EEEC2B7v160006IDnNS_18__default_init_tagEEEOT_OT0_, symObjAddr: 0xE420, symBinAddr: 0x100010060, symSize: 0x40 }
  - { offsetInCU: 0x38269, offset: 0x38269, size: 0x8, addend: 0x0, symName: __ZNSt3__122__compressed_pair_elemINS_9allocatorINS_4pairImPKcEEEELi1ELb1EEC2B7v160006ENS_18__default_init_tagE, symObjAddr: 0xE460, symBinAddr: 0x1000100A0, symSize: 0x20 }
  - { offsetInCU: 0x3829D, offset: 0x3829D, size: 0x8, addend: 0x0, symName: __ZNSt3__19allocatorINS_4pairImPKcEEEC2B7v160006Ev, symObjAddr: 0xE480, symBinAddr: 0x1000100C0, symSize: 0x20 }
  - { offsetInCU: 0x382C7, offset: 0x382C7, size: 0x8, addend: 0x0, symName: __ZNSt3__116__non_trivial_ifILb1ENS_9allocatorINS_4pairImPKcEEEEEC2B7v160006Ev, symObjAddr: 0xE4A0, symBinAddr: 0x1000100E0, symSize: 0x10 }
  - { offsetInCU: 0x382F1, offset: 0x382F1, size: 0x8, addend: 0x0, symName: __ZNSt3__17__stateIcED2Ev, symObjAddr: 0xE4B0, symBinAddr: 0x1000100F0, symSize: 0x30 }
  - { offsetInCU: 0x3831E, offset: 0x3831E, size: 0x8, addend: 0x0, symName: __ZNSt3__16vectorINS_4pairImPKcEENS_9allocatorIS4_EEED1B7v160006Ev, symObjAddr: 0xE4E0, symBinAddr: 0x100010120, symSize: 0x20 }
  - { offsetInCU: 0x38348, offset: 0x38348, size: 0x8, addend: 0x0, symName: __ZNSt3__16vectorINS_4pairImPKcEENS_9allocatorIS4_EEED2B7v160006Ev, symObjAddr: 0xE500, symBinAddr: 0x100010140, symSize: 0x40 }
  - { offsetInCU: 0x38372, offset: 0x38372, size: 0x8, addend: 0x0, symName: __ZNSt3__16vectorINS_4pairImPKcEENS_9allocatorIS4_EEE16__destroy_vectorC1ERS7_, symObjAddr: 0xE540, symBinAddr: 0x100010180, symSize: 0x30 }
  - { offsetInCU: 0x383AB, offset: 0x383AB, size: 0x8, addend: 0x0, symName: __ZNSt3__16vectorINS_4pairImPKcEENS_9allocatorIS4_EEE16__destroy_vectorclB7v160006Ev, symObjAddr: 0xE570, symBinAddr: 0x1000101B0, symSize: 0x90 }
  - { offsetInCU: 0x383D1, offset: 0x383D1, size: 0x8, addend: 0x0, symName: __ZNSt3__16vectorINS_4pairImPKcEENS_9allocatorIS4_EEE16__destroy_vectorC2ERS7_, symObjAddr: 0xE600, symBinAddr: 0x100010240, symSize: 0x20 }
  - { offsetInCU: 0x3840A, offset: 0x3840A, size: 0x8, addend: 0x0, symName: __ZNKSt3__16vectorINS_4pairImPKcEENS_9allocatorIS4_EEE17__annotate_deleteB7v160006Ev, symObjAddr: 0xE620, symBinAddr: 0x100010260, symSize: 0xB0 }
  - { offsetInCU: 0x38430, offset: 0x38430, size: 0x8, addend: 0x0, symName: __ZNSt3__16vectorINS_4pairImPKcEENS_9allocatorIS4_EEE7__clearB7v160006Ev, symObjAddr: 0xE6E0, symBinAddr: 0x100010320, symSize: 0x20 }
  - { offsetInCU: 0x38456, offset: 0x38456, size: 0x8, addend: 0x0, symName: __ZNSt3__116allocator_traitsINS_9allocatorINS_4pairImPKcEEEEE10deallocateB7v160006ERS6_PS5_m, symObjAddr: 0xE700, symBinAddr: 0x100010340, symSize: 0x30 }
  - { offsetInCU: 0x38498, offset: 0x38498, size: 0x8, addend: 0x0, symName: __ZNKSt3__16vectorINS_4pairImPKcEENS_9allocatorIS4_EEE8capacityB7v160006Ev, symObjAddr: 0xE730, symBinAddr: 0x100010370, symSize: 0x30 }
  - { offsetInCU: 0x384BE, offset: 0x384BE, size: 0x8, addend: 0x0, symName: __ZNKSt3__16vectorINS_4pairImPKcEENS_9allocatorIS4_EEE31__annotate_contiguous_containerB7v160006EPKvS9_S9_S9_, symObjAddr: 0xE760, symBinAddr: 0x1000103A0, symSize: 0x20 }
  - { offsetInCU: 0x38510, offset: 0x38510, size: 0x8, addend: 0x0, symName: __ZNKSt3__16vectorINS_4pairImPKcEENS_9allocatorIS4_EEE4dataB7v160006Ev, symObjAddr: 0xE780, symBinAddr: 0x1000103C0, symSize: 0x20 }
  - { offsetInCU: 0x38536, offset: 0x38536, size: 0x8, addend: 0x0, symName: __ZNKSt3__16vectorINS_4pairImPKcEENS_9allocatorIS4_EEE4sizeB7v160006Ev, symObjAddr: 0xE7A0, symBinAddr: 0x1000103E0, symSize: 0x20 }
  - { offsetInCU: 0x3855C, offset: 0x3855C, size: 0x8, addend: 0x0, symName: __ZNSt3__16vectorINS_4pairImPKcEENS_9allocatorIS4_EEE22__base_destruct_at_endB7v160006EPS4_, symObjAddr: 0xE7D0, symBinAddr: 0x100010410, symSize: 0x80 }
  - { offsetInCU: 0x385A0, offset: 0x385A0, size: 0x8, addend: 0x0, symName: __ZNSt3__116allocator_traitsINS_9allocatorINS_4pairImPKcEEEEE7destroyB7v160006IS5_vEEvRS6_PT_, symObjAddr: 0xE850, symBinAddr: 0x100010490, symSize: 0x30 }
  - { offsetInCU: 0x385DD, offset: 0x385DD, size: 0x8, addend: 0x0, symName: __ZNSt3__19allocatorINS_4pairImPKcEEE7destroyB7v160006EPS4_, symObjAddr: 0xE880, symBinAddr: 0x1000104C0, symSize: 0x10 }
  - { offsetInCU: 0x38611, offset: 0x38611, size: 0x8, addend: 0x0, symName: __ZNSt3__19allocatorINS_4pairImPKcEEE10deallocateB7v160006EPS4_m, symObjAddr: 0xE890, symBinAddr: 0x1000104D0, symSize: 0x40 }
  - { offsetInCU: 0x38653, offset: 0x38653, size: 0x8, addend: 0x0, symName: __ZNKSt3__16vectorINS_4pairImPKcEENS_9allocatorIS4_EEE9__end_capB7v160006Ev, symObjAddr: 0xE8D0, symBinAddr: 0x100010510, symSize: 0x20 }
  - { offsetInCU: 0x38679, offset: 0x38679, size: 0x8, addend: 0x0, symName: __ZNKSt3__117__compressed_pairIPNS_4pairImPKcEENS_9allocatorIS4_EEE5firstB7v160006Ev, symObjAddr: 0xE8F0, symBinAddr: 0x100010530, symSize: 0x20 }
  - { offsetInCU: 0x3869F, offset: 0x3869F, size: 0x8, addend: 0x0, symName: __ZNKSt3__122__compressed_pair_elemIPNS_4pairImPKcEELi0ELb0EE5__getB7v160006Ev, symObjAddr: 0xE910, symBinAddr: 0x100010550, symSize: 0x10 }
  - { offsetInCU: 0x386C5, offset: 0x386C5, size: 0x8, addend: 0x0, symName: __ZNSt3__16vectorINS_9sub_matchIPKcEENS_9allocatorIS4_EEE8__appendEmRKS4_, symObjAddr: 0xE920, symBinAddr: 0x100010560, symSize: 0x110 }
  - { offsetInCU: 0x38730, offset: 0x38730, size: 0x8, addend: 0x0, symName: __ZNSt3__114__split_bufferINS_9sub_matchIPKcEERNS_9allocatorIS4_EEEC1EmmS7_, symObjAddr: 0xEA30, symBinAddr: 0x100010670, symSize: 0x40 }
  - { offsetInCU: 0x38786, offset: 0x38786, size: 0x8, addend: 0x0, symName: __ZNSt3__114__split_bufferINS_9sub_matchIPKcEERNS_9allocatorIS4_EEE18__construct_at_endEmRKS4_, symObjAddr: 0xEA70, symBinAddr: 0x1000106B0, symSize: 0xB0 }
  - { offsetInCU: 0x387D7, offset: 0x387D7, size: 0x8, addend: 0x0, symName: __ZNSt3__114__split_bufferINS_9sub_matchIPKcEERNS_9allocatorIS4_EEED1Ev, symObjAddr: 0xEC50, symBinAddr: 0x100010890, symSize: 0x20 }
  - { offsetInCU: 0x38803, offset: 0x38803, size: 0x8, addend: 0x0, symName: __ZNSt3__114__split_bufferINS_9sub_matchIPKcEERNS_9allocatorIS4_EEEC2EmmS7_, symObjAddr: 0xEC70, symBinAddr: 0x1000108B0, symSize: 0xC0 }
  - { offsetInCU: 0x38876, offset: 0x38876, size: 0x8, addend: 0x0, symName: __ZNSt3__117__compressed_pairIPNS_9sub_matchIPKcEERNS_9allocatorIS4_EEEC1B7v160006IDnS8_EEOT_OT0_, symObjAddr: 0xED30, symBinAddr: 0x100010970, symSize: 0x30 }
  - { offsetInCU: 0x388CE, offset: 0x388CE, size: 0x8, addend: 0x0, symName: __ZNSt3__114__split_bufferINS_9sub_matchIPKcEERNS_9allocatorIS4_EEE7__allocB7v160006Ev, symObjAddr: 0xED60, symBinAddr: 0x1000109A0, symSize: 0x20 }
  - { offsetInCU: 0x388F4, offset: 0x388F4, size: 0x8, addend: 0x0, symName: __ZNSt3__114__split_bufferINS_9sub_matchIPKcEERNS_9allocatorIS4_EEE9__end_capB7v160006Ev, symObjAddr: 0xED80, symBinAddr: 0x1000109C0, symSize: 0x20 }
  - { offsetInCU: 0x3891A, offset: 0x3891A, size: 0x8, addend: 0x0, symName: __ZNSt3__117__compressed_pairIPNS_9sub_matchIPKcEERNS_9allocatorIS4_EEEC2B7v160006IDnS8_EEOT_OT0_, symObjAddr: 0xEDA0, symBinAddr: 0x1000109E0, symSize: 0x40 }
  - { offsetInCU: 0x38972, offset: 0x38972, size: 0x8, addend: 0x0, symName: __ZNSt3__122__compressed_pair_elemIRNS_9allocatorINS_9sub_matchIPKcEEEELi1ELb0EEC2B7v160006IS7_vEEOT_, symObjAddr: 0xEDE0, symBinAddr: 0x100010A20, symSize: 0x20 }
  - { offsetInCU: 0x389B4, offset: 0x389B4, size: 0x8, addend: 0x0, symName: __ZNSt3__117__compressed_pairIPNS_9sub_matchIPKcEERNS_9allocatorIS4_EEE6secondB7v160006Ev, symObjAddr: 0xEE00, symBinAddr: 0x100010A40, symSize: 0x20 }
  - { offsetInCU: 0x389DA, offset: 0x389DA, size: 0x8, addend: 0x0, symName: __ZNSt3__122__compressed_pair_elemIRNS_9allocatorINS_9sub_matchIPKcEEEELi1ELb0EE5__getB7v160006Ev, symObjAddr: 0xEE20, symBinAddr: 0x100010A60, symSize: 0x20 }
  - { offsetInCU: 0x38A00, offset: 0x38A00, size: 0x8, addend: 0x0, symName: __ZNSt3__117__compressed_pairIPNS_9sub_matchIPKcEERNS_9allocatorIS4_EEE5firstB7v160006Ev, symObjAddr: 0xEE40, symBinAddr: 0x100010A80, symSize: 0x20 }
  - { offsetInCU: 0x38A30, offset: 0x38A30, size: 0x8, addend: 0x0, symName: __ZNSt3__114__split_bufferINS_9sub_matchIPKcEERNS_9allocatorIS4_EEE21_ConstructTransactionC1B7v160006EPPS4_m, symObjAddr: 0xEE60, symBinAddr: 0x100010AA0, symSize: 0x30 }
  - { offsetInCU: 0x38A76, offset: 0x38A76, size: 0x8, addend: 0x0, symName: __ZNSt3__114__split_bufferINS_9sub_matchIPKcEERNS_9allocatorIS4_EEE21_ConstructTransactionD1B7v160006Ev, symObjAddr: 0xEE90, symBinAddr: 0x100010AD0, symSize: 0x20 }
  - { offsetInCU: 0x38AA0, offset: 0x38AA0, size: 0x8, addend: 0x0, symName: __ZNSt3__114__split_bufferINS_9sub_matchIPKcEERNS_9allocatorIS4_EEE21_ConstructTransactionC2B7v160006EPPS4_m, symObjAddr: 0xEEB0, symBinAddr: 0x100010AF0, symSize: 0x40 }
  - { offsetInCU: 0x38AE6, offset: 0x38AE6, size: 0x8, addend: 0x0, symName: __ZNSt3__114__split_bufferINS_9sub_matchIPKcEERNS_9allocatorIS4_EEE21_ConstructTransactionD2B7v160006Ev, symObjAddr: 0xEEF0, symBinAddr: 0x100010B30, symSize: 0x20 }
  - { offsetInCU: 0x38B10, offset: 0x38B10, size: 0x8, addend: 0x0, symName: __ZNSt3__116reverse_iteratorIPNS_9sub_matchIPKcEEEC1B7v160006ES5_, symObjAddr: 0xF090, symBinAddr: 0x100010CD0, symSize: 0x30 }
  - { offsetInCU: 0x38B48, offset: 0x38B48, size: 0x8, addend: 0x0, symName: __ZNKSt3__116reverse_iteratorIPNS_9sub_matchIPKcEEE4baseB7v160006Ev, symObjAddr: 0xF0C0, symBinAddr: 0x100010D00, symSize: 0x20 }
  - { offsetInCU: 0x38B6E, offset: 0x38B6E, size: 0x8, addend: 0x0, symName: __ZNSt3__129_AllocatorDestroyRangeReverseINS_9allocatorINS_9sub_matchIPKcEEEENS_16reverse_iteratorIPS5_EEEC1B7v160006ERS6_RS9_SC_, symObjAddr: 0xF180, symBinAddr: 0x100010DC0, symSize: 0x40 }
  - { offsetInCU: 0x38BCB, offset: 0x38BCB, size: 0x8, addend: 0x0, symName: __ZNSt3__116allocator_traitsINS_9allocatorINS_9sub_matchIPKcEEEEE9constructB7v160006IS5_JS5_EvEEvRS6_PT_DpOT0_, symObjAddr: 0xF200, symBinAddr: 0x100010E40, symSize: 0x30 }
  - { offsetInCU: 0x38C22, offset: 0x38C22, size: 0x8, addend: 0x0, symName: __ZNKSt3__116reverse_iteratorIPNS_9sub_matchIPKcEEEdeB7v160006Ev, symObjAddr: 0xF250, symBinAddr: 0x100010E90, symSize: 0x30 }
  - { offsetInCU: 0x38C56, offset: 0x38C56, size: 0x8, addend: 0x0, symName: __ZNSt3__116reverse_iteratorIPNS_9sub_matchIPKcEEEppB7v160006Ev, symObjAddr: 0xF280, symBinAddr: 0x100010EC0, symSize: 0x20 }
  - { offsetInCU: 0x38C7C, offset: 0x38C7C, size: 0x8, addend: 0x0, symName: __ZNSt3__128__exception_guard_exceptionsINS_29_AllocatorDestroyRangeReverseINS_9allocatorINS_9sub_matchIPKcEEEENS_16reverse_iteratorIPS6_EEEEE10__completeB7v160006Ev, symObjAddr: 0xF2A0, symBinAddr: 0x100010EE0, symSize: 0x20 }
  - { offsetInCU: 0x38CA2, offset: 0x38CA2, size: 0x8, addend: 0x0, symName: __ZNSt3__128__exception_guard_exceptionsINS_29_AllocatorDestroyRangeReverseINS_9allocatorINS_9sub_matchIPKcEEEENS_16reverse_iteratorIPS6_EEEEED1B7v160006Ev, symObjAddr: 0xF2C0, symBinAddr: 0x100010F00, symSize: 0x20 }
  - { offsetInCU: 0x38CCC, offset: 0x38CCC, size: 0x8, addend: 0x0, symName: __ZNSt3__128__exception_guard_exceptionsINS_29_AllocatorDestroyRangeReverseINS_9allocatorINS_9sub_matchIPKcEEEENS_16reverse_iteratorIPS6_EEEEEC1B7v160006ESB_, symObjAddr: 0xF2E0, symBinAddr: 0x100010F20, symSize: 0x40 }
  - { offsetInCU: 0x38D04, offset: 0x38D04, size: 0x8, addend: 0x0, symName: __ZNSt3__128__exception_guard_exceptionsINS_29_AllocatorDestroyRangeReverseINS_9allocatorINS_9sub_matchIPKcEEEENS_16reverse_iteratorIPS6_EEEEEC2B7v160006ESB_, symObjAddr: 0xF320, symBinAddr: 0x100010F60, symSize: 0x30 }
  - { offsetInCU: 0x38D3C, offset: 0x38D3C, size: 0x8, addend: 0x0, symName: __ZNSt3__129_AllocatorDestroyRangeReverseINS_9allocatorINS_9sub_matchIPKcEEEENS_16reverse_iteratorIPS5_EEEC2B7v160006ERS6_RS9_SC_, symObjAddr: 0xF350, symBinAddr: 0x100010F90, symSize: 0x40 }
  - { offsetInCU: 0x38D93, offset: 0x38D93, size: 0x8, addend: 0x0, symName: __ZNSt3__19allocatorINS_9sub_matchIPKcEEE9constructB7v160006IS4_JS4_EEEvPT_DpOT0_, symObjAddr: 0xF390, symBinAddr: 0x100010FD0, symSize: 0x30 }
  - { offsetInCU: 0x38DEF, offset: 0x38DEF, size: 0x8, addend: 0x0, symName: __ZNSt3__119__to_address_helperINS_16reverse_iteratorIPNS_9sub_matchIPKcEEEEvE6__callB7v160006ERKS7_, symObjAddr: 0xF3C0, symBinAddr: 0x100011000, symSize: 0x40 }
  - { offsetInCU: 0x38E12, offset: 0x38E12, size: 0x8, addend: 0x0, symName: __ZNKSt3__116reverse_iteratorIPNS_9sub_matchIPKcEEEptB7v160006Ev, symObjAddr: 0xF400, symBinAddr: 0x100011040, symSize: 0x20 }
  - { offsetInCU: 0x38E38, offset: 0x38E38, size: 0x8, addend: 0x0, symName: __ZNSt3__128__exception_guard_exceptionsINS_29_AllocatorDestroyRangeReverseINS_9allocatorINS_9sub_matchIPKcEEEENS_16reverse_iteratorIPS6_EEEEED2B7v160006Ev, symObjAddr: 0xF420, symBinAddr: 0x100011060, symSize: 0x40 }
  - { offsetInCU: 0x38E62, offset: 0x38E62, size: 0x8, addend: 0x0, symName: __ZNKSt3__129_AllocatorDestroyRangeReverseINS_9allocatorINS_9sub_matchIPKcEEEENS_16reverse_iteratorIPS5_EEEclB7v160006Ev, symObjAddr: 0xF460, symBinAddr: 0x1000110A0, symSize: 0xF0 }
  - { offsetInCU: 0x38E89, offset: 0x38E89, size: 0x8, addend: 0x0, symName: __ZNSt3__116reverse_iteratorINS0_IPNS_9sub_matchIPKcEEEEEC1B7v160006ES6_, symObjAddr: 0xF5C0, symBinAddr: 0x100011200, symSize: 0x30 }
  - { offsetInCU: 0x38EC1, offset: 0x38EC1, size: 0x8, addend: 0x0, symName: __ZNSt3__116reverse_iteratorINS0_IPNS_9sub_matchIPKcEEEEEppB7v160006Ev, symObjAddr: 0xF660, symBinAddr: 0x1000112A0, symSize: 0x30 }
  - { offsetInCU: 0x38EE7, offset: 0x38EE7, size: 0x8, addend: 0x0, symName: __ZNKSt3__116reverse_iteratorINS0_IPNS_9sub_matchIPKcEEEEE4baseB7v160006Ev, symObjAddr: 0xF690, symBinAddr: 0x1000112D0, symSize: 0x20 }
  - { offsetInCU: 0x38F13, offset: 0x38F13, size: 0x8, addend: 0x0, symName: __ZNSt3__119__to_address_helperINS_16reverse_iteratorINS1_IPNS_9sub_matchIPKcEEEEEEvE6__callB7v160006ERKS8_, symObjAddr: 0xF6B0, symBinAddr: 0x1000112F0, symSize: 0x40 }
  - { offsetInCU: 0x38F36, offset: 0x38F36, size: 0x8, addend: 0x0, symName: __ZNKSt3__116reverse_iteratorINS0_IPNS_9sub_matchIPKcEEEEEptB7v160006Ev, symObjAddr: 0xF6F0, symBinAddr: 0x100011330, symSize: 0x20 }
  - { offsetInCU: 0x38F5C, offset: 0x38F5C, size: 0x8, addend: 0x0, symName: __ZNKSt3__116reverse_iteratorINS0_IPNS_9sub_matchIPKcEEEEEdeB7v160006Ev, symObjAddr: 0xF710, symBinAddr: 0x100011350, symSize: 0x40 }
  - { offsetInCU: 0x38F90, offset: 0x38F90, size: 0x8, addend: 0x0, symName: __ZNSt3__116reverse_iteratorIPNS_9sub_matchIPKcEEEmmB7v160006Ev, symObjAddr: 0xF750, symBinAddr: 0x100011390, symSize: 0x20 }
  - { offsetInCU: 0x38FB6, offset: 0x38FB6, size: 0x8, addend: 0x0, symName: __ZNSt3__116reverse_iteratorINS0_IPNS_9sub_matchIPKcEEEEEC2B7v160006ES6_, symObjAddr: 0xF770, symBinAddr: 0x1000113B0, symSize: 0x40 }
  - { offsetInCU: 0x38FEE, offset: 0x38FEE, size: 0x8, addend: 0x0, symName: __ZNSt3__116reverse_iteratorIPNS_9sub_matchIPKcEEEC2B7v160006ES5_, symObjAddr: 0xF7B0, symBinAddr: 0x1000113F0, symSize: 0x30 }
  - { offsetInCU: 0x39026, offset: 0x39026, size: 0x8, addend: 0x0, symName: __ZNSt3__114__split_bufferINS_9sub_matchIPKcEERNS_9allocatorIS4_EEED2Ev, symObjAddr: 0xF7E0, symBinAddr: 0x100011420, symSize: 0x70 }
  - { offsetInCU: 0x39052, offset: 0x39052, size: 0x8, addend: 0x0, symName: __ZNSt3__114__split_bufferINS_9sub_matchIPKcEERNS_9allocatorIS4_EEE5clearB7v160006Ev, symObjAddr: 0xF850, symBinAddr: 0x100011490, symSize: 0x20 }
  - { offsetInCU: 0x39078, offset: 0x39078, size: 0x8, addend: 0x0, symName: __ZNKSt3__114__split_bufferINS_9sub_matchIPKcEERNS_9allocatorIS4_EEE8capacityB7v160006Ev, symObjAddr: 0xF870, symBinAddr: 0x1000114B0, symSize: 0x40 }
  - { offsetInCU: 0x3909E, offset: 0x3909E, size: 0x8, addend: 0x0, symName: __ZNSt3__114__split_bufferINS_9sub_matchIPKcEERNS_9allocatorIS4_EEE17__destruct_at_endB7v160006EPS4_, symObjAddr: 0xF8B0, symBinAddr: 0x1000114F0, symSize: 0x30 }
  - { offsetInCU: 0x390D2, offset: 0x390D2, size: 0x8, addend: 0x0, symName: __ZNSt3__114__split_bufferINS_9sub_matchIPKcEERNS_9allocatorIS4_EEE17__destruct_at_endB7v160006EPS4_NS_17integral_constantIbLb0EEE, symObjAddr: 0xF8E0, symBinAddr: 0x100011520, symSize: 0x80 }
  - { offsetInCU: 0x39112, offset: 0x39112, size: 0x8, addend: 0x0, symName: __ZNKSt3__114__split_bufferINS_9sub_matchIPKcEERNS_9allocatorIS4_EEE9__end_capB7v160006Ev, symObjAddr: 0xF960, symBinAddr: 0x1000115A0, symSize: 0x20 }
  - { offsetInCU: 0x39138, offset: 0x39138, size: 0x8, addend: 0x0, symName: __ZNKSt3__117__compressed_pairIPNS_9sub_matchIPKcEERNS_9allocatorIS4_EEE5firstB7v160006Ev, symObjAddr: 0xF980, symBinAddr: 0x1000115C0, symSize: 0x20 }
  - { offsetInCU: 0x3915E, offset: 0x3915E, size: 0x8, addend: 0x0, symName: __ZNSt3__16vectorINS_4pairImPKcEENS_9allocatorIS4_EEE8__appendEm, symObjAddr: 0xF9A0, symBinAddr: 0x1000115E0, symSize: 0x100 }
  - { offsetInCU: 0x391B9, offset: 0x391B9, size: 0x8, addend: 0x0, symName: __ZNSt3__16vectorINS_4pairImPKcEENS_9allocatorIS4_EEE17__destruct_at_endB7v160006EPS4_, symObjAddr: 0xFAA0, symBinAddr: 0x1000116E0, symSize: 0x60 }
  - { offsetInCU: 0x391FD, offset: 0x391FD, size: 0x8, addend: 0x0, symName: __ZNSt3__16vectorINS_4pairImPKcEENS_9allocatorIS4_EEE18__construct_at_endEm, symObjAddr: 0xFB00, symBinAddr: 0x100011740, symSize: 0xC0 }
  - { offsetInCU: 0x3926F, offset: 0x3926F, size: 0x8, addend: 0x0, symName: __ZNKSt3__16vectorINS_4pairImPKcEENS_9allocatorIS4_EEE11__recommendB7v160006Em, symObjAddr: 0xFBC0, symBinAddr: 0x100011800, symSize: 0xA0 }
  - { offsetInCU: 0x392C4, offset: 0x392C4, size: 0x8, addend: 0x0, symName: __ZNSt3__114__split_bufferINS_4pairImPKcEERNS_9allocatorIS4_EEEC1EmmS7_, symObjAddr: 0xFC60, symBinAddr: 0x1000118A0, symSize: 0x40 }
  - { offsetInCU: 0x3931A, offset: 0x3931A, size: 0x8, addend: 0x0, symName: __ZNSt3__114__split_bufferINS_4pairImPKcEERNS_9allocatorIS4_EEE18__construct_at_endEm, symObjAddr: 0xFCA0, symBinAddr: 0x1000118E0, symSize: 0xB0 }
  - { offsetInCU: 0x3935D, offset: 0x3935D, size: 0x8, addend: 0x0, symName: __ZNSt3__114__split_bufferINS_4pairImPKcEERNS_9allocatorIS4_EEED1Ev, symObjAddr: 0xFE80, symBinAddr: 0x100011AC0, symSize: 0x20 }
  - { offsetInCU: 0x393A4, offset: 0x393A4, size: 0x8, addend: 0x0, symName: __ZNSt3__16vectorINS_4pairImPKcEENS_9allocatorIS4_EEE21_ConstructTransactionC1B7v160006ERS7_m, symObjAddr: 0xFEA0, symBinAddr: 0x100011AE0, symSize: 0x30 }
  - { offsetInCU: 0x393EC, offset: 0x393EC, size: 0x8, addend: 0x0, symName: __ZNSt3__116allocator_traitsINS_9allocatorINS_4pairImPKcEEEEE9constructB7v160006IS5_JEvEEvRS6_PT_DpOT0_, symObjAddr: 0xFED0, symBinAddr: 0x100011B10, symSize: 0x30 }
  - { offsetInCU: 0x3942E, offset: 0x3942E, size: 0x8, addend: 0x0, symName: __ZNSt3__16vectorINS_4pairImPKcEENS_9allocatorIS4_EEE21_ConstructTransactionD1B7v160006Ev, symObjAddr: 0xFF00, symBinAddr: 0x100011B40, symSize: 0x20 }
  - { offsetInCU: 0x39458, offset: 0x39458, size: 0x8, addend: 0x0, symName: __ZNSt3__16vectorINS_4pairImPKcEENS_9allocatorIS4_EEE21_ConstructTransactionC2B7v160006ERS7_m, symObjAddr: 0xFF20, symBinAddr: 0x100011B60, symSize: 0x40 }
  - { offsetInCU: 0x394A0, offset: 0x394A0, size: 0x8, addend: 0x0, symName: __ZNSt3__19allocatorINS_4pairImPKcEEE9constructB7v160006IS4_JEEEvPT_DpOT0_, symObjAddr: 0xFF60, symBinAddr: 0x100011BA0, symSize: 0x20 }
  - { offsetInCU: 0x394E2, offset: 0x394E2, size: 0x8, addend: 0x0, symName: __ZNSt3__14pairImPKcEC1B7v160006ILb1ELPv0EEEv, symObjAddr: 0xFF80, symBinAddr: 0x100011BC0, symSize: 0x20 }
  - { offsetInCU: 0x3951C, offset: 0x3951C, size: 0x8, addend: 0x0, symName: __ZNSt3__14pairImPKcEC2B7v160006ILb1ELPv0EEEv, symObjAddr: 0xFFA0, symBinAddr: 0x100011BE0, symSize: 0x20 }
  - { offsetInCU: 0x39556, offset: 0x39556, size: 0x8, addend: 0x0, symName: __ZNSt3__16vectorINS_4pairImPKcEENS_9allocatorIS4_EEE21_ConstructTransactionD2B7v160006Ev, symObjAddr: 0xFFC0, symBinAddr: 0x100011C00, symSize: 0x20 }
  - { offsetInCU: 0x39580, offset: 0x39580, size: 0x8, addend: 0x0, symName: __ZNKSt3__16vectorINS_4pairImPKcEENS_9allocatorIS4_EEE8max_sizeEv, symObjAddr: 0xFFE0, symBinAddr: 0x100011C20, symSize: 0x60 }
  - { offsetInCU: 0x395A8, offset: 0x395A8, size: 0x8, addend: 0x0, symName: __ZNKSt3__16vectorINS_4pairImPKcEENS_9allocatorIS4_EEE20__throw_length_errorB7v160006Ev, symObjAddr: 0x10040, symBinAddr: 0x100011C80, symSize: 0x20 }
  - { offsetInCU: 0x395D9, offset: 0x395D9, size: 0x8, addend: 0x0, symName: __ZNSt3__116allocator_traitsINS_9allocatorINS_4pairImPKcEEEEE8max_sizeB7v160006IS6_vEEmRKS6_, symObjAddr: 0x10060, symBinAddr: 0x100011CA0, symSize: 0x20 }
  - { offsetInCU: 0x39607, offset: 0x39607, size: 0x8, addend: 0x0, symName: __ZNKSt3__16vectorINS_4pairImPKcEENS_9allocatorIS4_EEE7__allocB7v160006Ev, symObjAddr: 0x10080, symBinAddr: 0x100011CC0, symSize: 0x20 }
  - { offsetInCU: 0x3962D, offset: 0x3962D, size: 0x8, addend: 0x0, symName: __ZNKSt3__19allocatorINS_4pairImPKcEEE8max_sizeB7v160006Ev, symObjAddr: 0x100A0, symBinAddr: 0x100011CE0, symSize: 0x20 }
  - { offsetInCU: 0x39653, offset: 0x39653, size: 0x8, addend: 0x0, symName: __ZNKSt3__117__compressed_pairIPNS_4pairImPKcEENS_9allocatorIS4_EEE6secondB7v160006Ev, symObjAddr: 0x100C0, symBinAddr: 0x100011D00, symSize: 0x20 }
  - { offsetInCU: 0x39679, offset: 0x39679, size: 0x8, addend: 0x0, symName: __ZNKSt3__122__compressed_pair_elemINS_9allocatorINS_4pairImPKcEEEELi1ELb1EE5__getB7v160006Ev, symObjAddr: 0x100E0, symBinAddr: 0x100011D20, symSize: 0x10 }
  - { offsetInCU: 0x3969F, offset: 0x3969F, size: 0x8, addend: 0x0, symName: __ZNSt3__114__split_bufferINS_4pairImPKcEERNS_9allocatorIS4_EEEC2EmmS7_, symObjAddr: 0x100F0, symBinAddr: 0x100011D30, symSize: 0xD0 }
  - { offsetInCU: 0x39712, offset: 0x39712, size: 0x8, addend: 0x0, symName: __ZNSt3__117__compressed_pairIPNS_4pairImPKcEERNS_9allocatorIS4_EEEC1B7v160006IDnS8_EEOT_OT0_, symObjAddr: 0x101C0, symBinAddr: 0x100011E00, symSize: 0x30 }
  - { offsetInCU: 0x3976A, offset: 0x3976A, size: 0x8, addend: 0x0, symName: __ZNSt3__114__split_bufferINS_4pairImPKcEERNS_9allocatorIS4_EEE7__allocB7v160006Ev, symObjAddr: 0x10230, symBinAddr: 0x100011E70, symSize: 0x20 }
  - { offsetInCU: 0x39790, offset: 0x39790, size: 0x8, addend: 0x0, symName: __ZNSt3__114__split_bufferINS_4pairImPKcEERNS_9allocatorIS4_EEE9__end_capB7v160006Ev, symObjAddr: 0x10250, symBinAddr: 0x100011E90, symSize: 0x20 }
  - { offsetInCU: 0x397B6, offset: 0x397B6, size: 0x8, addend: 0x0, symName: __ZNSt3__117__compressed_pairIPNS_4pairImPKcEERNS_9allocatorIS4_EEEC2B7v160006IDnS8_EEOT_OT0_, symObjAddr: 0x10270, symBinAddr: 0x100011EB0, symSize: 0x40 }
  - { offsetInCU: 0x3980E, offset: 0x3980E, size: 0x8, addend: 0x0, symName: __ZNSt3__122__compressed_pair_elemIRNS_9allocatorINS_4pairImPKcEEEELi1ELb0EEC2B7v160006IS7_vEEOT_, symObjAddr: 0x102B0, symBinAddr: 0x100011EF0, symSize: 0x20 }
  - { offsetInCU: 0x39850, offset: 0x39850, size: 0x8, addend: 0x0, symName: __ZNSt3__19allocatorINS_4pairImPKcEEE8allocateB7v160006Em, symObjAddr: 0x102D0, symBinAddr: 0x100011F10, symSize: 0x50 }
  - { offsetInCU: 0x39884, offset: 0x39884, size: 0x8, addend: 0x0, symName: __ZNSt3__117__compressed_pairIPNS_4pairImPKcEERNS_9allocatorIS4_EEE6secondB7v160006Ev, symObjAddr: 0x10320, symBinAddr: 0x100011F60, symSize: 0x20 }
  - { offsetInCU: 0x398AA, offset: 0x398AA, size: 0x8, addend: 0x0, symName: __ZNSt3__122__compressed_pair_elemIRNS_9allocatorINS_4pairImPKcEEEELi1ELb0EE5__getB7v160006Ev, symObjAddr: 0x10340, symBinAddr: 0x100011F80, symSize: 0x20 }
  - { offsetInCU: 0x398D0, offset: 0x398D0, size: 0x8, addend: 0x0, symName: __ZNSt3__117__compressed_pairIPNS_4pairImPKcEERNS_9allocatorIS4_EEE5firstB7v160006Ev, symObjAddr: 0x10360, symBinAddr: 0x100011FA0, symSize: 0x20 }
  - { offsetInCU: 0x39900, offset: 0x39900, size: 0x8, addend: 0x0, symName: __ZNSt3__114__split_bufferINS_4pairImPKcEERNS_9allocatorIS4_EEE21_ConstructTransactionC1B7v160006EPPS4_m, symObjAddr: 0x10380, symBinAddr: 0x100011FC0, symSize: 0x30 }
  - { offsetInCU: 0x39946, offset: 0x39946, size: 0x8, addend: 0x0, symName: __ZNSt3__114__split_bufferINS_4pairImPKcEERNS_9allocatorIS4_EEE21_ConstructTransactionD1B7v160006Ev, symObjAddr: 0x103B0, symBinAddr: 0x100011FF0, symSize: 0x20 }
  - { offsetInCU: 0x39970, offset: 0x39970, size: 0x8, addend: 0x0, symName: __ZNSt3__114__split_bufferINS_4pairImPKcEERNS_9allocatorIS4_EEE21_ConstructTransactionC2B7v160006EPPS4_m, symObjAddr: 0x103D0, symBinAddr: 0x100012010, symSize: 0x40 }
  - { offsetInCU: 0x399B6, offset: 0x399B6, size: 0x8, addend: 0x0, symName: __ZNSt3__114__split_bufferINS_4pairImPKcEERNS_9allocatorIS4_EEE21_ConstructTransactionD2B7v160006Ev, symObjAddr: 0x10410, symBinAddr: 0x100012050, symSize: 0x20 }
  - { offsetInCU: 0x399E0, offset: 0x399E0, size: 0x8, addend: 0x0, symName: __ZNSt3__116reverse_iteratorIPNS_4pairImPKcEEEC1B7v160006ES5_, symObjAddr: 0x105B0, symBinAddr: 0x1000121F0, symSize: 0x30 }
  - { offsetInCU: 0x39A18, offset: 0x39A18, size: 0x8, addend: 0x0, symName: __ZNKSt3__116reverse_iteratorIPNS_4pairImPKcEEE4baseB7v160006Ev, symObjAddr: 0x105E0, symBinAddr: 0x100012220, symSize: 0x20 }
  - { offsetInCU: 0x39A3E, offset: 0x39A3E, size: 0x8, addend: 0x0, symName: __ZNKSt3__16vectorINS_4pairImPKcEENS_9allocatorIS4_EEE14__annotate_newB7v160006Em, symObjAddr: 0x10640, symBinAddr: 0x100012280, symSize: 0xB0 }
  - { offsetInCU: 0x39A73, offset: 0x39A73, size: 0x8, addend: 0x0, symName: __ZNSt3__129_AllocatorDestroyRangeReverseINS_9allocatorINS_4pairImPKcEEEENS_16reverse_iteratorIPS5_EEEC1B7v160006ERS6_RS9_SC_, symObjAddr: 0x10760, symBinAddr: 0x1000123A0, symSize: 0x40 }
  - { offsetInCU: 0x39ACA, offset: 0x39ACA, size: 0x8, addend: 0x0, symName: __ZNSt3__116allocator_traitsINS_9allocatorINS_4pairImPKcEEEEE9constructB7v160006IS5_JS5_EvEEvRS6_PT_DpOT0_, symObjAddr: 0x107E0, symBinAddr: 0x100012420, symSize: 0x30 }
  - { offsetInCU: 0x39B21, offset: 0x39B21, size: 0x8, addend: 0x0, symName: __ZNKSt3__116reverse_iteratorIPNS_4pairImPKcEEEdeB7v160006Ev, symObjAddr: 0x10830, symBinAddr: 0x100012470, symSize: 0x30 }
  - { offsetInCU: 0x39B55, offset: 0x39B55, size: 0x8, addend: 0x0, symName: __ZNSt3__116reverse_iteratorIPNS_4pairImPKcEEEppB7v160006Ev, symObjAddr: 0x10860, symBinAddr: 0x1000124A0, symSize: 0x20 }
  - { offsetInCU: 0x39B7B, offset: 0x39B7B, size: 0x8, addend: 0x0, symName: __ZNSt3__128__exception_guard_exceptionsINS_29_AllocatorDestroyRangeReverseINS_9allocatorINS_4pairImPKcEEEENS_16reverse_iteratorIPS6_EEEEE10__completeB7v160006Ev, symObjAddr: 0x10880, symBinAddr: 0x1000124C0, symSize: 0x20 }
  - { offsetInCU: 0x39BA1, offset: 0x39BA1, size: 0x8, addend: 0x0, symName: __ZNSt3__128__exception_guard_exceptionsINS_29_AllocatorDestroyRangeReverseINS_9allocatorINS_4pairImPKcEEEENS_16reverse_iteratorIPS6_EEEEED1B7v160006Ev, symObjAddr: 0x108A0, symBinAddr: 0x1000124E0, symSize: 0x20 }
  - { offsetInCU: 0x39BCB, offset: 0x39BCB, size: 0x8, addend: 0x0, symName: __ZNSt3__128__exception_guard_exceptionsINS_29_AllocatorDestroyRangeReverseINS_9allocatorINS_4pairImPKcEEEENS_16reverse_iteratorIPS6_EEEEEC1B7v160006ESB_, symObjAddr: 0x108C0, symBinAddr: 0x100012500, symSize: 0x40 }
  - { offsetInCU: 0x39C03, offset: 0x39C03, size: 0x8, addend: 0x0, symName: __ZNSt3__128__exception_guard_exceptionsINS_29_AllocatorDestroyRangeReverseINS_9allocatorINS_4pairImPKcEEEENS_16reverse_iteratorIPS6_EEEEEC2B7v160006ESB_, symObjAddr: 0x10900, symBinAddr: 0x100012540, symSize: 0x30 }
  - { offsetInCU: 0x39C3B, offset: 0x39C3B, size: 0x8, addend: 0x0, symName: __ZNSt3__129_AllocatorDestroyRangeReverseINS_9allocatorINS_4pairImPKcEEEENS_16reverse_iteratorIPS5_EEEC2B7v160006ERS6_RS9_SC_, symObjAddr: 0x10930, symBinAddr: 0x100012570, symSize: 0x40 }
  - { offsetInCU: 0x39C92, offset: 0x39C92, size: 0x8, addend: 0x0, symName: __ZNSt3__19allocatorINS_4pairImPKcEEE9constructB7v160006IS4_JS4_EEEvPT_DpOT0_, symObjAddr: 0x10970, symBinAddr: 0x1000125B0, symSize: 0x30 }
  - { offsetInCU: 0x39CEE, offset: 0x39CEE, size: 0x8, addend: 0x0, symName: __ZNSt3__119__to_address_helperINS_16reverse_iteratorIPNS_4pairImPKcEEEEvE6__callB7v160006ERKS7_, symObjAddr: 0x109A0, symBinAddr: 0x1000125E0, symSize: 0x40 }
  - { offsetInCU: 0x39D11, offset: 0x39D11, size: 0x8, addend: 0x0, symName: __ZNKSt3__116reverse_iteratorIPNS_4pairImPKcEEEptB7v160006Ev, symObjAddr: 0x109E0, symBinAddr: 0x100012620, symSize: 0x20 }
  - { offsetInCU: 0x39D37, offset: 0x39D37, size: 0x8, addend: 0x0, symName: __ZNSt3__128__exception_guard_exceptionsINS_29_AllocatorDestroyRangeReverseINS_9allocatorINS_4pairImPKcEEEENS_16reverse_iteratorIPS6_EEEEED2B7v160006Ev, symObjAddr: 0x10A00, symBinAddr: 0x100012640, symSize: 0x40 }
  - { offsetInCU: 0x39D61, offset: 0x39D61, size: 0x8, addend: 0x0, symName: __ZNKSt3__129_AllocatorDestroyRangeReverseINS_9allocatorINS_4pairImPKcEEEENS_16reverse_iteratorIPS5_EEEclB7v160006Ev, symObjAddr: 0x10A40, symBinAddr: 0x100012680, symSize: 0xF0 }
  - { offsetInCU: 0x39D88, offset: 0x39D88, size: 0x8, addend: 0x0, symName: __ZNSt3__116reverse_iteratorINS0_IPNS_4pairImPKcEEEEEC1B7v160006ES6_, symObjAddr: 0x10BA0, symBinAddr: 0x1000127E0, symSize: 0x30 }
  - { offsetInCU: 0x39DC0, offset: 0x39DC0, size: 0x8, addend: 0x0, symName: __ZNSt3__116reverse_iteratorINS0_IPNS_4pairImPKcEEEEEppB7v160006Ev, symObjAddr: 0x10C40, symBinAddr: 0x100012880, symSize: 0x30 }
  - { offsetInCU: 0x39DE6, offset: 0x39DE6, size: 0x8, addend: 0x0, symName: __ZNKSt3__116reverse_iteratorINS0_IPNS_4pairImPKcEEEEE4baseB7v160006Ev, symObjAddr: 0x10C70, symBinAddr: 0x1000128B0, symSize: 0x20 }
  - { offsetInCU: 0x39E12, offset: 0x39E12, size: 0x8, addend: 0x0, symName: __ZNSt3__119__to_address_helperINS_16reverse_iteratorINS1_IPNS_4pairImPKcEEEEEEvE6__callB7v160006ERKS8_, symObjAddr: 0x10C90, symBinAddr: 0x1000128D0, symSize: 0x40 }
  - { offsetInCU: 0x39E35, offset: 0x39E35, size: 0x8, addend: 0x0, symName: __ZNKSt3__116reverse_iteratorINS0_IPNS_4pairImPKcEEEEEptB7v160006Ev, symObjAddr: 0x10CD0, symBinAddr: 0x100012910, symSize: 0x20 }
  - { offsetInCU: 0x39E5B, offset: 0x39E5B, size: 0x8, addend: 0x0, symName: __ZNKSt3__116reverse_iteratorINS0_IPNS_4pairImPKcEEEEEdeB7v160006Ev, symObjAddr: 0x10CF0, symBinAddr: 0x100012930, symSize: 0x40 }
  - { offsetInCU: 0x39E8F, offset: 0x39E8F, size: 0x8, addend: 0x0, symName: __ZNSt3__116reverse_iteratorIPNS_4pairImPKcEEEmmB7v160006Ev, symObjAddr: 0x10D30, symBinAddr: 0x100012970, symSize: 0x20 }
  - { offsetInCU: 0x39EB5, offset: 0x39EB5, size: 0x8, addend: 0x0, symName: __ZNSt3__116reverse_iteratorINS0_IPNS_4pairImPKcEEEEEC2B7v160006ES6_, symObjAddr: 0x10D50, symBinAddr: 0x100012990, symSize: 0x40 }
  - { offsetInCU: 0x39EED, offset: 0x39EED, size: 0x8, addend: 0x0, symName: __ZNSt3__116reverse_iteratorIPNS_4pairImPKcEEEC2B7v160006ES5_, symObjAddr: 0x10D90, symBinAddr: 0x1000129D0, symSize: 0x30 }
  - { offsetInCU: 0x39F25, offset: 0x39F25, size: 0x8, addend: 0x0, symName: __ZNSt3__114__split_bufferINS_4pairImPKcEERNS_9allocatorIS4_EEED2Ev, symObjAddr: 0x10DC0, symBinAddr: 0x100012A00, symSize: 0x70 }
  - { offsetInCU: 0x39F51, offset: 0x39F51, size: 0x8, addend: 0x0, symName: __ZNSt3__114__split_bufferINS_4pairImPKcEERNS_9allocatorIS4_EEE5clearB7v160006Ev, symObjAddr: 0x10E30, symBinAddr: 0x100012A70, symSize: 0x20 }
  - { offsetInCU: 0x39F77, offset: 0x39F77, size: 0x8, addend: 0x0, symName: __ZNKSt3__114__split_bufferINS_4pairImPKcEERNS_9allocatorIS4_EEE8capacityB7v160006Ev, symObjAddr: 0x10E50, symBinAddr: 0x100012A90, symSize: 0x30 }
  - { offsetInCU: 0x39F9D, offset: 0x39F9D, size: 0x8, addend: 0x0, symName: __ZNSt3__114__split_bufferINS_4pairImPKcEERNS_9allocatorIS4_EEE17__destruct_at_endB7v160006EPS4_, symObjAddr: 0x10E80, symBinAddr: 0x100012AC0, symSize: 0x30 }
  - { offsetInCU: 0x39FD1, offset: 0x39FD1, size: 0x8, addend: 0x0, symName: __ZNSt3__114__split_bufferINS_4pairImPKcEERNS_9allocatorIS4_EEE17__destruct_at_endB7v160006EPS4_NS_17integral_constantIbLb0EEE, symObjAddr: 0x10EB0, symBinAddr: 0x100012AF0, symSize: 0x80 }
  - { offsetInCU: 0x3A011, offset: 0x3A011, size: 0x8, addend: 0x0, symName: __ZNKSt3__114__split_bufferINS_4pairImPKcEERNS_9allocatorIS4_EEE9__end_capB7v160006Ev, symObjAddr: 0x10F30, symBinAddr: 0x100012B70, symSize: 0x20 }
  - { offsetInCU: 0x3A037, offset: 0x3A037, size: 0x8, addend: 0x0, symName: __ZNKSt3__117__compressed_pairIPNS_4pairImPKcEERNS_9allocatorIS4_EEE5firstB7v160006Ev, symObjAddr: 0x10F50, symBinAddr: 0x100012B90, symSize: 0x20 }
  - { offsetInCU: 0x3A05D, offset: 0x3A05D, size: 0x8, addend: 0x0, symName: __ZNSt3__16vectorINS_4pairImPKcEENS_9allocatorIS4_EEE27__invalidate_iterators_pastB7v160006EPS4_, symObjAddr: 0x10F70, symBinAddr: 0x100012BB0, symSize: 0x10 }
  - { offsetInCU: 0x3A094, offset: 0x3A094, size: 0x8, addend: 0x0, symName: __ZNKSt3__16vectorINS_4pairImPKcEENS_9allocatorIS4_EEE17__annotate_shrinkB7v160006Em, symObjAddr: 0x10F80, symBinAddr: 0x100012BC0, symSize: 0xA0 }
  - { offsetInCU: 0x3A0C9, offset: 0x3A0C9, size: 0x8, addend: 0x0, symName: __ZNSt3__16vectorINS_7__stateIcEENS_9allocatorIS2_EEE17__destruct_at_endB7v160006EPS2_, symObjAddr: 0x11020, symBinAddr: 0x100012C60, symSize: 0x60 }
  - { offsetInCU: 0x3A10D, offset: 0x3A10D, size: 0x8, addend: 0x0, symName: __ZNSt3__16vectorINS_7__stateIcEENS_9allocatorIS2_EEE27__invalidate_iterators_pastB7v160006EPS2_, symObjAddr: 0x11080, symBinAddr: 0x100012CC0, symSize: 0x10 }
  - { offsetInCU: 0x3A144, offset: 0x3A144, size: 0x8, addend: 0x0, symName: __ZNSt3__16vectorINS_7__stateIcEENS_9allocatorIS2_EEE22__base_destruct_at_endB7v160006EPS2_, symObjAddr: 0x11090, symBinAddr: 0x100012CD0, symSize: 0x80 }
  - { offsetInCU: 0x3A188, offset: 0x3A188, size: 0x8, addend: 0x0, symName: __ZNKSt3__16vectorINS_7__stateIcEENS_9allocatorIS2_EEE17__annotate_shrinkB7v160006Em, symObjAddr: 0x11110, symBinAddr: 0x100012D50, symSize: 0xA0 }
  - { offsetInCU: 0x3A1BD, offset: 0x3A1BD, size: 0x8, addend: 0x0, symName: __ZNSt3__17__stateIcEC2ERKS1_, symObjAddr: 0x111B0, symBinAddr: 0x100012DF0, symSize: 0xA0 }
  - { offsetInCU: 0x3A1F3, offset: 0x3A1F3, size: 0x8, addend: 0x0, symName: __ZNSt3__16vectorINS_9sub_matchIPKcEENS_9allocatorIS4_EEEC1ERKS7_, symObjAddr: 0x11250, symBinAddr: 0x100012E90, symSize: 0x30 }
  - { offsetInCU: 0x3A22E, offset: 0x3A22E, size: 0x8, addend: 0x0, symName: __ZNSt3__16vectorINS_4pairImPKcEENS_9allocatorIS4_EEEC1ERKS7_, symObjAddr: 0x11280, symBinAddr: 0x100012EC0, symSize: 0x30 }
  - { offsetInCU: 0x3A269, offset: 0x3A269, size: 0x8, addend: 0x0, symName: __ZNSt3__16vectorINS_9sub_matchIPKcEENS_9allocatorIS4_EEEC2ERKS7_, symObjAddr: 0x112B0, symBinAddr: 0x100012EF0, symSize: 0x110 }
  - { offsetInCU: 0x3A2C9, offset: 0x3A2C9, size: 0x8, addend: 0x0, symName: __ZNSt3__116allocator_traitsINS_9allocatorINS_9sub_matchIPKcEEEEE37select_on_container_copy_constructionB7v160006IS6_vvEES6_RKS6_, symObjAddr: 0x113C0, symBinAddr: 0x100013000, symSize: 0x10 }
  - { offsetInCU: 0x3A2F8, offset: 0x3A2F8, size: 0x8, addend: 0x0, symName: __ZNSt3__16vectorINS_9sub_matchIPKcEENS_9allocatorIS4_EEE18__construct_at_endIPS4_Li0EEEvT_SA_m, symObjAddr: 0x11410, symBinAddr: 0x100013050, symSize: 0x90 }
  - { offsetInCU: 0x3A36B, offset: 0x3A36B, size: 0x8, addend: 0x0, symName: __ZNSt3__128__exception_guard_exceptionsINS_6vectorINS_9sub_matchIPKcEENS_9allocatorIS5_EEE16__destroy_vectorEE10__completeB7v160006Ev, symObjAddr: 0x114A0, symBinAddr: 0x1000130E0, symSize: 0x20 }
  - { offsetInCU: 0x3A391, offset: 0x3A391, size: 0x8, addend: 0x0, symName: __ZNSt3__128__exception_guard_exceptionsINS_6vectorINS_9sub_matchIPKcEENS_9allocatorIS5_EEE16__destroy_vectorEED1B7v160006Ev, symObjAddr: 0x114C0, symBinAddr: 0x100013100, symSize: 0x20 }
  - { offsetInCU: 0x3A3BB, offset: 0x3A3BB, size: 0x8, addend: 0x0, symName: __ZNSt3__128__exception_guard_exceptionsINS_6vectorINS_9sub_matchIPKcEENS_9allocatorIS5_EEE16__destroy_vectorEEC1B7v160006ES9_, symObjAddr: 0x114E0, symBinAddr: 0x100013120, symSize: 0x30 }
  - { offsetInCU: 0x3A3F3, offset: 0x3A3F3, size: 0x8, addend: 0x0, symName: __ZNSt3__128__exception_guard_exceptionsINS_6vectorINS_9sub_matchIPKcEENS_9allocatorIS5_EEE16__destroy_vectorEEC2B7v160006ES9_, symObjAddr: 0x11510, symBinAddr: 0x100013150, symSize: 0x20 }
  - { offsetInCU: 0x3A42B, offset: 0x3A42B, size: 0x8, addend: 0x0, symName: __ZNSt3__129_AllocatorDestroyRangeReverseINS_9allocatorINS_9sub_matchIPKcEEEEPS5_EC1B7v160006ERS6_RS7_SA_, symObjAddr: 0x11690, symBinAddr: 0x1000132D0, symSize: 0x40 }
  - { offsetInCU: 0x3A482, offset: 0x3A482, size: 0x8, addend: 0x0, symName: __ZNSt3__116allocator_traitsINS_9allocatorINS_9sub_matchIPKcEEEEE9constructB7v160006IS5_JRS5_EvEEvRS6_PT_DpOT0_, symObjAddr: 0x116D0, symBinAddr: 0x100013310, symSize: 0x30 }
  - { offsetInCU: 0x3A4D9, offset: 0x3A4D9, size: 0x8, addend: 0x0, symName: __ZNSt3__128__exception_guard_exceptionsINS_29_AllocatorDestroyRangeReverseINS_9allocatorINS_9sub_matchIPKcEEEEPS6_EEE10__completeB7v160006Ev, symObjAddr: 0x11700, symBinAddr: 0x100013340, symSize: 0x20 }
  - { offsetInCU: 0x3A4FF, offset: 0x3A4FF, size: 0x8, addend: 0x0, symName: __ZNSt3__128__exception_guard_exceptionsINS_29_AllocatorDestroyRangeReverseINS_9allocatorINS_9sub_matchIPKcEEEEPS6_EEED1B7v160006Ev, symObjAddr: 0x11720, symBinAddr: 0x100013360, symSize: 0x20 }
  - { offsetInCU: 0x3A529, offset: 0x3A529, size: 0x8, addend: 0x0, symName: __ZNSt3__128__exception_guard_exceptionsINS_29_AllocatorDestroyRangeReverseINS_9allocatorINS_9sub_matchIPKcEEEEPS6_EEEC1B7v160006ES9_, symObjAddr: 0x11740, symBinAddr: 0x100013380, symSize: 0x40 }
  - { offsetInCU: 0x3A561, offset: 0x3A561, size: 0x8, addend: 0x0, symName: __ZNSt3__128__exception_guard_exceptionsINS_29_AllocatorDestroyRangeReverseINS_9allocatorINS_9sub_matchIPKcEEEEPS6_EEEC2B7v160006ES9_, symObjAddr: 0x11780, symBinAddr: 0x1000133C0, symSize: 0x30 }
  - { offsetInCU: 0x3A599, offset: 0x3A599, size: 0x8, addend: 0x0, symName: __ZNSt3__129_AllocatorDestroyRangeReverseINS_9allocatorINS_9sub_matchIPKcEEEEPS5_EC2B7v160006ERS6_RS7_SA_, symObjAddr: 0x117B0, symBinAddr: 0x1000133F0, symSize: 0x40 }
  - { offsetInCU: 0x3A5F0, offset: 0x3A5F0, size: 0x8, addend: 0x0, symName: __ZNSt3__19allocatorINS_9sub_matchIPKcEEE9constructB7v160006IS4_JRS4_EEEvPT_DpOT0_, symObjAddr: 0x117F0, symBinAddr: 0x100013430, symSize: 0x30 }
  - { offsetInCU: 0x3A646, offset: 0x3A646, size: 0x8, addend: 0x0, symName: __ZNSt3__128__exception_guard_exceptionsINS_29_AllocatorDestroyRangeReverseINS_9allocatorINS_9sub_matchIPKcEEEEPS6_EEED2B7v160006Ev, symObjAddr: 0x11820, symBinAddr: 0x100013460, symSize: 0x40 }
  - { offsetInCU: 0x3A670, offset: 0x3A670, size: 0x8, addend: 0x0, symName: __ZNKSt3__129_AllocatorDestroyRangeReverseINS_9allocatorINS_9sub_matchIPKcEEEEPS5_EclB7v160006Ev, symObjAddr: 0x11860, symBinAddr: 0x1000134A0, symSize: 0x60 }
  - { offsetInCU: 0x3A696, offset: 0x3A696, size: 0x8, addend: 0x0, symName: __ZNSt3__128__exception_guard_exceptionsINS_6vectorINS_9sub_matchIPKcEENS_9allocatorIS5_EEE16__destroy_vectorEED2B7v160006Ev, symObjAddr: 0x11930, symBinAddr: 0x100013570, symSize: 0x40 }
  - { offsetInCU: 0x3A6C0, offset: 0x3A6C0, size: 0x8, addend: 0x0, symName: __ZNSt3__16vectorINS_4pairImPKcEENS_9allocatorIS4_EEEC2ERKS7_, symObjAddr: 0x11970, symBinAddr: 0x1000135B0, symSize: 0x110 }
  - { offsetInCU: 0x3A720, offset: 0x3A720, size: 0x8, addend: 0x0, symName: __ZNSt3__116allocator_traitsINS_9allocatorINS_4pairImPKcEEEEE37select_on_container_copy_constructionB7v160006IS6_vvEES6_RKS6_, symObjAddr: 0x11A80, symBinAddr: 0x1000136C0, symSize: 0x10 }
  - { offsetInCU: 0x3A74F, offset: 0x3A74F, size: 0x8, addend: 0x0, symName: __ZNSt3__16vectorINS_4pairImPKcEENS_9allocatorIS4_EEE11__vallocateB7v160006Em, symObjAddr: 0x11AD0, symBinAddr: 0x100013710, symSize: 0xA0 }
  - { offsetInCU: 0x3A793, offset: 0x3A793, size: 0x8, addend: 0x0, symName: __ZNSt3__16vectorINS_4pairImPKcEENS_9allocatorIS4_EEE18__construct_at_endIPS4_Li0EEEvT_SA_m, symObjAddr: 0x11B70, symBinAddr: 0x1000137B0, symSize: 0x90 }
  - { offsetInCU: 0x3A806, offset: 0x3A806, size: 0x8, addend: 0x0, symName: __ZNSt3__128__exception_guard_exceptionsINS_6vectorINS_4pairImPKcEENS_9allocatorIS5_EEE16__destroy_vectorEE10__completeB7v160006Ev, symObjAddr: 0x11C00, symBinAddr: 0x100013840, symSize: 0x20 }
  - { offsetInCU: 0x3A82C, offset: 0x3A82C, size: 0x8, addend: 0x0, symName: __ZNSt3__128__exception_guard_exceptionsINS_6vectorINS_4pairImPKcEENS_9allocatorIS5_EEE16__destroy_vectorEED1B7v160006Ev, symObjAddr: 0x11C20, symBinAddr: 0x100013860, symSize: 0x20 }
  - { offsetInCU: 0x3A856, offset: 0x3A856, size: 0x8, addend: 0x0, symName: __ZNSt3__128__exception_guard_exceptionsINS_6vectorINS_4pairImPKcEENS_9allocatorIS5_EEE16__destroy_vectorEEC1B7v160006ES9_, symObjAddr: 0x11C40, symBinAddr: 0x100013880, symSize: 0x30 }
  - { offsetInCU: 0x3A88E, offset: 0x3A88E, size: 0x8, addend: 0x0, symName: __ZNSt3__128__exception_guard_exceptionsINS_6vectorINS_4pairImPKcEENS_9allocatorIS5_EEE16__destroy_vectorEEC2B7v160006ES9_, symObjAddr: 0x11C70, symBinAddr: 0x1000138B0, symSize: 0x20 }
  - { offsetInCU: 0x3A8C6, offset: 0x3A8C6, size: 0x8, addend: 0x0, symName: __ZNSt3__129_AllocatorDestroyRangeReverseINS_9allocatorINS_4pairImPKcEEEEPS5_EC1B7v160006ERS6_RS7_SA_, symObjAddr: 0x11DF0, symBinAddr: 0x100013A30, symSize: 0x40 }
  - { offsetInCU: 0x3A91D, offset: 0x3A91D, size: 0x8, addend: 0x0, symName: __ZNSt3__116allocator_traitsINS_9allocatorINS_4pairImPKcEEEEE9constructB7v160006IS5_JRS5_EvEEvRS6_PT_DpOT0_, symObjAddr: 0x11E30, symBinAddr: 0x100013A70, symSize: 0x30 }
  - { offsetInCU: 0x3A974, offset: 0x3A974, size: 0x8, addend: 0x0, symName: __ZNSt3__128__exception_guard_exceptionsINS_29_AllocatorDestroyRangeReverseINS_9allocatorINS_4pairImPKcEEEEPS6_EEE10__completeB7v160006Ev, symObjAddr: 0x11E60, symBinAddr: 0x100013AA0, symSize: 0x20 }
  - { offsetInCU: 0x3A99A, offset: 0x3A99A, size: 0x8, addend: 0x0, symName: __ZNSt3__128__exception_guard_exceptionsINS_29_AllocatorDestroyRangeReverseINS_9allocatorINS_4pairImPKcEEEEPS6_EEED1B7v160006Ev, symObjAddr: 0x11E80, symBinAddr: 0x100013AC0, symSize: 0x20 }
  - { offsetInCU: 0x3A9C4, offset: 0x3A9C4, size: 0x8, addend: 0x0, symName: __ZNSt3__128__exception_guard_exceptionsINS_29_AllocatorDestroyRangeReverseINS_9allocatorINS_4pairImPKcEEEEPS6_EEEC1B7v160006ES9_, symObjAddr: 0x11EA0, symBinAddr: 0x100013AE0, symSize: 0x40 }
  - { offsetInCU: 0x3A9FC, offset: 0x3A9FC, size: 0x8, addend: 0x0, symName: __ZNSt3__128__exception_guard_exceptionsINS_29_AllocatorDestroyRangeReverseINS_9allocatorINS_4pairImPKcEEEEPS6_EEEC2B7v160006ES9_, symObjAddr: 0x11EE0, symBinAddr: 0x100013B20, symSize: 0x30 }
  - { offsetInCU: 0x3AA34, offset: 0x3AA34, size: 0x8, addend: 0x0, symName: __ZNSt3__129_AllocatorDestroyRangeReverseINS_9allocatorINS_4pairImPKcEEEEPS5_EC2B7v160006ERS6_RS7_SA_, symObjAddr: 0x11F10, symBinAddr: 0x100013B50, symSize: 0x40 }
  - { offsetInCU: 0x3AA8B, offset: 0x3AA8B, size: 0x8, addend: 0x0, symName: __ZNSt3__19allocatorINS_4pairImPKcEEE9constructB7v160006IS4_JRS4_EEEvPT_DpOT0_, symObjAddr: 0x11F50, symBinAddr: 0x100013B90, symSize: 0x30 }
  - { offsetInCU: 0x3AAE1, offset: 0x3AAE1, size: 0x8, addend: 0x0, symName: __ZNSt3__128__exception_guard_exceptionsINS_29_AllocatorDestroyRangeReverseINS_9allocatorINS_4pairImPKcEEEEPS6_EEED2B7v160006Ev, symObjAddr: 0x11F80, symBinAddr: 0x100013BC0, symSize: 0x40 }
  - { offsetInCU: 0x3AB0B, offset: 0x3AB0B, size: 0x8, addend: 0x0, symName: __ZNKSt3__129_AllocatorDestroyRangeReverseINS_9allocatorINS_4pairImPKcEEEEPS5_EclB7v160006Ev, symObjAddr: 0x11FC0, symBinAddr: 0x100013C00, symSize: 0x60 }
  - { offsetInCU: 0x3AB31, offset: 0x3AB31, size: 0x8, addend: 0x0, symName: __ZNSt3__128__exception_guard_exceptionsINS_6vectorINS_4pairImPKcEENS_9allocatorIS5_EEE16__destroy_vectorEED2B7v160006Ev, symObjAddr: 0x12090, symBinAddr: 0x100013CD0, symSize: 0x40 }
  - { offsetInCU: 0x3AB5B, offset: 0x3AB5B, size: 0x8, addend: 0x0, symName: __ZNSt3__16vectorINS_7__stateIcEENS_9allocatorIS2_EEED2B7v160006Ev, symObjAddr: 0x120D0, symBinAddr: 0x100013D10, symSize: 0x40 }
  - { offsetInCU: 0x3AB85, offset: 0x3AB85, size: 0x8, addend: 0x0, symName: __ZNSt3__16vectorINS_7__stateIcEENS_9allocatorIS2_EEE16__destroy_vectorC1ERS5_, symObjAddr: 0x12110, symBinAddr: 0x100013D50, symSize: 0x30 }
  - { offsetInCU: 0x3ABBE, offset: 0x3ABBE, size: 0x8, addend: 0x0, symName: __ZNSt3__16vectorINS_7__stateIcEENS_9allocatorIS2_EEE16__destroy_vectorclB7v160006Ev, symObjAddr: 0x12140, symBinAddr: 0x100013D80, symSize: 0x90 }
  - { offsetInCU: 0x3ABE4, offset: 0x3ABE4, size: 0x8, addend: 0x0, symName: __ZNSt3__16vectorINS_7__stateIcEENS_9allocatorIS2_EEE16__destroy_vectorC2ERS5_, symObjAddr: 0x121D0, symBinAddr: 0x100013E10, symSize: 0x20 }
  - { offsetInCU: 0x3AC1D, offset: 0x3AC1D, size: 0x8, addend: 0x0, symName: __ZNSt3__16vectorINS_7__stateIcEENS_9allocatorIS2_EEE7__clearB7v160006Ev, symObjAddr: 0x12200, symBinAddr: 0x100013E40, symSize: 0x20 }
  - { offsetInCU: 0x3AC43, offset: 0x3AC43, size: 0x8, addend: 0x0, symName: __ZNSt3__14pairIPKcS2_EaSB7v160006ERKS3_, symObjAddr: 0x12220, symBinAddr: 0x100013E60, symSize: 0x30 }
  - { offsetInCU: 0x3AC78, offset: 0x3AC78, size: 0x8, addend: 0x0, symName: __ZNSt3__113match_resultsIPKcNS_9allocatorINS_9sub_matchIS2_EEEEED2Ev, symObjAddr: 0x12250, symBinAddr: 0x100013E90, symSize: 0x20 }
  - { offsetInCU: 0x3ACA5, offset: 0x3ACA5, size: 0x8, addend: 0x0, symName: __ZNSt3__111basic_regexIcNS_12regex_traitsIcEEE28__push_match_any_but_newlineEv, symObjAddr: 0x12270, symBinAddr: 0x100013EB0, symSize: 0xA0 }
  - { offsetInCU: 0x3ACCD, offset: 0x3ACCD, size: 0x8, addend: 0x0, symName: __ZNSt3__111basic_regexIcNS_12regex_traitsIcEEE19__parse_atom_escapeIPKcEET_S7_S7_, symObjAddr: 0x12310, symBinAddr: 0x100013F50, symSize: 0x110 }
  - { offsetInCU: 0x3AD48, offset: 0x3AD48, size: 0x8, addend: 0x0, symName: __ZNSt3__111basic_regexIcNS_12regex_traitsIcEEE26__parse_bracket_expressionIPKcEET_S7_S7_, symObjAddr: 0x12420, symBinAddr: 0x100014060, symSize: 0x180 }
  - { offsetInCU: 0x3ADC3, offset: 0x3ADC3, size: 0x8, addend: 0x0, symName: __ZNSt3__111basic_regexIcNS_12regex_traitsIcEEE33__push_begin_marked_subexpressionEv, symObjAddr: 0x125A0, symBinAddr: 0x1000141E0, symSize: 0xD0 }
  - { offsetInCU: 0x3ADEB, offset: 0x3ADEB, size: 0x8, addend: 0x0, symName: __ZNSt3__111basic_regexIcNS_12regex_traitsIcEEE31__push_end_marked_subexpressionEj, symObjAddr: 0x12670, symBinAddr: 0x1000142B0, symSize: 0xD0 }
  - { offsetInCU: 0x3AE22, offset: 0x3AE22, size: 0x8, addend: 0x0, symName: __ZNSt3__111basic_regexIcNS_12regex_traitsIcEEE25__parse_pattern_characterIPKcEET_S7_S7_, symObjAddr: 0x127A0, symBinAddr: 0x1000143E0, symSize: 0x1F0 }
  - { offsetInCU: 0x3AE86, offset: 0x3AE86, size: 0x8, addend: 0x0, symName: __ZNSt3__123__match_any_but_newlineIcEC1B7v160006EPNS_6__nodeIcEE, symObjAddr: 0x12990, symBinAddr: 0x1000145D0, symSize: 0x30 }
  - { offsetInCU: 0x3AEBF, offset: 0x3AEBF, size: 0x8, addend: 0x0, symName: __ZNSt3__123__match_any_but_newlineIcEC2B7v160006EPNS_6__nodeIcEE, symObjAddr: 0x129C0, symBinAddr: 0x100014600, symSize: 0x40 }
  - { offsetInCU: 0x3AEF8, offset: 0x3AEF8, size: 0x8, addend: 0x0, symName: __ZNSt3__123__match_any_but_newlineIcED1Ev, symObjAddr: 0x12A00, symBinAddr: 0x100014640, symSize: 0x20 }
  - { offsetInCU: 0x3AF25, offset: 0x3AF25, size: 0x8, addend: 0x0, symName: __ZNSt3__123__match_any_but_newlineIcED0Ev, symObjAddr: 0x12A20, symBinAddr: 0x100014660, symSize: 0x30 }
  - { offsetInCU: 0x3AF52, offset: 0x3AF52, size: 0x8, addend: 0x0, symName: __ZNSt3__123__match_any_but_newlineIcED2Ev, symObjAddr: 0x12A50, symBinAddr: 0x100014690, symSize: 0x20 }
  - { offsetInCU: 0x3AF7F, offset: 0x3AF7F, size: 0x8, addend: 0x0, symName: __ZNSt3__111basic_regexIcNS_12regex_traitsIcEEE22__parse_decimal_escapeIPKcEET_S7_S7_, symObjAddr: 0x12AD0, symBinAddr: 0x100014710, symSize: 0x180 }
  - { offsetInCU: 0x3AFEB, offset: 0x3AFEB, size: 0x8, addend: 0x0, symName: __ZNSt3__111basic_regexIcNS_12regex_traitsIcEEE30__parse_character_class_escapeIPKcEET_S7_S7_, symObjAddr: 0x12C50, symBinAddr: 0x100014890, symSize: 0x270 }
  - { offsetInCU: 0x3B057, offset: 0x3B057, size: 0x8, addend: 0x0, symName: __ZNSt3__111basic_regexIcNS_12regex_traitsIcEEE24__parse_character_escapeIPKcEET_S7_S7_PNS_12basic_stringIcNS_11char_traitsIcEENS_9allocatorIcEEEE, symObjAddr: 0x12EC0, symBinAddr: 0x100014B00, symSize: 0x5E0 }
  - { offsetInCU: 0x3B0F0, offset: 0x3B0F0, size: 0x8, addend: 0x0, symName: __ZNSt3__111basic_regexIcNS_12regex_traitsIcEEE11__push_charEc, symObjAddr: 0x134A0, symBinAddr: 0x1000150E0, symSize: 0x1E0 }
  - { offsetInCU: 0x3B127, offset: 0x3B127, size: 0x8, addend: 0x0, symName: __ZNSt3__114numeric_limitsIjE3maxB7v160006Ev, symObjAddr: 0x13680, symBinAddr: 0x1000152C0, symSize: 0x10 }
  - { offsetInCU: 0x3B13B, offset: 0x3B13B, size: 0x8, addend: 0x0, symName: __ZNSt3__111basic_regexIcNS_12regex_traitsIcEEE15__push_back_refEi, symObjAddr: 0x136F0, symBinAddr: 0x100015330, symSize: 0x1E0 }
  - { offsetInCU: 0x3B172, offset: 0x3B172, size: 0x8, addend: 0x0, symName: __ZNKSt3__111basic_regexIcNS_12regex_traitsIcEEE5flagsB7v160006Ev, symObjAddr: 0x138D0, symBinAddr: 0x100015510, symSize: 0x20 }
  - { offsetInCU: 0x3B1B9, offset: 0x3B1B9, size: 0x8, addend: 0x0, symName: __ZNSt3__118__match_char_icaseIcNS_12regex_traitsIcEEEC1B7v160006ERKS2_cPNS_6__nodeIcEE, symObjAddr: 0x138F0, symBinAddr: 0x100015530, symSize: 0x40 }
  - { offsetInCU: 0x3B231, offset: 0x3B231, size: 0x8, addend: 0x0, symName: __ZNSt3__120__match_char_collateIcNS_12regex_traitsIcEEEC1B7v160006ERKS2_cPNS_6__nodeIcEE, symObjAddr: 0x13930, symBinAddr: 0x100015570, symSize: 0x40 }
  - { offsetInCU: 0x3B2A9, offset: 0x3B2A9, size: 0x8, addend: 0x0, symName: __ZNSt3__112__match_charIcEC1B7v160006EcPNS_6__nodeIcEE, symObjAddr: 0x13970, symBinAddr: 0x1000155B0, symSize: 0x30 }
  - { offsetInCU: 0x3B2F1, offset: 0x3B2F1, size: 0x8, addend: 0x0, symName: __ZNSt3__118__match_char_icaseIcNS_12regex_traitsIcEEEC2B7v160006ERKS2_cPNS_6__nodeIcEE, symObjAddr: 0x139A0, symBinAddr: 0x1000155E0, symSize: 0xB0 }
  - { offsetInCU: 0x3B348, offset: 0x3B348, size: 0x8, addend: 0x0, symName: __ZNKSt3__112regex_traitsIcE16translate_nocaseEc, symObjAddr: 0x13A50, symBinAddr: 0x100015690, symSize: 0x30 }
  - { offsetInCU: 0x3B37F, offset: 0x3B37F, size: 0x8, addend: 0x0, symName: __ZNSt3__118__match_char_icaseIcNS_12regex_traitsIcEEED1Ev, symObjAddr: 0x13A80, symBinAddr: 0x1000156C0, symSize: 0x20 }
  - { offsetInCU: 0x3B3AC, offset: 0x3B3AC, size: 0x8, addend: 0x0, symName: __ZNSt3__118__match_char_icaseIcNS_12regex_traitsIcEEED0Ev, symObjAddr: 0x13AA0, symBinAddr: 0x1000156E0, symSize: 0x30 }
  - { offsetInCU: 0x3B3D9, offset: 0x3B3D9, size: 0x8, addend: 0x0, symName: __ZNKSt3__118__match_char_icaseIcNS_12regex_traitsIcEEE6__execERNS_7__stateIcEE, symObjAddr: 0x13AD0, symBinAddr: 0x100015710, symSize: 0xB0 }
  - { offsetInCU: 0x3B410, offset: 0x3B410, size: 0x8, addend: 0x0, symName: __ZNKSt3__15ctypeIcE7tolowerB7v160006Ec, symObjAddr: 0x13B80, symBinAddr: 0x1000157C0, symSize: 0x30 }
  - { offsetInCU: 0x3B445, offset: 0x3B445, size: 0x8, addend: 0x0, symName: __ZNSt3__118__match_char_icaseIcNS_12regex_traitsIcEEED2Ev, symObjAddr: 0x13BB0, symBinAddr: 0x1000157F0, symSize: 0x40 }
  - { offsetInCU: 0x3B472, offset: 0x3B472, size: 0x8, addend: 0x0, symName: __ZNSt3__120__match_char_collateIcNS_12regex_traitsIcEEEC2B7v160006ERKS2_cPNS_6__nodeIcEE, symObjAddr: 0x13BF0, symBinAddr: 0x100015830, symSize: 0xB0 }
  - { offsetInCU: 0x3B4C9, offset: 0x3B4C9, size: 0x8, addend: 0x0, symName: __ZNKSt3__112regex_traitsIcE9translateB7v160006Ec, symObjAddr: 0x13CA0, symBinAddr: 0x1000158E0, symSize: 0x20 }
  - { offsetInCU: 0x3B4FE, offset: 0x3B4FE, size: 0x8, addend: 0x0, symName: __ZNSt3__120__match_char_collateIcNS_12regex_traitsIcEEED1Ev, symObjAddr: 0x13CC0, symBinAddr: 0x100015900, symSize: 0x20 }
  - { offsetInCU: 0x3B52B, offset: 0x3B52B, size: 0x8, addend: 0x0, symName: __ZNSt3__120__match_char_collateIcNS_12regex_traitsIcEEED0Ev, symObjAddr: 0x13CE0, symBinAddr: 0x100015920, symSize: 0x30 }
  - { offsetInCU: 0x3B558, offset: 0x3B558, size: 0x8, addend: 0x0, symName: __ZNKSt3__120__match_char_collateIcNS_12regex_traitsIcEEE6__execERNS_7__stateIcEE, symObjAddr: 0x13D10, symBinAddr: 0x100015950, symSize: 0xB0 }
  - { offsetInCU: 0x3B58F, offset: 0x3B58F, size: 0x8, addend: 0x0, symName: __ZNSt3__120__match_char_collateIcNS_12regex_traitsIcEEED2Ev, symObjAddr: 0x13DC0, symBinAddr: 0x100015A00, symSize: 0x40 }
  - { offsetInCU: 0x3B5BC, offset: 0x3B5BC, size: 0x8, addend: 0x0, symName: __ZNSt3__112__match_charIcEC2B7v160006EcPNS_6__nodeIcEE, symObjAddr: 0x13E00, symBinAddr: 0x100015A40, symSize: 0x50 }
  - { offsetInCU: 0x3B604, offset: 0x3B604, size: 0x8, addend: 0x0, symName: __ZNSt3__112__match_charIcED1Ev, symObjAddr: 0x13E50, symBinAddr: 0x100015A90, symSize: 0x20 }
  - { offsetInCU: 0x3B631, offset: 0x3B631, size: 0x8, addend: 0x0, symName: __ZNSt3__112__match_charIcED0Ev, symObjAddr: 0x13E70, symBinAddr: 0x100015AB0, symSize: 0x30 }
  - { offsetInCU: 0x3B65E, offset: 0x3B65E, size: 0x8, addend: 0x0, symName: __ZNKSt3__112__match_charIcE6__execERNS_7__stateIcEE, symObjAddr: 0x13EA0, symBinAddr: 0x100015AE0, symSize: 0xA0 }
  - { offsetInCU: 0x3B695, offset: 0x3B695, size: 0x8, addend: 0x0, symName: __ZNSt3__112__match_charIcED2Ev, symObjAddr: 0x13F40, symBinAddr: 0x100015B80, symSize: 0x20 }
  - { offsetInCU: 0x3B6C2, offset: 0x3B6C2, size: 0x8, addend: 0x0, symName: __ZNSt3__123__libcpp_numeric_limitsIjLb1EE3maxB7v160006Ev, symObjAddr: 0x13F60, symBinAddr: 0x100015BA0, symSize: 0x10 }
  - { offsetInCU: 0x3B6EB, offset: 0x3B6EB, size: 0x8, addend: 0x0, symName: __ZNSt3__116__back_ref_icaseIcNS_12regex_traitsIcEEEC1B7v160006ERKS2_jPNS_6__nodeIcEE, symObjAddr: 0x13F70, symBinAddr: 0x100015BB0, symSize: 0x40 }
  - { offsetInCU: 0x3B757, offset: 0x3B757, size: 0x8, addend: 0x0, symName: __ZNSt3__118__back_ref_collateIcNS_12regex_traitsIcEEEC1B7v160006ERKS2_jPNS_6__nodeIcEE, symObjAddr: 0x13FB0, symBinAddr: 0x100015BF0, symSize: 0x40 }
  - { offsetInCU: 0x3B7C3, offset: 0x3B7C3, size: 0x8, addend: 0x0, symName: __ZNSt3__110__back_refIcEC1B7v160006EjPNS_6__nodeIcEE, symObjAddr: 0x13FF0, symBinAddr: 0x100015C30, symSize: 0x30 }
  - { offsetInCU: 0x3B80B, offset: 0x3B80B, size: 0x8, addend: 0x0, symName: __ZNSt3__116__back_ref_icaseIcNS_12regex_traitsIcEEEC2B7v160006ERKS2_jPNS_6__nodeIcEE, symObjAddr: 0x14020, symBinAddr: 0x100015C60, symSize: 0x60 }
  - { offsetInCU: 0x3B862, offset: 0x3B862, size: 0x8, addend: 0x0, symName: __ZNSt3__116__back_ref_icaseIcNS_12regex_traitsIcEEED1Ev, symObjAddr: 0x14080, symBinAddr: 0x100015CC0, symSize: 0x20 }
  - { offsetInCU: 0x3B88F, offset: 0x3B88F, size: 0x8, addend: 0x0, symName: __ZNSt3__116__back_ref_icaseIcNS_12regex_traitsIcEEED0Ev, symObjAddr: 0x140A0, symBinAddr: 0x100015CE0, symSize: 0x30 }
  - { offsetInCU: 0x3B8BC, offset: 0x3B8BC, size: 0x8, addend: 0x0, symName: __ZNKSt3__116__back_ref_icaseIcNS_12regex_traitsIcEEE6__execERNS_7__stateIcEE, symObjAddr: 0x140D0, symBinAddr: 0x100015D10, symSize: 0x170 }
  - { offsetInCU: 0x3B94D, offset: 0x3B94D, size: 0x8, addend: 0x0, symName: __ZNSt3__116__back_ref_icaseIcNS_12regex_traitsIcEEED2Ev, symObjAddr: 0x14240, symBinAddr: 0x100015E80, symSize: 0x40 }
  - { offsetInCU: 0x3B97A, offset: 0x3B97A, size: 0x8, addend: 0x0, symName: __ZNSt3__118__back_ref_collateIcNS_12regex_traitsIcEEEC2B7v160006ERKS2_jPNS_6__nodeIcEE, symObjAddr: 0x14280, symBinAddr: 0x100015EC0, symSize: 0x60 }
  - { offsetInCU: 0x3B9D1, offset: 0x3B9D1, size: 0x8, addend: 0x0, symName: __ZNSt3__118__back_ref_collateIcNS_12regex_traitsIcEEED1Ev, symObjAddr: 0x142E0, symBinAddr: 0x100015F20, symSize: 0x20 }
  - { offsetInCU: 0x3B9FE, offset: 0x3B9FE, size: 0x8, addend: 0x0, symName: __ZNSt3__118__back_ref_collateIcNS_12regex_traitsIcEEED0Ev, symObjAddr: 0x14300, symBinAddr: 0x100015F40, symSize: 0x30 }
  - { offsetInCU: 0x3BA2B, offset: 0x3BA2B, size: 0x8, addend: 0x0, symName: __ZNKSt3__118__back_ref_collateIcNS_12regex_traitsIcEEE6__execERNS_7__stateIcEE, symObjAddr: 0x14330, symBinAddr: 0x100015F70, symSize: 0x170 }
  - { offsetInCU: 0x3BABC, offset: 0x3BABC, size: 0x8, addend: 0x0, symName: __ZNSt3__118__back_ref_collateIcNS_12regex_traitsIcEEED2Ev, symObjAddr: 0x144A0, symBinAddr: 0x1000160E0, symSize: 0x40 }
  - { offsetInCU: 0x3BAE9, offset: 0x3BAE9, size: 0x8, addend: 0x0, symName: __ZNSt3__110__back_refIcEC2B7v160006EjPNS_6__nodeIcEE, symObjAddr: 0x144E0, symBinAddr: 0x100016120, symSize: 0x50 }
  - { offsetInCU: 0x3BB31, offset: 0x3BB31, size: 0x8, addend: 0x0, symName: __ZNSt3__110__back_refIcED1Ev, symObjAddr: 0x14530, symBinAddr: 0x100016170, symSize: 0x20 }
  - { offsetInCU: 0x3BB5E, offset: 0x3BB5E, size: 0x8, addend: 0x0, symName: __ZNSt3__110__back_refIcED0Ev, symObjAddr: 0x14550, symBinAddr: 0x100016190, symSize: 0x30 }
  - { offsetInCU: 0x3BB8B, offset: 0x3BB8B, size: 0x8, addend: 0x0, symName: __ZNKSt3__110__back_refIcE6__execERNS_7__stateIcEE, symObjAddr: 0x14580, symBinAddr: 0x1000161C0, symSize: 0x140 }
  - { offsetInCU: 0x3BBEE, offset: 0x3BBEE, size: 0x8, addend: 0x0, symName: __ZNSt3__110__back_refIcED2Ev, symObjAddr: 0x146C0, symBinAddr: 0x100016300, symSize: 0x20 }
  - { offsetInCU: 0x3BC25, offset: 0x3BC25, size: 0x8, addend: 0x0, symName: __ZNKSt3__110__equal_toclB7v160006IccEEbRKT_RKT0_, symObjAddr: 0x14790, symBinAddr: 0x1000163D0, symSize: 0x30 }
  - { offsetInCU: 0x3BC79, offset: 0x3BC79, size: 0x8, addend: 0x0, symName: __ZNSt3__111basic_regexIcNS_12regex_traitsIcEEE21__start_matching_listEb, symObjAddr: 0x147C0, symBinAddr: 0x100016400, symSize: 0x110 }
  - { offsetInCU: 0x3BCBF, offset: 0x3BCBF, size: 0x8, addend: 0x0, symName: __ZNSt3__120__bracket_expressionIcNS_12regex_traitsIcEEE11__add_classB7v160006Ej, symObjAddr: 0x148D0, symBinAddr: 0x100016510, symSize: 0x20 }
  - { offsetInCU: 0x3BCF4, offset: 0x3BCF4, size: 0x8, addend: 0x0, symName: __ZNSt3__120__bracket_expressionIcNS_12regex_traitsIcEEE10__add_charB7v160006Ec, symObjAddr: 0x148F0, symBinAddr: 0x100016530, symSize: 0xC0 }
  - { offsetInCU: 0x3BD29, offset: 0x3BD29, size: 0x8, addend: 0x0, symName: __ZNSt3__120__bracket_expressionIcNS_12regex_traitsIcEEEC1B7v160006ERKS2_PNS_6__nodeIcEEbbb, symObjAddr: 0x149B0, symBinAddr: 0x1000165F0, symSize: 0x90 }
  - { offsetInCU: 0x3BD9E, offset: 0x3BD9E, size: 0x8, addend: 0x0, symName: __ZNSt3__120__bracket_expressionIcNS_12regex_traitsIcEEEC2B7v160006ERKS2_PNS_6__nodeIcEEbbb, symObjAddr: 0x14A40, symBinAddr: 0x100016680, symSize: 0x220 }
  - { offsetInCU: 0x3BE13, offset: 0x3BE13, size: 0x8, addend: 0x0, symName: __ZNSt3__16vectorIcNS_9allocatorIcEEEC1B7v160006Ev, symObjAddr: 0x14C60, symBinAddr: 0x1000168A0, symSize: 0x20 }
  - { offsetInCU: 0x3BE3D, offset: 0x3BE3D, size: 0x8, addend: 0x0, symName: __ZNSt3__16vectorINS_4pairINS_12basic_stringIcNS_11char_traitsIcEENS_9allocatorIcEEEES7_EENS5_IS8_EEEC1B7v160006Ev, symObjAddr: 0x14C80, symBinAddr: 0x1000168C0, symSize: 0x20 }
  - { offsetInCU: 0x3BE67, offset: 0x3BE67, size: 0x8, addend: 0x0, symName: __ZNSt3__16vectorINS_4pairIccEENS_9allocatorIS2_EEEC1B7v160006Ev, symObjAddr: 0x14CA0, symBinAddr: 0x1000168E0, symSize: 0x20 }
  - { offsetInCU: 0x3BE91, offset: 0x3BE91, size: 0x8, addend: 0x0, symName: __ZNSt3__16vectorINS_12basic_stringIcNS_11char_traitsIcEENS_9allocatorIcEEEENS4_IS6_EEEC1B7v160006Ev, symObjAddr: 0x14CC0, symBinAddr: 0x100016900, symSize: 0x20 }
  - { offsetInCU: 0x3BEBB, offset: 0x3BEBB, size: 0x8, addend: 0x0, symName: __ZNKSt3__112regex_traitsIcE6getlocB7v160006Ev, symObjAddr: 0x14D10, symBinAddr: 0x100016950, symSize: 0x30 }
  - { offsetInCU: 0x3BEE1, offset: 0x3BEE1, size: 0x8, addend: 0x0, symName: __ZNSt3__16vectorINS_4pairIccEENS_9allocatorIS2_EEED1B7v160006Ev, symObjAddr: 0x14D40, symBinAddr: 0x100016980, symSize: 0x20 }
  - { offsetInCU: 0x3BF0B, offset: 0x3BF0B, size: 0x8, addend: 0x0, symName: __ZNSt3__16vectorINS_4pairINS_12basic_stringIcNS_11char_traitsIcEENS_9allocatorIcEEEES7_EENS5_IS8_EEED1B7v160006Ev, symObjAddr: 0x14D60, symBinAddr: 0x1000169A0, symSize: 0x20 }
  - { offsetInCU: 0x3BF35, offset: 0x3BF35, size: 0x8, addend: 0x0, symName: __ZNSt3__16vectorIcNS_9allocatorIcEEED1B7v160006Ev, symObjAddr: 0x14D80, symBinAddr: 0x1000169C0, symSize: 0x20 }
  - { offsetInCU: 0x3BF5F, offset: 0x3BF5F, size: 0x8, addend: 0x0, symName: __ZNSt3__120__bracket_expressionIcNS_12regex_traitsIcEEED1Ev, symObjAddr: 0x14DA0, symBinAddr: 0x1000169E0, symSize: 0x20 }
  - { offsetInCU: 0x3BF8C, offset: 0x3BF8C, size: 0x8, addend: 0x0, symName: __ZNSt3__120__bracket_expressionIcNS_12regex_traitsIcEEED0Ev, symObjAddr: 0x14DC0, symBinAddr: 0x100016A00, symSize: 0x30 }
  - { offsetInCU: 0x3BFB9, offset: 0x3BFB9, size: 0x8, addend: 0x0, symName: __ZNKSt3__120__bracket_expressionIcNS_12regex_traitsIcEEE6__execERNS_7__stateIcEE, symObjAddr: 0x14DF0, symBinAddr: 0x100016A30, symSize: 0xA70 }
  - { offsetInCU: 0x3C1B1, offset: 0x3C1B1, size: 0x8, addend: 0x0, symName: __ZNSt3__16vectorIcNS_9allocatorIcEEEC2B7v160006Ev, symObjAddr: 0x15860, symBinAddr: 0x1000174A0, symSize: 0x60 }
  - { offsetInCU: 0x3C1DB, offset: 0x3C1DB, size: 0x8, addend: 0x0, symName: __ZNSt3__117__compressed_pairIPcNS_9allocatorIcEEEC1B7v160006IDnNS_18__default_init_tagEEEOT_OT0_, symObjAddr: 0x158C0, symBinAddr: 0x100017500, symSize: 0x30 }
  - { offsetInCU: 0x3C233, offset: 0x3C233, size: 0x8, addend: 0x0, symName: __ZNSt3__117__compressed_pairIPcNS_9allocatorIcEEEC2B7v160006IDnNS_18__default_init_tagEEEOT_OT0_, symObjAddr: 0x15900, symBinAddr: 0x100017540, symSize: 0x40 }
  - { offsetInCU: 0x3C28B, offset: 0x3C28B, size: 0x8, addend: 0x0, symName: __ZNSt3__122__compressed_pair_elemIPcLi0ELb0EEC2B7v160006IDnvEEOT_, symObjAddr: 0x15940, symBinAddr: 0x100017580, symSize: 0x20 }
  - { offsetInCU: 0x3C2CD, offset: 0x3C2CD, size: 0x8, addend: 0x0, symName: __ZNSt3__16vectorINS_4pairINS_12basic_stringIcNS_11char_traitsIcEENS_9allocatorIcEEEES7_EENS5_IS8_EEEC2B7v160006Ev, symObjAddr: 0x15960, symBinAddr: 0x1000175A0, symSize: 0x60 }
  - { offsetInCU: 0x3C2F7, offset: 0x3C2F7, size: 0x8, addend: 0x0, symName: __ZNSt3__117__compressed_pairIPNS_4pairINS_12basic_stringIcNS_11char_traitsIcEENS_9allocatorIcEEEES7_EENS5_IS8_EEEC1B7v160006IDnNS_18__default_init_tagEEEOT_OT0_, symObjAddr: 0x159C0, symBinAddr: 0x100017600, symSize: 0x30 }
  - { offsetInCU: 0x3C34F, offset: 0x3C34F, size: 0x8, addend: 0x0, symName: __ZNSt3__117__compressed_pairIPNS_4pairINS_12basic_stringIcNS_11char_traitsIcEENS_9allocatorIcEEEES7_EENS5_IS8_EEEC2B7v160006IDnNS_18__default_init_tagEEEOT_OT0_, symObjAddr: 0x15A00, symBinAddr: 0x100017640, symSize: 0x40 }
  - { offsetInCU: 0x3C3A7, offset: 0x3C3A7, size: 0x8, addend: 0x0, symName: __ZNSt3__122__compressed_pair_elemIPNS_4pairINS_12basic_stringIcNS_11char_traitsIcEENS_9allocatorIcEEEES7_EELi0ELb0EEC2B7v160006IDnvEEOT_, symObjAddr: 0x15A40, symBinAddr: 0x100017680, symSize: 0x20 }
  - { offsetInCU: 0x3C3E9, offset: 0x3C3E9, size: 0x8, addend: 0x0, symName: __ZNSt3__122__compressed_pair_elemINS_9allocatorINS_4pairINS_12basic_stringIcNS_11char_traitsIcEENS1_IcEEEES7_EEEELi1ELb1EEC2B7v160006ENS_18__default_init_tagE, symObjAddr: 0x15A60, symBinAddr: 0x1000176A0, symSize: 0x20 }
  - { offsetInCU: 0x3C41D, offset: 0x3C41D, size: 0x8, addend: 0x0, symName: __ZNSt3__19allocatorINS_4pairINS_12basic_stringIcNS_11char_traitsIcEENS0_IcEEEES6_EEEC2B7v160006Ev, symObjAddr: 0x15A80, symBinAddr: 0x1000176C0, symSize: 0x20 }
  - { offsetInCU: 0x3C447, offset: 0x3C447, size: 0x8, addend: 0x0, symName: __ZNSt3__116__non_trivial_ifILb1ENS_9allocatorINS_4pairINS_12basic_stringIcNS_11char_traitsIcEENS1_IcEEEES7_EEEEEC2B7v160006Ev, symObjAddr: 0x15AA0, symBinAddr: 0x1000176E0, symSize: 0x10 }
  - { offsetInCU: 0x3C471, offset: 0x3C471, size: 0x8, addend: 0x0, symName: __ZNSt3__16vectorINS_4pairIccEENS_9allocatorIS2_EEEC2B7v160006Ev, symObjAddr: 0x15AB0, symBinAddr: 0x1000176F0, symSize: 0x60 }
  - { offsetInCU: 0x3C49B, offset: 0x3C49B, size: 0x8, addend: 0x0, symName: __ZNSt3__117__compressed_pairIPNS_4pairIccEENS_9allocatorIS2_EEEC1B7v160006IDnNS_18__default_init_tagEEEOT_OT0_, symObjAddr: 0x15B10, symBinAddr: 0x100017750, symSize: 0x30 }
  - { offsetInCU: 0x3C4F3, offset: 0x3C4F3, size: 0x8, addend: 0x0, symName: __ZNSt3__117__compressed_pairIPNS_4pairIccEENS_9allocatorIS2_EEEC2B7v160006IDnNS_18__default_init_tagEEEOT_OT0_, symObjAddr: 0x15B50, symBinAddr: 0x100017790, symSize: 0x40 }
  - { offsetInCU: 0x3C54B, offset: 0x3C54B, size: 0x8, addend: 0x0, symName: __ZNSt3__122__compressed_pair_elemIPNS_4pairIccEELi0ELb0EEC2B7v160006IDnvEEOT_, symObjAddr: 0x15B90, symBinAddr: 0x1000177D0, symSize: 0x20 }
  - { offsetInCU: 0x3C58D, offset: 0x3C58D, size: 0x8, addend: 0x0, symName: __ZNSt3__122__compressed_pair_elemINS_9allocatorINS_4pairIccEEEELi1ELb1EEC2B7v160006ENS_18__default_init_tagE, symObjAddr: 0x15BB0, symBinAddr: 0x1000177F0, symSize: 0x20 }
  - { offsetInCU: 0x3C5C1, offset: 0x3C5C1, size: 0x8, addend: 0x0, symName: __ZNSt3__19allocatorINS_4pairIccEEEC2B7v160006Ev, symObjAddr: 0x15BD0, symBinAddr: 0x100017810, symSize: 0x20 }
  - { offsetInCU: 0x3C5EB, offset: 0x3C5EB, size: 0x8, addend: 0x0, symName: __ZNSt3__116__non_trivial_ifILb1ENS_9allocatorINS_4pairIccEEEEEC2B7v160006Ev, symObjAddr: 0x15BF0, symBinAddr: 0x100017830, symSize: 0x10 }
  - { offsetInCU: 0x3C615, offset: 0x3C615, size: 0x8, addend: 0x0, symName: __ZNSt3__16vectorINS_12basic_stringIcNS_11char_traitsIcEENS_9allocatorIcEEEENS4_IS6_EEEC2B7v160006Ev, symObjAddr: 0x15C00, symBinAddr: 0x100017840, symSize: 0x60 }
  - { offsetInCU: 0x3C63F, offset: 0x3C63F, size: 0x8, addend: 0x0, symName: __ZNSt3__16vectorINS_4pairIccEENS_9allocatorIS2_EEED2B7v160006Ev, symObjAddr: 0x15C60, symBinAddr: 0x1000178A0, symSize: 0x40 }
  - { offsetInCU: 0x3C669, offset: 0x3C669, size: 0x8, addend: 0x0, symName: __ZNSt3__16vectorINS_4pairIccEENS_9allocatorIS2_EEE16__destroy_vectorC1ERS5_, symObjAddr: 0x15CA0, symBinAddr: 0x1000178E0, symSize: 0x30 }
  - { offsetInCU: 0x3C6A2, offset: 0x3C6A2, size: 0x8, addend: 0x0, symName: __ZNSt3__16vectorINS_4pairIccEENS_9allocatorIS2_EEE16__destroy_vectorclB7v160006Ev, symObjAddr: 0x15CD0, symBinAddr: 0x100017910, symSize: 0x90 }
  - { offsetInCU: 0x3C6C8, offset: 0x3C6C8, size: 0x8, addend: 0x0, symName: __ZNSt3__16vectorINS_4pairIccEENS_9allocatorIS2_EEE16__destroy_vectorC2ERS5_, symObjAddr: 0x15D60, symBinAddr: 0x1000179A0, symSize: 0x20 }
  - { offsetInCU: 0x3C701, offset: 0x3C701, size: 0x8, addend: 0x0, symName: __ZNKSt3__16vectorINS_4pairIccEENS_9allocatorIS2_EEE17__annotate_deleteB7v160006Ev, symObjAddr: 0x15D80, symBinAddr: 0x1000179C0, symSize: 0xB0 }
  - { offsetInCU: 0x3C727, offset: 0x3C727, size: 0x8, addend: 0x0, symName: __ZNSt3__16vectorINS_4pairIccEENS_9allocatorIS2_EEE7__clearB7v160006Ev, symObjAddr: 0x15E40, symBinAddr: 0x100017A80, symSize: 0x20 }
  - { offsetInCU: 0x3C74D, offset: 0x3C74D, size: 0x8, addend: 0x0, symName: __ZNSt3__116allocator_traitsINS_9allocatorINS_4pairIccEEEEE10deallocateB7v160006ERS4_PS3_m, symObjAddr: 0x15E60, symBinAddr: 0x100017AA0, symSize: 0x30 }
  - { offsetInCU: 0x3C78F, offset: 0x3C78F, size: 0x8, addend: 0x0, symName: __ZNSt3__16vectorINS_4pairIccEENS_9allocatorIS2_EEE7__allocB7v160006Ev, symObjAddr: 0x15E90, symBinAddr: 0x100017AD0, symSize: 0x20 }
  - { offsetInCU: 0x3C7B5, offset: 0x3C7B5, size: 0x8, addend: 0x0, symName: __ZNKSt3__16vectorINS_4pairIccEENS_9allocatorIS2_EEE8capacityB7v160006Ev, symObjAddr: 0x15EB0, symBinAddr: 0x100017AF0, symSize: 0x30 }
  - { offsetInCU: 0x3C7DB, offset: 0x3C7DB, size: 0x8, addend: 0x0, symName: __ZNKSt3__16vectorINS_4pairIccEENS_9allocatorIS2_EEE31__annotate_contiguous_containerB7v160006EPKvS7_S7_S7_, symObjAddr: 0x15EE0, symBinAddr: 0x100017B20, symSize: 0x20 }
  - { offsetInCU: 0x3C82D, offset: 0x3C82D, size: 0x8, addend: 0x0, symName: __ZNKSt3__16vectorINS_4pairIccEENS_9allocatorIS2_EEE4dataB7v160006Ev, symObjAddr: 0x15F00, symBinAddr: 0x100017B40, symSize: 0x20 }
  - { offsetInCU: 0x3C853, offset: 0x3C853, size: 0x8, addend: 0x0, symName: __ZNKSt3__16vectorINS_4pairIccEENS_9allocatorIS2_EEE4sizeB7v160006Ev, symObjAddr: 0x15F20, symBinAddr: 0x100017B60, symSize: 0x20 }
  - { offsetInCU: 0x3C879, offset: 0x3C879, size: 0x8, addend: 0x0, symName: __ZNSt3__16vectorINS_4pairIccEENS_9allocatorIS2_EEE22__base_destruct_at_endB7v160006EPS2_, symObjAddr: 0x15F50, symBinAddr: 0x100017B90, symSize: 0x80 }
  - { offsetInCU: 0x3C8BD, offset: 0x3C8BD, size: 0x8, addend: 0x0, symName: __ZNSt3__116allocator_traitsINS_9allocatorINS_4pairIccEEEEE7destroyB7v160006IS3_vEEvRS4_PT_, symObjAddr: 0x15FD0, symBinAddr: 0x100017C10, symSize: 0x30 }
  - { offsetInCU: 0x3C8FA, offset: 0x3C8FA, size: 0x8, addend: 0x0, symName: __ZNSt3__19allocatorINS_4pairIccEEE7destroyB7v160006EPS2_, symObjAddr: 0x16000, symBinAddr: 0x100017C40, symSize: 0x10 }
  - { offsetInCU: 0x3C92E, offset: 0x3C92E, size: 0x8, addend: 0x0, symName: __ZNSt3__19allocatorINS_4pairIccEEE10deallocateB7v160006EPS2_m, symObjAddr: 0x16010, symBinAddr: 0x100017C50, symSize: 0x40 }
  - { offsetInCU: 0x3C970, offset: 0x3C970, size: 0x8, addend: 0x0, symName: __ZNSt3__117__compressed_pairIPNS_4pairIccEENS_9allocatorIS2_EEE6secondB7v160006Ev, symObjAddr: 0x16050, symBinAddr: 0x100017C90, symSize: 0x20 }
  - { offsetInCU: 0x3C996, offset: 0x3C996, size: 0x8, addend: 0x0, symName: __ZNSt3__122__compressed_pair_elemINS_9allocatorINS_4pairIccEEEELi1ELb1EE5__getB7v160006Ev, symObjAddr: 0x16070, symBinAddr: 0x100017CB0, symSize: 0x10 }
  - { offsetInCU: 0x3C9BC, offset: 0x3C9BC, size: 0x8, addend: 0x0, symName: __ZNKSt3__16vectorINS_4pairIccEENS_9allocatorIS2_EEE9__end_capB7v160006Ev, symObjAddr: 0x16080, symBinAddr: 0x100017CC0, symSize: 0x20 }
  - { offsetInCU: 0x3C9E2, offset: 0x3C9E2, size: 0x8, addend: 0x0, symName: __ZNKSt3__117__compressed_pairIPNS_4pairIccEENS_9allocatorIS2_EEE5firstB7v160006Ev, symObjAddr: 0x160A0, symBinAddr: 0x100017CE0, symSize: 0x20 }
  - { offsetInCU: 0x3CA08, offset: 0x3CA08, size: 0x8, addend: 0x0, symName: __ZNKSt3__122__compressed_pair_elemIPNS_4pairIccEELi0ELb0EE5__getB7v160006Ev, symObjAddr: 0x160C0, symBinAddr: 0x100017D00, symSize: 0x10 }
  - { offsetInCU: 0x3CA2E, offset: 0x3CA2E, size: 0x8, addend: 0x0, symName: __ZNSt3__16vectorINS_4pairINS_12basic_stringIcNS_11char_traitsIcEENS_9allocatorIcEEEES7_EENS5_IS8_EEED2B7v160006Ev, symObjAddr: 0x160D0, symBinAddr: 0x100017D10, symSize: 0x40 }
  - { offsetInCU: 0x3CA58, offset: 0x3CA58, size: 0x8, addend: 0x0, symName: __ZNSt3__16vectorINS_4pairINS_12basic_stringIcNS_11char_traitsIcEENS_9allocatorIcEEEES7_EENS5_IS8_EEE16__destroy_vectorC1ERSA_, symObjAddr: 0x16110, symBinAddr: 0x100017D50, symSize: 0x30 }
  - { offsetInCU: 0x3CA91, offset: 0x3CA91, size: 0x8, addend: 0x0, symName: __ZNSt3__16vectorINS_4pairINS_12basic_stringIcNS_11char_traitsIcEENS_9allocatorIcEEEES7_EENS5_IS8_EEE16__destroy_vectorclB7v160006Ev, symObjAddr: 0x16140, symBinAddr: 0x100017D80, symSize: 0x90 }
  - { offsetInCU: 0x3CAB7, offset: 0x3CAB7, size: 0x8, addend: 0x0, symName: __ZNSt3__16vectorINS_4pairINS_12basic_stringIcNS_11char_traitsIcEENS_9allocatorIcEEEES7_EENS5_IS8_EEE16__destroy_vectorC2ERSA_, symObjAddr: 0x161D0, symBinAddr: 0x100017E10, symSize: 0x20 }
  - { offsetInCU: 0x3CAF0, offset: 0x3CAF0, size: 0x8, addend: 0x0, symName: __ZNKSt3__16vectorINS_4pairINS_12basic_stringIcNS_11char_traitsIcEENS_9allocatorIcEEEES7_EENS5_IS8_EEE17__annotate_deleteB7v160006Ev, symObjAddr: 0x161F0, symBinAddr: 0x100017E30, symSize: 0xB0 }
  - { offsetInCU: 0x3CB16, offset: 0x3CB16, size: 0x8, addend: 0x0, symName: __ZNSt3__16vectorINS_4pairINS_12basic_stringIcNS_11char_traitsIcEENS_9allocatorIcEEEES7_EENS5_IS8_EEE7__clearB7v160006Ev, symObjAddr: 0x162B0, symBinAddr: 0x100017EF0, symSize: 0x20 }
  - { offsetInCU: 0x3CB3C, offset: 0x3CB3C, size: 0x8, addend: 0x0, symName: __ZNSt3__116allocator_traitsINS_9allocatorINS_4pairINS_12basic_stringIcNS_11char_traitsIcEENS1_IcEEEES7_EEEEE10deallocateB7v160006ERS9_PS8_m, symObjAddr: 0x162D0, symBinAddr: 0x100017F10, symSize: 0x30 }
  - { offsetInCU: 0x3CB7E, offset: 0x3CB7E, size: 0x8, addend: 0x0, symName: __ZNSt3__16vectorINS_4pairINS_12basic_stringIcNS_11char_traitsIcEENS_9allocatorIcEEEES7_EENS5_IS8_EEE7__allocB7v160006Ev, symObjAddr: 0x16300, symBinAddr: 0x100017F40, symSize: 0x20 }
  - { offsetInCU: 0x3CBA4, offset: 0x3CBA4, size: 0x8, addend: 0x0, symName: __ZNKSt3__16vectorINS_4pairINS_12basic_stringIcNS_11char_traitsIcEENS_9allocatorIcEEEES7_EENS5_IS8_EEE8capacityB7v160006Ev, symObjAddr: 0x16320, symBinAddr: 0x100017F60, symSize: 0x40 }
  - { offsetInCU: 0x3CBCA, offset: 0x3CBCA, size: 0x8, addend: 0x0, symName: __ZNKSt3__16vectorINS_4pairINS_12basic_stringIcNS_11char_traitsIcEENS_9allocatorIcEEEES7_EENS5_IS8_EEE31__annotate_contiguous_containerB7v160006EPKvSC_SC_SC_, symObjAddr: 0x16360, symBinAddr: 0x100017FA0, symSize: 0x20 }
  - { offsetInCU: 0x3CC1C, offset: 0x3CC1C, size: 0x8, addend: 0x0, symName: __ZNKSt3__16vectorINS_4pairINS_12basic_stringIcNS_11char_traitsIcEENS_9allocatorIcEEEES7_EENS5_IS8_EEE4dataB7v160006Ev, symObjAddr: 0x16380, symBinAddr: 0x100017FC0, symSize: 0x20 }
  - { offsetInCU: 0x3CC42, offset: 0x3CC42, size: 0x8, addend: 0x0, symName: __ZNKSt3__16vectorINS_4pairINS_12basic_stringIcNS_11char_traitsIcEENS_9allocatorIcEEEES7_EENS5_IS8_EEE4sizeB7v160006Ev, symObjAddr: 0x163A0, symBinAddr: 0x100017FE0, symSize: 0x30 }
  - { offsetInCU: 0x3CC68, offset: 0x3CC68, size: 0x8, addend: 0x0, symName: __ZNSt3__16vectorINS_4pairINS_12basic_stringIcNS_11char_traitsIcEENS_9allocatorIcEEEES7_EENS5_IS8_EEE22__base_destruct_at_endB7v160006EPS8_, symObjAddr: 0x163E0, symBinAddr: 0x100018020, symSize: 0x80 }
  - { offsetInCU: 0x3CCAC, offset: 0x3CCAC, size: 0x8, addend: 0x0, symName: __ZNSt3__116allocator_traitsINS_9allocatorINS_4pairINS_12basic_stringIcNS_11char_traitsIcEENS1_IcEEEES7_EEEEE7destroyB7v160006IS8_vEEvRS9_PT_, symObjAddr: 0x16460, symBinAddr: 0x1000180A0, symSize: 0x30 }
  - { offsetInCU: 0x3CCE9, offset: 0x3CCE9, size: 0x8, addend: 0x0, symName: __ZNSt3__19allocatorINS_4pairINS_12basic_stringIcNS_11char_traitsIcEENS0_IcEEEES6_EEE7destroyB7v160006EPS7_, symObjAddr: 0x16490, symBinAddr: 0x1000180D0, symSize: 0x20 }
  - { offsetInCU: 0x3CD1D, offset: 0x3CD1D, size: 0x8, addend: 0x0, symName: __ZNSt3__14pairINS_12basic_stringIcNS_11char_traitsIcEENS_9allocatorIcEEEES6_ED1Ev, symObjAddr: 0x164B0, symBinAddr: 0x1000180F0, symSize: 0x20 }
  - { offsetInCU: 0x3CD49, offset: 0x3CD49, size: 0x8, addend: 0x0, symName: __ZNSt3__14pairINS_12basic_stringIcNS_11char_traitsIcEENS_9allocatorIcEEEES6_ED2Ev, symObjAddr: 0x164D0, symBinAddr: 0x100018110, symSize: 0x30 }
  - { offsetInCU: 0x3CD75, offset: 0x3CD75, size: 0x8, addend: 0x0, symName: __ZNSt3__19allocatorINS_4pairINS_12basic_stringIcNS_11char_traitsIcEENS0_IcEEEES6_EEE10deallocateB7v160006EPS7_m, symObjAddr: 0x16500, symBinAddr: 0x100018140, symSize: 0x50 }
  - { offsetInCU: 0x3CDB7, offset: 0x3CDB7, size: 0x8, addend: 0x0, symName: __ZNSt3__117__compressed_pairIPNS_4pairINS_12basic_stringIcNS_11char_traitsIcEENS_9allocatorIcEEEES7_EENS5_IS8_EEE6secondB7v160006Ev, symObjAddr: 0x16550, symBinAddr: 0x100018190, symSize: 0x20 }
  - { offsetInCU: 0x3CDDD, offset: 0x3CDDD, size: 0x8, addend: 0x0, symName: __ZNSt3__122__compressed_pair_elemINS_9allocatorINS_4pairINS_12basic_stringIcNS_11char_traitsIcEENS1_IcEEEES7_EEEELi1ELb1EE5__getB7v160006Ev, symObjAddr: 0x16570, symBinAddr: 0x1000181B0, symSize: 0x10 }
  - { offsetInCU: 0x3CE03, offset: 0x3CE03, size: 0x8, addend: 0x0, symName: __ZNKSt3__16vectorINS_4pairINS_12basic_stringIcNS_11char_traitsIcEENS_9allocatorIcEEEES7_EENS5_IS8_EEE9__end_capB7v160006Ev, symObjAddr: 0x16580, symBinAddr: 0x1000181C0, symSize: 0x20 }
  - { offsetInCU: 0x3CE29, offset: 0x3CE29, size: 0x8, addend: 0x0, symName: __ZNKSt3__117__compressed_pairIPNS_4pairINS_12basic_stringIcNS_11char_traitsIcEENS_9allocatorIcEEEES7_EENS5_IS8_EEE5firstB7v160006Ev, symObjAddr: 0x165A0, symBinAddr: 0x1000181E0, symSize: 0x20 }
  - { offsetInCU: 0x3CE4F, offset: 0x3CE4F, size: 0x8, addend: 0x0, symName: __ZNKSt3__122__compressed_pair_elemIPNS_4pairINS_12basic_stringIcNS_11char_traitsIcEENS_9allocatorIcEEEES7_EELi0ELb0EE5__getB7v160006Ev, symObjAddr: 0x165C0, symBinAddr: 0x100018200, symSize: 0x10 }
  - { offsetInCU: 0x3CE75, offset: 0x3CE75, size: 0x8, addend: 0x0, symName: __ZNSt3__16vectorIcNS_9allocatorIcEEED2B7v160006Ev, symObjAddr: 0x165D0, symBinAddr: 0x100018210, symSize: 0x40 }
  - { offsetInCU: 0x3CE9F, offset: 0x3CE9F, size: 0x8, addend: 0x0, symName: __ZNSt3__16vectorIcNS_9allocatorIcEEE16__destroy_vectorC1ERS3_, symObjAddr: 0x16610, symBinAddr: 0x100018250, symSize: 0x30 }
  - { offsetInCU: 0x3CED8, offset: 0x3CED8, size: 0x8, addend: 0x0, symName: __ZNSt3__16vectorIcNS_9allocatorIcEEE16__destroy_vectorclB7v160006Ev, symObjAddr: 0x16640, symBinAddr: 0x100018280, symSize: 0x90 }
  - { offsetInCU: 0x3CEFE, offset: 0x3CEFE, size: 0x8, addend: 0x0, symName: __ZNSt3__16vectorIcNS_9allocatorIcEEE16__destroy_vectorC2ERS3_, symObjAddr: 0x166D0, symBinAddr: 0x100018310, symSize: 0x20 }
  - { offsetInCU: 0x3CF37, offset: 0x3CF37, size: 0x8, addend: 0x0, symName: __ZNKSt3__16vectorIcNS_9allocatorIcEEE17__annotate_deleteB7v160006Ev, symObjAddr: 0x166F0, symBinAddr: 0x100018330, symSize: 0xA0 }
  - { offsetInCU: 0x3CF5D, offset: 0x3CF5D, size: 0x8, addend: 0x0, symName: __ZNSt3__16vectorIcNS_9allocatorIcEEE7__clearB7v160006Ev, symObjAddr: 0x167A0, symBinAddr: 0x1000183E0, symSize: 0x20 }
  - { offsetInCU: 0x3CF83, offset: 0x3CF83, size: 0x8, addend: 0x0, symName: __ZNSt3__16vectorIcNS_9allocatorIcEEE7__allocB7v160006Ev, symObjAddr: 0x167C0, symBinAddr: 0x100018400, symSize: 0x20 }
  - { offsetInCU: 0x3CFA9, offset: 0x3CFA9, size: 0x8, addend: 0x0, symName: __ZNKSt3__16vectorIcNS_9allocatorIcEEE8capacityB7v160006Ev, symObjAddr: 0x167E0, symBinAddr: 0x100018420, symSize: 0x30 }
  - { offsetInCU: 0x3CFCF, offset: 0x3CFCF, size: 0x8, addend: 0x0, symName: __ZNKSt3__16vectorIcNS_9allocatorIcEEE31__annotate_contiguous_containerB7v160006EPKvS5_S5_S5_, symObjAddr: 0x16810, symBinAddr: 0x100018450, symSize: 0x20 }
  - { offsetInCU: 0x3D021, offset: 0x3D021, size: 0x8, addend: 0x0, symName: __ZNKSt3__16vectorIcNS_9allocatorIcEEE4dataB7v160006Ev, symObjAddr: 0x16830, symBinAddr: 0x100018470, symSize: 0x20 }
  - { offsetInCU: 0x3D047, offset: 0x3D047, size: 0x8, addend: 0x0, symName: __ZNKSt3__16vectorIcNS_9allocatorIcEEE4sizeB7v160006Ev, symObjAddr: 0x16850, symBinAddr: 0x100018490, symSize: 0x20 }
  - { offsetInCU: 0x3D06D, offset: 0x3D06D, size: 0x8, addend: 0x0, symName: __ZNSt3__16vectorIcNS_9allocatorIcEEE22__base_destruct_at_endB7v160006EPc, symObjAddr: 0x16870, symBinAddr: 0x1000184B0, symSize: 0x80 }
  - { offsetInCU: 0x3D0B1, offset: 0x3D0B1, size: 0x8, addend: 0x0, symName: __ZNSt3__116allocator_traitsINS_9allocatorIcEEE7destroyB7v160006IcvEEvRS2_PT_, symObjAddr: 0x168F0, symBinAddr: 0x100018530, symSize: 0x30 }
  - { offsetInCU: 0x3D0EE, offset: 0x3D0EE, size: 0x8, addend: 0x0, symName: __ZNSt3__19allocatorIcE7destroyB7v160006EPc, symObjAddr: 0x16920, symBinAddr: 0x100018560, symSize: 0x10 }
  - { offsetInCU: 0x3D122, offset: 0x3D122, size: 0x8, addend: 0x0, symName: __ZNSt3__117__compressed_pairIPcNS_9allocatorIcEEE6secondB7v160006Ev, symObjAddr: 0x16930, symBinAddr: 0x100018570, symSize: 0x20 }
  - { offsetInCU: 0x3D148, offset: 0x3D148, size: 0x8, addend: 0x0, symName: __ZNKSt3__16vectorIcNS_9allocatorIcEEE9__end_capB7v160006Ev, symObjAddr: 0x16950, symBinAddr: 0x100018590, symSize: 0x20 }
  - { offsetInCU: 0x3D16E, offset: 0x3D16E, size: 0x8, addend: 0x0, symName: __ZNKSt3__117__compressed_pairIPcNS_9allocatorIcEEE5firstB7v160006Ev, symObjAddr: 0x16970, symBinAddr: 0x1000185B0, symSize: 0x20 }
  - { offsetInCU: 0x3D194, offset: 0x3D194, size: 0x8, addend: 0x0, symName: __ZNKSt3__122__compressed_pair_elemIPcLi0ELb0EE5__getB7v160006Ev, symObjAddr: 0x16990, symBinAddr: 0x1000185D0, symSize: 0x10 }
  - { offsetInCU: 0x3D1BA, offset: 0x3D1BA, size: 0x8, addend: 0x0, symName: __ZNSt3__120__bracket_expressionIcNS_12regex_traitsIcEEED2Ev, symObjAddr: 0x169A0, symBinAddr: 0x1000185E0, symSize: 0x80 }
  - { offsetInCU: 0x3D1E7, offset: 0x3D1E7, size: 0x8, addend: 0x0, symName: __ZNSt3__14pairIccEC1B7v160006ILb1ELPv0EEERKcS5_, symObjAddr: 0x16A20, symBinAddr: 0x100018660, symSize: 0x30 }
  - { offsetInCU: 0x3D23D, offset: 0x3D23D, size: 0x8, addend: 0x0, symName: __ZNKSt3__112regex_traitsIcE18lookup_collatenameB7v160006IPcEENS_12basic_stringIcNS_11char_traitsIcEENS_9allocatorIcEEEET_SA_, symObjAddr: 0x16A50, symBinAddr: 0x100018690, symSize: 0x40 }
  - { offsetInCU: 0x3D28A, offset: 0x3D28A, size: 0x8, addend: 0x0, symName: __ZNKSt3__112basic_stringIcNS_11char_traitsIcEENS_9allocatorIcEEE5emptyB7v160006Ev, symObjAddr: 0x16A90, symBinAddr: 0x1000186D0, symSize: 0x30 }
  - { offsetInCU: 0x3D2B0, offset: 0x3D2B0, size: 0x8, addend: 0x0, symName: __ZNKSt3__16vectorINS_4pairIccEENS_9allocatorIS2_EEEixB7v160006Em, symObjAddr: 0x16B10, symBinAddr: 0x100018750, symSize: 0x20 }
  - { offsetInCU: 0x3D2E7, offset: 0x3D2E7, size: 0x8, addend: 0x0, symName: __ZNKSt3__16vectorINS_4pairINS_12basic_stringIcNS_11char_traitsIcEENS_9allocatorIcEEEES7_EENS5_IS8_EEE5emptyB7v160006Ev, symObjAddr: 0x16B30, symBinAddr: 0x100018770, symSize: 0x20 }
  - { offsetInCU: 0x3D33D, offset: 0x3D33D, size: 0x8, addend: 0x0, symName: __ZNKSt3__112regex_traitsIcE9transformIPcEENS_12basic_stringIcNS_11char_traitsIcEENS_9allocatorIcEEEET_SA_, symObjAddr: 0x16B50, symBinAddr: 0x100018790, symSize: 0x110 }
  - { offsetInCU: 0x3D3CE, offset: 0x3D3CE, size: 0x8, addend: 0x0, symName: __ZNKSt3__16vectorINS_4pairINS_12basic_stringIcNS_11char_traitsIcEENS_9allocatorIcEEEES7_EENS5_IS8_EEEixB7v160006Em, symObjAddr: 0x16C90, symBinAddr: 0x1000188D0, symSize: 0x20 }
  - { offsetInCU: 0x3D405, offset: 0x3D405, size: 0x8, addend: 0x0, symName: __ZNKSt3__16vectorINS_12basic_stringIcNS_11char_traitsIcEENS_9allocatorIcEEEENS4_IS6_EEE5emptyB7v160006Ev, symObjAddr: 0x16CB0, symBinAddr: 0x1000188F0, symSize: 0x20 }
  - { offsetInCU: 0x3D42B, offset: 0x3D42B, size: 0x8, addend: 0x0, symName: __ZNKSt3__112regex_traitsIcE17transform_primaryB7v160006IPcEENS_12basic_stringIcNS_11char_traitsIcEENS_9allocatorIcEEEET_SA_, symObjAddr: 0x16CD0, symBinAddr: 0x100018910, symSize: 0x40 }
  - { offsetInCU: 0x3D478, offset: 0x3D478, size: 0x8, addend: 0x0, symName: __ZNKSt3__16vectorINS_12basic_stringIcNS_11char_traitsIcEENS_9allocatorIcEEEENS4_IS6_EEEixB7v160006Em, symObjAddr: 0x16D10, symBinAddr: 0x100018950, symSize: 0x20 }
  - { offsetInCU: 0x3D4AF, offset: 0x3D4AF, size: 0x8, addend: 0x0, symName: __ZNKSt3__16vectorIcNS_9allocatorIcEEEixB7v160006Em, symObjAddr: 0x16D30, symBinAddr: 0x100018970, symSize: 0x20 }
  - { offsetInCU: 0x3D4E6, offset: 0x3D4E6, size: 0x8, addend: 0x0, symName: __ZNKSt3__16vectorIcNS_9allocatorIcEEE5emptyB7v160006Ev, symObjAddr: 0x16D50, symBinAddr: 0x100018990, symSize: 0x20 }
  - { offsetInCU: 0x3D50C, offset: 0x3D50C, size: 0x8, addend: 0x0, symName: __ZNKSt3__16vectorIcNS_9allocatorIcEEE5beginB7v160006Ev, symObjAddr: 0x16E20, symBinAddr: 0x100018A60, symSize: 0x30 }
  - { offsetInCU: 0x3D534, offset: 0x3D534, size: 0x8, addend: 0x0, symName: __ZNKSt3__16vectorIcNS_9allocatorIcEEE3endB7v160006Ev, symObjAddr: 0x16E50, symBinAddr: 0x100018A90, symSize: 0x30 }
  - { offsetInCU: 0x3D55C, offset: 0x3D55C, size: 0x8, addend: 0x0, symName: __ZNSt3__14pairIccEC2B7v160006ILb1ELPv0EEERKcS5_, symObjAddr: 0x16E80, symBinAddr: 0x100018AC0, symSize: 0x30 }
  - { offsetInCU: 0x3D5B2, offset: 0x3D5B2, size: 0x8, addend: 0x0, symName: __ZNKSt3__112regex_traitsIcE20__lookup_collatenameIPcEENS_12basic_stringIcNS_11char_traitsIcEENS_9allocatorIcEEEET_SA_c, symObjAddr: 0x16EB0, symBinAddr: 0x100018AF0, symSize: 0x250 }
  - { offsetInCU: 0x3D65F, offset: 0x3D65F, size: 0x8, addend: 0x0, symName: __ZNSt3__112basic_stringIcNS_11char_traitsIcEENS_9allocatorIcEEEC1B7v160006IPcvEET_S8_, symObjAddr: 0x17100, symBinAddr: 0x100018D40, symSize: 0x30 }
  - { offsetInCU: 0x3D6B1, offset: 0x3D6B1, size: 0x8, addend: 0x0, symName: __ZNKSt3__112basic_stringIcNS_11char_traitsIcEENS_9allocatorIcEEE5c_strB7v160006Ev, symObjAddr: 0x17130, symBinAddr: 0x100018D70, symSize: 0x20 }
  - { offsetInCU: 0x3D6D7, offset: 0x3D6D7, size: 0x8, addend: 0x0, symName: __ZNSt3__112basic_stringIcNS_11char_traitsIcEENS_9allocatorIcEEE5clearB7v160006Ev, symObjAddr: 0x17150, symBinAddr: 0x100018D90, symSize: 0xA0 }
  - { offsetInCU: 0x3D6FF, offset: 0x3D6FF, size: 0x8, addend: 0x0, symName: __ZNSt3__112basic_stringIcNS_11char_traitsIcEENS_9allocatorIcEEEC2B7v160006IPcvEET_S8_, symObjAddr: 0x171F0, symBinAddr: 0x100018E30, symSize: 0x50 }
  - { offsetInCU: 0x3D751, offset: 0x3D751, size: 0x8, addend: 0x0, symName: __ZNSt3__112basic_stringIcNS_11char_traitsIcEENS_9allocatorIcEEE6__initIPcEENS_9enable_ifIXsr27__is_cpp17_forward_iteratorIT_EE5valueEvE4typeES9_S9_, symObjAddr: 0x17240, symBinAddr: 0x100018E80, symSize: 0x150 }
  - { offsetInCU: 0x3D7DB, offset: 0x3D7DB, size: 0x8, addend: 0x0, symName: __ZNKSt3__112basic_stringIcNS_11char_traitsIcEENS_9allocatorIcEEE8max_sizeB7v160006Ev, symObjAddr: 0x173C0, symBinAddr: 0x100019000, symSize: 0xA0 }
  - { offsetInCU: 0x3D82D, offset: 0x3D82D, size: 0x8, addend: 0x0, symName: __ZNKSt3__112basic_stringIcNS_11char_traitsIcEENS_9allocatorIcEEE20__throw_length_errorB7v160006Ev, symObjAddr: 0x17460, symBinAddr: 0x1000190A0, symSize: 0x20 }
  - { offsetInCU: 0x3D853, offset: 0x3D853, size: 0x8, addend: 0x0, symName: __ZNSt3__112basic_stringIcNS_11char_traitsIcEENS_9allocatorIcEEE13__fits_in_ssoB7v160006Em, symObjAddr: 0x17480, symBinAddr: 0x1000190C0, symSize: 0x20 }
  - { offsetInCU: 0x3D877, offset: 0x3D877, size: 0x8, addend: 0x0, symName: __ZNSt3__112basic_stringIcNS_11char_traitsIcEENS_9allocatorIcEEE11__recommendB7v160006Em, symObjAddr: 0x174E0, symBinAddr: 0x100019120, symSize: 0x70 }
  - { offsetInCU: 0x3D8AA, offset: 0x3D8AA, size: 0x8, addend: 0x0, symName: __ZNSt3__112basic_stringIcNS_11char_traitsIcEENS_9allocatorIcEEE16__begin_lifetimeB7v160006EPcm, symObjAddr: 0x17550, symBinAddr: 0x100019190, symSize: 0x10 }
  - { offsetInCU: 0x3D8DD, offset: 0x3D8DD, size: 0x8, addend: 0x0, symName: __ZNSt3__112basic_stringIcNS_11char_traitsIcEENS_9allocatorIcEEE18__set_long_pointerB7v160006EPc, symObjAddr: 0x17560, symBinAddr: 0x1000191A0, symSize: 0x30 }
  - { offsetInCU: 0x3D912, offset: 0x3D912, size: 0x8, addend: 0x0, symName: __ZNSt3__112basic_stringIcNS_11char_traitsIcEENS_9allocatorIcEEE14__set_long_capB7v160006Em, symObjAddr: 0x17590, symBinAddr: 0x1000191D0, symSize: 0x70 }
  - { offsetInCU: 0x3D947, offset: 0x3D947, size: 0x8, addend: 0x0, symName: __ZNSt3__112basic_stringIcNS_11char_traitsIcEENS_9allocatorIcEEE15__set_long_sizeB7v160006Em, symObjAddr: 0x17600, symBinAddr: 0x100019240, symSize: 0x30 }
  - { offsetInCU: 0x3D987, offset: 0x3D987, size: 0x8, addend: 0x0, symName: __ZNSt3__116allocator_traitsINS_9allocatorIcEEE8max_sizeB7v160006IS2_vEEmRKS2_, symObjAddr: 0x17650, symBinAddr: 0x100019290, symSize: 0x20 }
  - { offsetInCU: 0x3D9B5, offset: 0x3D9B5, size: 0x8, addend: 0x0, symName: __ZNKSt3__112basic_stringIcNS_11char_traitsIcEENS_9allocatorIcEEE7__allocB7v160006Ev, symObjAddr: 0x17670, symBinAddr: 0x1000192B0, symSize: 0x20 }
  - { offsetInCU: 0x3D9DB, offset: 0x3D9DB, size: 0x8, addend: 0x0, symName: __ZNSt3__114numeric_limitsImE3maxB7v160006Ev, symObjAddr: 0x17690, symBinAddr: 0x1000192D0, symSize: 0x10 }
  - { offsetInCU: 0x3D9EF, offset: 0x3D9EF, size: 0x8, addend: 0x0, symName: __ZNKSt3__19allocatorIcE8max_sizeB7v160006Ev, symObjAddr: 0x176A0, symBinAddr: 0x1000192E0, symSize: 0x20 }
  - { offsetInCU: 0x3DA15, offset: 0x3DA15, size: 0x8, addend: 0x0, symName: __ZNKSt3__117__compressed_pairINS_12basic_stringIcNS_11char_traitsIcEENS_9allocatorIcEEE5__repES5_E6secondB7v160006Ev, symObjAddr: 0x176C0, symBinAddr: 0x100019300, symSize: 0x20 }
  - { offsetInCU: 0x3DA3B, offset: 0x3DA3B, size: 0x8, addend: 0x0, symName: __ZNKSt3__122__compressed_pair_elemINS_9allocatorIcEELi1ELb1EE5__getB7v160006Ev, symObjAddr: 0x176E0, symBinAddr: 0x100019320, symSize: 0x10 }
  - { offsetInCU: 0x3DA61, offset: 0x3DA61, size: 0x8, addend: 0x0, symName: __ZNSt3__123__libcpp_numeric_limitsImLb1EE3maxB7v160006Ev, symObjAddr: 0x176F0, symBinAddr: 0x100019330, symSize: 0x10 }
  - { offsetInCU: 0x3DA75, offset: 0x3DA75, size: 0x8, addend: 0x0, symName: __ZNSt3__19allocatorIcE8allocateB7v160006Em, symObjAddr: 0x17700, symBinAddr: 0x100019340, symSize: 0x50 }
  - { offsetInCU: 0x3DAA9, offset: 0x3DAA9, size: 0x8, addend: 0x0, symName: __ZNSt3__112basic_stringIcNS_11char_traitsIcEENS_9allocatorIcEEE10__align_itB7v160006ILm16EEEmm, symObjAddr: 0x17750, symBinAddr: 0x100019390, symSize: 0x20 }
  - { offsetInCU: 0x3DAD7, offset: 0x3DAD7, size: 0x8, addend: 0x0, symName: __ZNKSt3__112basic_stringIcNS_11char_traitsIcEENS_9allocatorIcEEE7compareB7v160006ERKS5_, symObjAddr: 0x177B0, symBinAddr: 0x1000193F0, symSize: 0x40 }
  - { offsetInCU: 0x3DB0E, offset: 0x3DB0E, size: 0x8, addend: 0x0, symName: __ZNKSt3__112basic_stringIcNS_11char_traitsIcEENS_9allocatorIcEEE7compareINS_17basic_string_viewIcS2_EEEENS_9enable_ifIXsr33__can_be_converted_to_string_viewIcS2_T_EE5valueEiE4typeERKSA_, symObjAddr: 0x177F0, symBinAddr: 0x100019430, symSize: 0xF0 }
  - { offsetInCU: 0x3DB8B, offset: 0x3DB8B, size: 0x8, addend: 0x0, symName: __ZNKSt3__112basic_stringIcNS_11char_traitsIcEENS_9allocatorIcEEEcvNS_17basic_string_viewIcS2_EEB7v160006Ev, symObjAddr: 0x178E0, symBinAddr: 0x100019520, symSize: 0x50 }
  - { offsetInCU: 0x3DBB1, offset: 0x3DBB1, size: 0x8, addend: 0x0, symName: __ZNKSt3__117basic_string_viewIcNS_11char_traitsIcEEE4sizeB7v160006Ev, symObjAddr: 0x17930, symBinAddr: 0x100019570, symSize: 0x20 }
  - { offsetInCU: 0x3DBD7, offset: 0x3DBD7, size: 0x8, addend: 0x0, symName: __ZNKSt3__117basic_string_viewIcNS_11char_traitsIcEEE4dataB7v160006Ev, symObjAddr: 0x17950, symBinAddr: 0x100019590, symSize: 0x20 }
  - { offsetInCU: 0x3DBFD, offset: 0x3DBFD, size: 0x8, addend: 0x0, symName: __ZNSt3__117basic_string_viewIcNS_11char_traitsIcEEEC1B7v160006EPKcm, symObjAddr: 0x17970, symBinAddr: 0x1000195B0, symSize: 0x30 }
  - { offsetInCU: 0x3DC45, offset: 0x3DC45, size: 0x8, addend: 0x0, symName: __ZNSt3__117basic_string_viewIcNS_11char_traitsIcEEEC2B7v160006EPKcm, symObjAddr: 0x179A0, symBinAddr: 0x1000195E0, symSize: 0x50 }
  - { offsetInCU: 0x3DC8D, offset: 0x3DC8D, size: 0x8, addend: 0x0, symName: __ZNKSt3__112regex_traitsIcE19__transform_primaryIPcEENS_12basic_stringIcNS_11char_traitsIcEENS_9allocatorIcEEEET_SA_c, symObjAddr: 0x179F0, symBinAddr: 0x100019630, symSize: 0x1D0 }
  - { offsetInCU: 0x3DD3A, offset: 0x3DD3A, size: 0x8, addend: 0x0, symName: __ZNSt3__112basic_stringIcNS_11char_traitsIcEENS_9allocatorIcEEEixB7v160006Em, symObjAddr: 0x17BC0, symBinAddr: 0x100019800, symSize: 0x30 }
  - { offsetInCU: 0x3DD6F, offset: 0x3DD6F, size: 0x8, addend: 0x0, symName: __ZNKSt3__111__wrap_iterIPKcE4baseB7v160006Ev, symObjAddr: 0x17C30, symBinAddr: 0x100019870, symSize: 0x20 }
  - { offsetInCU: 0x3DD95, offset: 0x3DD95, size: 0x8, addend: 0x0, symName: __ZNKSt3__111__wrap_iterIPKcEdeB7v160006Ev, symObjAddr: 0x17C50, symBinAddr: 0x100019890, symSize: 0x20 }
  - { offsetInCU: 0x3DDBB, offset: 0x3DDBB, size: 0x8, addend: 0x0, symName: __ZNSt3__111__wrap_iterIPKcEppB7v160006Ev, symObjAddr: 0x17C70, symBinAddr: 0x1000198B0, symSize: 0x20 }
  - { offsetInCU: 0x3DDE1, offset: 0x3DDE1, size: 0x8, addend: 0x0, symName: __ZNKSt3__16vectorIcNS_9allocatorIcEEE11__make_iterB7v160006EPKc, symObjAddr: 0x17C90, symBinAddr: 0x1000198D0, symSize: 0x30 }
  - { offsetInCU: 0x3DE16, offset: 0x3DE16, size: 0x8, addend: 0x0, symName: __ZNSt3__111__wrap_iterIPKcEC1B7v160006EPKvS2_, symObjAddr: 0x17CC0, symBinAddr: 0x100019900, symSize: 0x30 }
  - { offsetInCU: 0x3DE5C, offset: 0x3DE5C, size: 0x8, addend: 0x0, symName: __ZNSt3__111__wrap_iterIPKcEC2B7v160006EPKvS2_, symObjAddr: 0x17CF0, symBinAddr: 0x100019930, symSize: 0x20 }
  - { offsetInCU: 0x3DEA2, offset: 0x3DEA2, size: 0x8, addend: 0x0, symName: __ZNSt3__16vectorIcNS_9allocatorIcEEE9push_backB7v160006EOc, symObjAddr: 0x17D10, symBinAddr: 0x100019950, symSize: 0x60 }
  - { offsetInCU: 0x3DED9, offset: 0x3DED9, size: 0x8, addend: 0x0, symName: __ZNSt3__16vectorIcNS_9allocatorIcEEE9push_backB7v160006ERKc, symObjAddr: 0x17D70, symBinAddr: 0x1000199B0, symSize: 0x60 }
  - { offsetInCU: 0x3DF10, offset: 0x3DF10, size: 0x8, addend: 0x0, symName: __ZNSt3__16vectorIcNS_9allocatorIcEEE9__end_capB7v160006Ev, symObjAddr: 0x17DD0, symBinAddr: 0x100019A10, symSize: 0x20 }
  - { offsetInCU: 0x3DF3C, offset: 0x3DF3C, size: 0x8, addend: 0x0, symName: __ZNSt3__16vectorIcNS_9allocatorIcEEE22__construct_one_at_endB7v160006IJcEEEvDpOT_, symObjAddr: 0x17DF0, symBinAddr: 0x100019A30, symSize: 0x90 }
  - { offsetInCU: 0x3DF8B, offset: 0x3DF8B, size: 0x8, addend: 0x0, symName: __ZNSt3__16vectorIcNS_9allocatorIcEEE21__push_back_slow_pathIcEEvOT_, symObjAddr: 0x17E80, symBinAddr: 0x100019AC0, symSize: 0xD0 }
  - { offsetInCU: 0x3DFE9, offset: 0x3DFE9, size: 0x8, addend: 0x0, symName: __ZNSt3__117__compressed_pairIPcNS_9allocatorIcEEE5firstB7v160006Ev, symObjAddr: 0x17F50, symBinAddr: 0x100019B90, symSize: 0x20 }
  - { offsetInCU: 0x3E00F, offset: 0x3E00F, size: 0x8, addend: 0x0, symName: __ZNSt3__122__compressed_pair_elemIPcLi0ELb0EE5__getB7v160006Ev, symObjAddr: 0x17F70, symBinAddr: 0x100019BB0, symSize: 0x10 }
  - { offsetInCU: 0x3E050, offset: 0x3E050, size: 0x8, addend: 0x0, symName: __ZNSt3__16vectorIcNS_9allocatorIcEEE21_ConstructTransactionC1B7v160006ERS3_m, symObjAddr: 0x17F80, symBinAddr: 0x100019BC0, symSize: 0x30 }
  - { offsetInCU: 0x3E098, offset: 0x3E098, size: 0x8, addend: 0x0, symName: __ZNSt3__116allocator_traitsINS_9allocatorIcEEE9constructB7v160006IcJcEvEEvRS2_PT_DpOT0_, symObjAddr: 0x17FB0, symBinAddr: 0x100019BF0, symSize: 0x30 }
  - { offsetInCU: 0x3E0EF, offset: 0x3E0EF, size: 0x8, addend: 0x0, symName: __ZNSt3__16vectorIcNS_9allocatorIcEEE21_ConstructTransactionD1B7v160006Ev, symObjAddr: 0x17FE0, symBinAddr: 0x100019C20, symSize: 0x20 }
  - { offsetInCU: 0x3E119, offset: 0x3E119, size: 0x8, addend: 0x0, symName: __ZNSt3__16vectorIcNS_9allocatorIcEEE21_ConstructTransactionC2B7v160006ERS3_m, symObjAddr: 0x18000, symBinAddr: 0x100019C40, symSize: 0x40 }
  - { offsetInCU: 0x3E161, offset: 0x3E161, size: 0x8, addend: 0x0, symName: __ZNSt3__19allocatorIcE9constructB7v160006IcJcEEEvPT_DpOT0_, symObjAddr: 0x18040, symBinAddr: 0x100019C80, symSize: 0x20 }
  - { offsetInCU: 0x3E1B7, offset: 0x3E1B7, size: 0x8, addend: 0x0, symName: __ZNSt3__16vectorIcNS_9allocatorIcEEE21_ConstructTransactionD2B7v160006Ev, symObjAddr: 0x18060, symBinAddr: 0x100019CA0, symSize: 0x20 }
  - { offsetInCU: 0x3E1E1, offset: 0x3E1E1, size: 0x8, addend: 0x0, symName: __ZNKSt3__16vectorIcNS_9allocatorIcEEE11__recommendB7v160006Em, symObjAddr: 0x18080, symBinAddr: 0x100019CC0, symSize: 0xA0 }
  - { offsetInCU: 0x3E236, offset: 0x3E236, size: 0x8, addend: 0x0, symName: __ZNSt3__114__split_bufferIcRNS_9allocatorIcEEEC1EmmS3_, symObjAddr: 0x18120, symBinAddr: 0x100019D60, symSize: 0x40 }
  - { offsetInCU: 0x3E28C, offset: 0x3E28C, size: 0x8, addend: 0x0, symName: __ZNSt3__114__split_bufferIcRNS_9allocatorIcEEED1Ev, symObjAddr: 0x18290, symBinAddr: 0x100019ED0, symSize: 0x20 }
  - { offsetInCU: 0x3E2B8, offset: 0x3E2B8, size: 0x8, addend: 0x0, symName: __ZNKSt3__16vectorIcNS_9allocatorIcEEE8max_sizeEv, symObjAddr: 0x182B0, symBinAddr: 0x100019EF0, symSize: 0x60 }
  - { offsetInCU: 0x3E2E0, offset: 0x3E2E0, size: 0x8, addend: 0x0, symName: __ZNKSt3__16vectorIcNS_9allocatorIcEEE20__throw_length_errorB7v160006Ev, symObjAddr: 0x18310, symBinAddr: 0x100019F50, symSize: 0x20 }
  - { offsetInCU: 0x3E306, offset: 0x3E306, size: 0x8, addend: 0x0, symName: __ZNKSt3__16vectorIcNS_9allocatorIcEEE7__allocB7v160006Ev, symObjAddr: 0x18330, symBinAddr: 0x100019F70, symSize: 0x20 }
  - { offsetInCU: 0x3E32C, offset: 0x3E32C, size: 0x8, addend: 0x0, symName: __ZNKSt3__117__compressed_pairIPcNS_9allocatorIcEEE6secondB7v160006Ev, symObjAddr: 0x18350, symBinAddr: 0x100019F90, symSize: 0x20 }
  - { offsetInCU: 0x3E352, offset: 0x3E352, size: 0x8, addend: 0x0, symName: __ZNSt3__114__split_bufferIcRNS_9allocatorIcEEEC2EmmS3_, symObjAddr: 0x18370, symBinAddr: 0x100019FB0, symSize: 0xC0 }
  - { offsetInCU: 0x3E3C5, offset: 0x3E3C5, size: 0x8, addend: 0x0, symName: __ZNSt3__117__compressed_pairIPcRNS_9allocatorIcEEEC1B7v160006IDnS4_EEOT_OT0_, symObjAddr: 0x18430, symBinAddr: 0x10001A070, symSize: 0x30 }
  - { offsetInCU: 0x3E41D, offset: 0x3E41D, size: 0x8, addend: 0x0, symName: __ZNSt3__114__split_bufferIcRNS_9allocatorIcEEE7__allocB7v160006Ev, symObjAddr: 0x18460, symBinAddr: 0x10001A0A0, symSize: 0x20 }
  - { offsetInCU: 0x3E443, offset: 0x3E443, size: 0x8, addend: 0x0, symName: __ZNSt3__114__split_bufferIcRNS_9allocatorIcEEE9__end_capB7v160006Ev, symObjAddr: 0x18480, symBinAddr: 0x10001A0C0, symSize: 0x20 }
  - { offsetInCU: 0x3E469, offset: 0x3E469, size: 0x8, addend: 0x0, symName: __ZNSt3__117__compressed_pairIPcRNS_9allocatorIcEEEC2B7v160006IDnS4_EEOT_OT0_, symObjAddr: 0x184A0, symBinAddr: 0x10001A0E0, symSize: 0x40 }
  - { offsetInCU: 0x3E4C1, offset: 0x3E4C1, size: 0x8, addend: 0x0, symName: __ZNSt3__122__compressed_pair_elemIRNS_9allocatorIcEELi1ELb0EEC2B7v160006IS3_vEEOT_, symObjAddr: 0x184E0, symBinAddr: 0x10001A120, symSize: 0x20 }
  - { offsetInCU: 0x3E503, offset: 0x3E503, size: 0x8, addend: 0x0, symName: __ZNSt3__117__compressed_pairIPcRNS_9allocatorIcEEE6secondB7v160006Ev, symObjAddr: 0x18500, symBinAddr: 0x10001A140, symSize: 0x20 }
  - { offsetInCU: 0x3E529, offset: 0x3E529, size: 0x8, addend: 0x0, symName: __ZNSt3__122__compressed_pair_elemIRNS_9allocatorIcEELi1ELb0EE5__getB7v160006Ev, symObjAddr: 0x18520, symBinAddr: 0x10001A160, symSize: 0x20 }
  - { offsetInCU: 0x3E54F, offset: 0x3E54F, size: 0x8, addend: 0x0, symName: __ZNSt3__117__compressed_pairIPcRNS_9allocatorIcEEE5firstB7v160006Ev, symObjAddr: 0x18540, symBinAddr: 0x10001A180, symSize: 0x20 }
  - { offsetInCU: 0x3E575, offset: 0x3E575, size: 0x8, addend: 0x0, symName: __ZNSt3__116reverse_iteratorIPcEC1B7v160006ES1_, symObjAddr: 0x185D0, symBinAddr: 0x10001A210, symSize: 0x30 }
  - { offsetInCU: 0x3E5AD, offset: 0x3E5AD, size: 0x8, addend: 0x0, symName: __ZNKSt3__116reverse_iteratorIPcE4baseB7v160006Ev, symObjAddr: 0x18600, symBinAddr: 0x10001A240, symSize: 0x20 }
  - { offsetInCU: 0x3E5D3, offset: 0x3E5D3, size: 0x8, addend: 0x0, symName: __ZNKSt3__16vectorIcNS_9allocatorIcEEE14__annotate_newB7v160006Em, symObjAddr: 0x18660, symBinAddr: 0x10001A2A0, symSize: 0xA0 }
  - { offsetInCU: 0x3E62E, offset: 0x3E62E, size: 0x8, addend: 0x0, symName: __ZNKSt3__111__move_loopINS_17_ClassicAlgPolicyEEclB7v160006INS_16reverse_iteratorIPcEES6_S6_EENS_4pairIT_T1_EES8_T0_S9_, symObjAddr: 0x18B50, symBinAddr: 0x10001A790, symSize: 0xA0 }
  - { offsetInCU: 0x3E699, offset: 0x3E699, size: 0x8, addend: 0x0, symName: __ZNSt3__18_IterOpsINS_17_ClassicAlgPolicyEE11__iter_moveB7v160006IRNS_16reverse_iteratorIPcEEEENS_9enable_ifIXsr12is_referenceIDTdeclsr3stdE7declvalIRT_EEEEE5valueEDTclsr3stdE4movedeclsr3stdE7declvalISA_EEEEE4typeEOS9_, symObjAddr: 0x18D70, symBinAddr: 0x10001A9B0, symSize: 0x20 }
  - { offsetInCU: 0x3E6C5, offset: 0x3E6C5, size: 0x8, addend: 0x0, symName: __ZNKSt3__116reverse_iteratorIPcEdeB7v160006Ev, symObjAddr: 0x18D90, symBinAddr: 0x10001A9D0, symSize: 0x30 }
  - { offsetInCU: 0x3E6F9, offset: 0x3E6F9, size: 0x8, addend: 0x0, symName: __ZNSt3__116reverse_iteratorIPcEppB7v160006Ev, symObjAddr: 0x18DC0, symBinAddr: 0x10001AA00, symSize: 0x20 }
  - { offsetInCU: 0x3E71F, offset: 0x3E71F, size: 0x8, addend: 0x0, symName: __ZNSt3__18_IterOpsINS_17_ClassicAlgPolicyEE25__validate_iter_referenceB7v160006IRNS_16reverse_iteratorIPcEEEEvv, symObjAddr: 0x18DE0, symBinAddr: 0x10001AA20, symSize: 0x10 }
  - { offsetInCU: 0x3E73D, offset: 0x3E73D, size: 0x8, addend: 0x0, symName: __ZNSt3__118__unwrap_iter_implINS_16reverse_iteratorIPcEELb0EE8__unwrapB7v160006ES3_, symObjAddr: 0x18DF0, symBinAddr: 0x10001AA30, symSize: 0x20 }
  - { offsetInCU: 0x3E766, offset: 0x3E766, size: 0x8, addend: 0x0, symName: __ZNSt3__14pairINS_16reverse_iteratorIPcEES3_EC1B7v160006IS3_S3_LPv0EEEOT_OT0_, symObjAddr: 0x18E10, symBinAddr: 0x10001AA50, symSize: 0x30 }
  - { offsetInCU: 0x3E7C4, offset: 0x3E7C4, size: 0x8, addend: 0x0, symName: __ZNSt3__14pairINS_16reverse_iteratorIPcEES3_EC2B7v160006IS3_S3_LPv0EEEOT_OT0_, symObjAddr: 0x18E40, symBinAddr: 0x10001AA80, symSize: 0x40 }
  - { offsetInCU: 0x3E822, offset: 0x3E822, size: 0x8, addend: 0x0, symName: __ZNSt3__118__unwrap_iter_implINS_16reverse_iteratorIPcEELb0EE8__rewrapB7v160006ES3_S3_, symObjAddr: 0x18E80, symBinAddr: 0x10001AAC0, symSize: 0x30 }
  - { offsetInCU: 0x3E84F, offset: 0x3E84F, size: 0x8, addend: 0x0, symName: __ZNSt3__116reverse_iteratorIPcEC2B7v160006ES1_, symObjAddr: 0x18EB0, symBinAddr: 0x10001AAF0, symSize: 0x30 }
  - { offsetInCU: 0x3E887, offset: 0x3E887, size: 0x8, addend: 0x0, symName: __ZNSt3__114__split_bufferIcRNS_9allocatorIcEEED2Ev, symObjAddr: 0x18EE0, symBinAddr: 0x10001AB20, symSize: 0x70 }
  - { offsetInCU: 0x3E8B3, offset: 0x3E8B3, size: 0x8, addend: 0x0, symName: __ZNSt3__114__split_bufferIcRNS_9allocatorIcEEE5clearB7v160006Ev, symObjAddr: 0x18F50, symBinAddr: 0x10001AB90, symSize: 0x20 }
  - { offsetInCU: 0x3E8D9, offset: 0x3E8D9, size: 0x8, addend: 0x0, symName: __ZNKSt3__114__split_bufferIcRNS_9allocatorIcEEE8capacityB7v160006Ev, symObjAddr: 0x18F70, symBinAddr: 0x10001ABB0, symSize: 0x30 }
  - { offsetInCU: 0x3E8FF, offset: 0x3E8FF, size: 0x8, addend: 0x0, symName: __ZNSt3__114__split_bufferIcRNS_9allocatorIcEEE17__destruct_at_endB7v160006EPc, symObjAddr: 0x18FA0, symBinAddr: 0x10001ABE0, symSize: 0x30 }
  - { offsetInCU: 0x3E933, offset: 0x3E933, size: 0x8, addend: 0x0, symName: __ZNSt3__114__split_bufferIcRNS_9allocatorIcEEE17__destruct_at_endB7v160006EPcNS_17integral_constantIbLb0EEE, symObjAddr: 0x18FD0, symBinAddr: 0x10001AC10, symSize: 0x80 }
  - { offsetInCU: 0x3E973, offset: 0x3E973, size: 0x8, addend: 0x0, symName: __ZNKSt3__114__split_bufferIcRNS_9allocatorIcEEE9__end_capB7v160006Ev, symObjAddr: 0x19050, symBinAddr: 0x10001AC90, symSize: 0x20 }
  - { offsetInCU: 0x3E999, offset: 0x3E999, size: 0x8, addend: 0x0, symName: __ZNKSt3__117__compressed_pairIPcRNS_9allocatorIcEEE5firstB7v160006Ev, symObjAddr: 0x19070, symBinAddr: 0x10001ACB0, symSize: 0x20 }
  - { offsetInCU: 0x3E9BF, offset: 0x3E9BF, size: 0x8, addend: 0x0, symName: __ZNSt3__16vectorIcNS_9allocatorIcEEE22__construct_one_at_endB7v160006IJRKcEEEvDpOT_, symObjAddr: 0x19090, symBinAddr: 0x10001ACD0, symSize: 0x90 }
  - { offsetInCU: 0x3EA0E, offset: 0x3EA0E, size: 0x8, addend: 0x0, symName: __ZNSt3__16vectorIcNS_9allocatorIcEEE21__push_back_slow_pathIRKcEEvOT_, symObjAddr: 0x19120, symBinAddr: 0x10001AD60, symSize: 0xD0 }
  - { offsetInCU: 0x3EA6C, offset: 0x3EA6C, size: 0x8, addend: 0x0, symName: __ZNSt3__116allocator_traitsINS_9allocatorIcEEE9constructB7v160006IcJRKcEvEEvRS2_PT_DpOT0_, symObjAddr: 0x191F0, symBinAddr: 0x10001AE30, symSize: 0x30 }
  - { offsetInCU: 0x3EAC3, offset: 0x3EAC3, size: 0x8, addend: 0x0, symName: __ZNSt3__19allocatorIcE9constructB7v160006IcJRKcEEEvPT_DpOT0_, symObjAddr: 0x19220, symBinAddr: 0x10001AE60, symSize: 0x20 }
  - { offsetInCU: 0x3EB19, offset: 0x3EB19, size: 0x8, addend: 0x0, symName: __ZNKSt3__112regex_traitsIcE5valueB7v160006Eci, symObjAddr: 0x19240, symBinAddr: 0x10001AE80, symSize: 0x30 }
  - { offsetInCU: 0x3EB5D, offset: 0x3EB5D, size: 0x8, addend: 0x0, symName: __ZNKSt3__112regex_traitsIcE20__regex_traits_valueB7v160006Eci, symObjAddr: 0x19270, symBinAddr: 0x10001AEB0, symSize: 0x30 }
  - { offsetInCU: 0x3EBA1, offset: 0x3EBA1, size: 0x8, addend: 0x0, symName: __ZNSt3__112regex_traitsIcE20__regex_traits_valueEhi, symObjAddr: 0x192A0, symBinAddr: 0x10001AEE0, symSize: 0xD0 }
  - { offsetInCU: 0x3EBD6, offset: 0x3EBD6, size: 0x8, addend: 0x0, symName: __ZNSt3__111basic_regexIcNS_12regex_traitsIcEEE19__parse_follow_listIPKcEET_S7_S7_PNS_20__bracket_expressionIcS2_EE, symObjAddr: 0x19430, symBinAddr: 0x10001B070, symSize: 0x80 }
  - { offsetInCU: 0x3EC51, offset: 0x3EC51, size: 0x8, addend: 0x0, symName: __ZNSt3__111basic_regexIcNS_12regex_traitsIcEEE23__parse_expression_termIPKcEET_S7_S7_PNS_20__bracket_expressionIcS2_EE, symObjAddr: 0x194B0, symBinAddr: 0x10001B0F0, symSize: 0x6D0 }
  - { offsetInCU: 0x3ECFA, offset: 0x3ECFA, size: 0x8, addend: 0x0, symName: __ZNSt3__111basic_regexIcNS_12regex_traitsIcEEE25__parse_equivalence_classIPKcEET_S7_S7_PNS_20__bracket_expressionIcS2_EE, symObjAddr: 0x19B80, symBinAddr: 0x10001B7C0, symSize: 0x270 }
  - { offsetInCU: 0x3ED96, offset: 0x3ED96, size: 0x8, addend: 0x0, symName: __ZNSt3__111basic_regexIcNS_12regex_traitsIcEEE23__parse_character_classIPKcEET_S7_S7_PNS_20__bracket_expressionIcS2_EE, symObjAddr: 0x19DF0, symBinAddr: 0x10001BA30, symSize: 0xE0 }
  - { offsetInCU: 0x3EE2D, offset: 0x3EE2D, size: 0x8, addend: 0x0, symName: __ZNSt3__111basic_regexIcNS_12regex_traitsIcEEE24__parse_collating_symbolIPKcEET_S7_S7_RNS_12basic_stringIcNS_11char_traitsIcEENS_9allocatorIcEEEE, symObjAddr: 0x19ED0, symBinAddr: 0x10001BB10, symSize: 0xD0 }
  - { offsetInCU: 0x3EEA9, offset: 0x3EEA9, size: 0x8, addend: 0x0, symName: __ZNSt3__111basic_regexIcNS_12regex_traitsIcEEE20__parse_class_escapeIPKcEET_S7_S7_RNS_12basic_stringIcNS_11char_traitsIcEENS_9allocatorIcEEEEPNS_20__bracket_expressionIcS2_EE, symObjAddr: 0x19FA0, symBinAddr: 0x10001BBE0, symSize: 0x230 }
  - { offsetInCU: 0x3EF16, offset: 0x3EF16, size: 0x8, addend: 0x0, symName: __ZNSt3__111basic_regexIcNS_12regex_traitsIcEEE18__parse_awk_escapeIPKcEET_S7_S7_PNS_12basic_stringIcNS_11char_traitsIcEENS_9allocatorIcEEEE, symObjAddr: 0x1A1D0, symBinAddr: 0x10001BE10, symSize: 0x4F0 }
  - { offsetInCU: 0x3EF91, offset: 0x3EF91, size: 0x8, addend: 0x0, symName: __ZNSt3__120__bracket_expressionIcNS_12regex_traitsIcEEE11__add_rangeB7v160006ENS_12basic_stringIcNS_11char_traitsIcEENS_9allocatorIcEEEES9_, symObjAddr: 0x1A6C0, symBinAddr: 0x10001C300, symSize: 0x590 }
  - { offsetInCU: 0x3F04B, offset: 0x3F04B, size: 0x8, addend: 0x0, symName: __ZNSt3__112basic_stringIcNS_11char_traitsIcEENS_9allocatorIcEEEC1B7v160006EOS5_, symObjAddr: 0x1AC50, symBinAddr: 0x10001C890, symSize: 0x30 }
  - { offsetInCU: 0x3F084, offset: 0x3F084, size: 0x8, addend: 0x0, symName: __ZNSt3__120__bracket_expressionIcNS_12regex_traitsIcEEE13__add_digraphB7v160006Ecc, symObjAddr: 0x1AC80, symBinAddr: 0x10001C8C0, symSize: 0x120 }
  - { offsetInCU: 0x3F0C8, offset: 0x3F0C8, size: 0x8, addend: 0x0, symName: __ZNKSt3__112regex_traitsIcE18lookup_collatenameB7v160006IPKcEENS_12basic_stringIcNS_11char_traitsIcEENS_9allocatorIcEEEET_SB_, symObjAddr: 0x1ADE0, symBinAddr: 0x10001CA20, symSize: 0x40 }
  - { offsetInCU: 0x3F115, offset: 0x3F115, size: 0x8, addend: 0x0, symName: __ZNKSt3__112regex_traitsIcE17transform_primaryB7v160006INS_11__wrap_iterIPcEEEENS_12basic_stringIcNS_11char_traitsIcEENS_9allocatorIcEEEET_SC_, symObjAddr: 0x1AE80, symBinAddr: 0x10001CAC0, symSize: 0x50 }
  - { offsetInCU: 0x3F162, offset: 0x3F162, size: 0x8, addend: 0x0, symName: __ZNSt3__120__bracket_expressionIcNS_12regex_traitsIcEEE17__add_equivalenceB7v160006ERKNS_12basic_stringIcNS_11char_traitsIcEENS_9allocatorIcEEEE, symObjAddr: 0x1AED0, symBinAddr: 0x10001CB10, symSize: 0x30 }
  - { offsetInCU: 0x3F19D, offset: 0x3F19D, size: 0x8, addend: 0x0, symName: __ZNSt3__14pairIPKcS2_EC1B7v160006IRS2_S5_LPv0EEEOT_OT0_, symObjAddr: 0x1B220, symBinAddr: 0x10001CE60, symSize: 0x30 }
  - { offsetInCU: 0x3F1FB, offset: 0x3F1FB, size: 0x8, addend: 0x0, symName: __ZNSt3__14pairIPKcS2_EC2B7v160006IRS2_S5_LPv0EEEOT_OT0_, symObjAddr: 0x1B250, symBinAddr: 0x10001CE90, symSize: 0x30 }
  - { offsetInCU: 0x3F259, offset: 0x3F259, size: 0x8, addend: 0x0, symName: __ZNSt3__18_IterOpsINS_17_ClassicAlgPolicyEE12__advance_toB7v160006IPKcEEvRT_S6_, symObjAddr: 0x1B280, symBinAddr: 0x10001CEC0, symSize: 0x20 }
  - { offsetInCU: 0x3F29D, offset: 0x3F29D, size: 0x8, addend: 0x0, symName: __ZNKSt3__110__identityclIRKcEEOT_S5_, symObjAddr: 0x1B360, symBinAddr: 0x10001CFA0, symSize: 0x20 }
  - { offsetInCU: 0x3F2DA, offset: 0x3F2DA, size: 0x8, addend: 0x0, symName: __ZNKSt3__110__identityclIRcEEOT_S4_, symObjAddr: 0x1B380, symBinAddr: 0x10001CFC0, symSize: 0x20 }
  - { offsetInCU: 0x3F31D, offset: 0x3F31D, size: 0x8, addend: 0x0, symName: __ZNSt3__14pairIPKcS2_EC1B7v160006IRS2_S2_LPv0EEEOT_OT0_, symObjAddr: 0x1B3A0, symBinAddr: 0x10001CFE0, symSize: 0x30 }
  - { offsetInCU: 0x3F37B, offset: 0x3F37B, size: 0x8, addend: 0x0, symName: __ZNSt3__14pairIPKcS2_EC2B7v160006IRS2_S2_LPv0EEEOT_OT0_, symObjAddr: 0x1B3D0, symBinAddr: 0x10001D010, symSize: 0x30 }
  - { offsetInCU: 0x3F3D9, offset: 0x3F3D9, size: 0x8, addend: 0x0, symName: __ZNKSt3__112regex_traitsIcE20__lookup_collatenameIPKcEENS_12basic_stringIcNS_11char_traitsIcEENS_9allocatorIcEEEET_SB_c, symObjAddr: 0x1B400, symBinAddr: 0x10001D040, symSize: 0x250 }
  - { offsetInCU: 0x3F486, offset: 0x3F486, size: 0x8, addend: 0x0, symName: __ZNSt3__112basic_stringIcNS_11char_traitsIcEENS_9allocatorIcEEEC1B7v160006IPKcvEET_S9_, symObjAddr: 0x1B650, symBinAddr: 0x10001D290, symSize: 0x30 }
  - { offsetInCU: 0x3F4D8, offset: 0x3F4D8, size: 0x8, addend: 0x0, symName: __ZNSt3__112basic_stringIcNS_11char_traitsIcEENS_9allocatorIcEEEC2B7v160006IPKcvEET_S9_, symObjAddr: 0x1B680, symBinAddr: 0x10001D2C0, symSize: 0x50 }
  - { offsetInCU: 0x3F52A, offset: 0x3F52A, size: 0x8, addend: 0x0, symName: __ZNSt3__112basic_stringIcNS_11char_traitsIcEENS_9allocatorIcEEE6__initIPKcEENS_9enable_ifIXsr27__is_cpp17_forward_iteratorIT_EE5valueEvE4typeESA_SA_, symObjAddr: 0x1B6D0, symBinAddr: 0x10001D310, symSize: 0x150 }
  - { offsetInCU: 0x3F5B4, offset: 0x3F5B4, size: 0x8, addend: 0x0, symName: __ZNKSt3__112regex_traitsIcE19__transform_primaryINS_11__wrap_iterIPcEEEENS_12basic_stringIcNS_11char_traitsIcEENS_9allocatorIcEEEET_SC_c, symObjAddr: 0x1B870, symBinAddr: 0x10001D4B0, symSize: 0x1E0 }
  - { offsetInCU: 0x3F661, offset: 0x3F661, size: 0x8, addend: 0x0, symName: __ZNSt3__112basic_stringIcNS_11char_traitsIcEENS_9allocatorIcEEEC1B7v160006INS_11__wrap_iterIPcEEvEET_SA_, symObjAddr: 0x1BA50, symBinAddr: 0x10001D690, symSize: 0x30 }
  - { offsetInCU: 0x3F6B3, offset: 0x3F6B3, size: 0x8, addend: 0x0, symName: __ZNSt3__112basic_stringIcNS_11char_traitsIcEENS_9allocatorIcEEEC2B7v160006INS_11__wrap_iterIPcEEvEET_SA_, symObjAddr: 0x1BA80, symBinAddr: 0x10001D6C0, symSize: 0x60 }
  - { offsetInCU: 0x3F705, offset: 0x3F705, size: 0x8, addend: 0x0, symName: __ZNSt3__112basic_stringIcNS_11char_traitsIcEENS_9allocatorIcEEE6__initINS_11__wrap_iterIPcEEEENS_9enable_ifIXsr27__is_cpp17_forward_iteratorIT_EE5valueEvE4typeESB_SB_, symObjAddr: 0x1BAE0, symBinAddr: 0x10001D720, symSize: 0x180 }
  - { offsetInCU: 0x3F790, offset: 0x3F790, size: 0x8, addend: 0x0, symName: __ZNKSt3__111__wrap_iterIPcEdeB7v160006Ev, symObjAddr: 0x1BCD0, symBinAddr: 0x10001D910, symSize: 0x20 }
  - { offsetInCU: 0x3F7B6, offset: 0x3F7B6, size: 0x8, addend: 0x0, symName: __ZNSt3__111__wrap_iterIPcEppB7v160006Ev, symObjAddr: 0x1BCF0, symBinAddr: 0x10001D930, symSize: 0x20 }
  - { offsetInCU: 0x3F7DC, offset: 0x3F7DC, size: 0x8, addend: 0x0, symName: __ZNSt3__16vectorINS_12basic_stringIcNS_11char_traitsIcEENS_9allocatorIcEEEENS4_IS6_EEE9push_backB7v160006ERKS6_, symObjAddr: 0x1BDC0, symBinAddr: 0x10001DA00, symSize: 0x60 }
  - { offsetInCU: 0x3F813, offset: 0x3F813, size: 0x8, addend: 0x0, symName: __ZNSt3__16vectorINS_12basic_stringIcNS_11char_traitsIcEENS_9allocatorIcEEEENS4_IS6_EEE22__construct_one_at_endB7v160006IJRKS6_EEEvDpOT_, symObjAddr: 0x1BE20, symBinAddr: 0x10001DA60, symSize: 0x90 }
  - { offsetInCU: 0x3F862, offset: 0x3F862, size: 0x8, addend: 0x0, symName: __ZNSt3__16vectorINS_12basic_stringIcNS_11char_traitsIcEENS_9allocatorIcEEEENS4_IS6_EEE21__push_back_slow_pathIRKS6_EEvOT_, symObjAddr: 0x1BEB0, symBinAddr: 0x10001DAF0, symSize: 0xD0 }
  - { offsetInCU: 0x3F8C0, offset: 0x3F8C0, size: 0x8, addend: 0x0, symName: __ZNKSt3__16vectorINS_12basic_stringIcNS_11char_traitsIcEENS_9allocatorIcEEEENS4_IS6_EEE11__recommendB7v160006Em, symObjAddr: 0x1BF80, symBinAddr: 0x10001DBC0, symSize: 0xA0 }
  - { offsetInCU: 0x3F915, offset: 0x3F915, size: 0x8, addend: 0x0, symName: __ZNSt3__114__split_bufferINS_12basic_stringIcNS_11char_traitsIcEENS_9allocatorIcEEEERNS4_IS6_EEEC1EmmS8_, symObjAddr: 0x1C020, symBinAddr: 0x10001DC60, symSize: 0x40 }
  - { offsetInCU: 0x3F96B, offset: 0x3F96B, size: 0x8, addend: 0x0, symName: __ZNSt3__114__split_bufferINS_12basic_stringIcNS_11char_traitsIcEENS_9allocatorIcEEEERNS4_IS6_EEED1Ev, symObjAddr: 0x1C190, symBinAddr: 0x10001DDD0, symSize: 0x20 }
  - { offsetInCU: 0x3F997, offset: 0x3F997, size: 0x8, addend: 0x0, symName: __ZNSt3__114__split_bufferINS_12basic_stringIcNS_11char_traitsIcEENS_9allocatorIcEEEERNS4_IS6_EEEC2EmmS8_, symObjAddr: 0x1C1B0, symBinAddr: 0x10001DDF0, symSize: 0xC0 }
  - { offsetInCU: 0x3FA0A, offset: 0x3FA0A, size: 0x8, addend: 0x0, symName: __ZNSt3__117__compressed_pairIPNS_12basic_stringIcNS_11char_traitsIcEENS_9allocatorIcEEEERNS4_IS6_EEEC1B7v160006IDnS9_EEOT_OT0_, symObjAddr: 0x1C270, symBinAddr: 0x10001DEB0, symSize: 0x30 }
  - { offsetInCU: 0x3FA62, offset: 0x3FA62, size: 0x8, addend: 0x0, symName: __ZNSt3__114__split_bufferINS_12basic_stringIcNS_11char_traitsIcEENS_9allocatorIcEEEERNS4_IS6_EEE7__allocB7v160006Ev, symObjAddr: 0x1C2A0, symBinAddr: 0x10001DEE0, symSize: 0x20 }
  - { offsetInCU: 0x3FA88, offset: 0x3FA88, size: 0x8, addend: 0x0, symName: __ZNSt3__114__split_bufferINS_12basic_stringIcNS_11char_traitsIcEENS_9allocatorIcEEEERNS4_IS6_EEE9__end_capB7v160006Ev, symObjAddr: 0x1C2C0, symBinAddr: 0x10001DF00, symSize: 0x20 }
  - { offsetInCU: 0x3FAAE, offset: 0x3FAAE, size: 0x8, addend: 0x0, symName: __ZNSt3__117__compressed_pairIPNS_12basic_stringIcNS_11char_traitsIcEENS_9allocatorIcEEEERNS4_IS6_EEEC2B7v160006IDnS9_EEOT_OT0_, symObjAddr: 0x1C2E0, symBinAddr: 0x10001DF20, symSize: 0x40 }
  - { offsetInCU: 0x3FB06, offset: 0x3FB06, size: 0x8, addend: 0x0, symName: __ZNSt3__122__compressed_pair_elemIRNS_9allocatorINS_12basic_stringIcNS_11char_traitsIcEENS1_IcEEEEEELi1ELb0EEC2B7v160006IS8_vEEOT_, symObjAddr: 0x1C320, symBinAddr: 0x10001DF60, symSize: 0x20 }
  - { offsetInCU: 0x3FB48, offset: 0x3FB48, size: 0x8, addend: 0x0, symName: __ZNSt3__117__compressed_pairIPNS_12basic_stringIcNS_11char_traitsIcEENS_9allocatorIcEEEERNS4_IS6_EEE6secondB7v160006Ev, symObjAddr: 0x1C340, symBinAddr: 0x10001DF80, symSize: 0x20 }
  - { offsetInCU: 0x3FB6E, offset: 0x3FB6E, size: 0x8, addend: 0x0, symName: __ZNSt3__122__compressed_pair_elemIRNS_9allocatorINS_12basic_stringIcNS_11char_traitsIcEENS1_IcEEEEEELi1ELb0EE5__getB7v160006Ev, symObjAddr: 0x1C360, symBinAddr: 0x10001DFA0, symSize: 0x20 }
  - { offsetInCU: 0x3FB94, offset: 0x3FB94, size: 0x8, addend: 0x0, symName: __ZNSt3__117__compressed_pairIPNS_12basic_stringIcNS_11char_traitsIcEENS_9allocatorIcEEEERNS4_IS6_EEE5firstB7v160006Ev, symObjAddr: 0x1C380, symBinAddr: 0x10001DFC0, symSize: 0x20 }
  - { offsetInCU: 0x3FBBA, offset: 0x3FBBA, size: 0x8, addend: 0x0, symName: __ZNSt3__129_AllocatorDestroyRangeReverseINS_9allocatorINS_12basic_stringIcNS_11char_traitsIcEENS1_IcEEEEEENS_16reverse_iteratorIPS6_EEEC1B7v160006ERS7_RSA_SD_, symObjAddr: 0x1C5C0, symBinAddr: 0x10001E200, symSize: 0x40 }
  - { offsetInCU: 0x3FC17, offset: 0x3FC17, size: 0x8, addend: 0x0, symName: __ZNSt3__116allocator_traitsINS_9allocatorINS_12basic_stringIcNS_11char_traitsIcEENS1_IcEEEEEEE9constructB7v160006IS6_JS6_EvEEvRS7_PT_DpOT0_, symObjAddr: 0x1C600, symBinAddr: 0x10001E240, symSize: 0x30 }
  - { offsetInCU: 0x3FC6E, offset: 0x3FC6E, size: 0x8, addend: 0x0, symName: __ZNSt3__128__exception_guard_exceptionsINS_29_AllocatorDestroyRangeReverseINS_9allocatorINS_12basic_stringIcNS_11char_traitsIcEENS2_IcEEEEEENS_16reverse_iteratorIPS7_EEEEE10__completeB7v160006Ev, symObjAddr: 0x1C630, symBinAddr: 0x10001E270, symSize: 0x20 }
  - { offsetInCU: 0x3FC94, offset: 0x3FC94, size: 0x8, addend: 0x0, symName: __ZNSt3__128__exception_guard_exceptionsINS_29_AllocatorDestroyRangeReverseINS_9allocatorINS_12basic_stringIcNS_11char_traitsIcEENS2_IcEEEEEENS_16reverse_iteratorIPS7_EEEEED1B7v160006Ev, symObjAddr: 0x1C650, symBinAddr: 0x10001E290, symSize: 0x20 }
  - { offsetInCU: 0x3FCBE, offset: 0x3FCBE, size: 0x8, addend: 0x0, symName: __ZNSt3__128__exception_guard_exceptionsINS_29_AllocatorDestroyRangeReverseINS_9allocatorINS_12basic_stringIcNS_11char_traitsIcEENS2_IcEEEEEENS_16reverse_iteratorIPS7_EEEEEC1B7v160006ESC_, symObjAddr: 0x1C670, symBinAddr: 0x10001E2B0, symSize: 0x40 }
  - { offsetInCU: 0x3FCF6, offset: 0x3FCF6, size: 0x8, addend: 0x0, symName: __ZNSt3__128__exception_guard_exceptionsINS_29_AllocatorDestroyRangeReverseINS_9allocatorINS_12basic_stringIcNS_11char_traitsIcEENS2_IcEEEEEENS_16reverse_iteratorIPS7_EEEEEC2B7v160006ESC_, symObjAddr: 0x1C6B0, symBinAddr: 0x10001E2F0, symSize: 0x30 }
  - { offsetInCU: 0x3FD2E, offset: 0x3FD2E, size: 0x8, addend: 0x0, symName: __ZNSt3__129_AllocatorDestroyRangeReverseINS_9allocatorINS_12basic_stringIcNS_11char_traitsIcEENS1_IcEEEEEENS_16reverse_iteratorIPS6_EEEC2B7v160006ERS7_RSA_SD_, symObjAddr: 0x1C6E0, symBinAddr: 0x10001E320, symSize: 0x40 }
  - { offsetInCU: 0x3FD85, offset: 0x3FD85, size: 0x8, addend: 0x0, symName: __ZNSt3__19allocatorINS_12basic_stringIcNS_11char_traitsIcEENS0_IcEEEEE9constructB7v160006IS5_JS5_EEEvPT_DpOT0_, symObjAddr: 0x1C720, symBinAddr: 0x10001E360, symSize: 0x30 }
  - { offsetInCU: 0x3FDDB, offset: 0x3FDDB, size: 0x8, addend: 0x0, symName: __ZNSt3__128__exception_guard_exceptionsINS_29_AllocatorDestroyRangeReverseINS_9allocatorINS_12basic_stringIcNS_11char_traitsIcEENS2_IcEEEEEENS_16reverse_iteratorIPS7_EEEEED2B7v160006Ev, symObjAddr: 0x1C750, symBinAddr: 0x10001E390, symSize: 0x40 }
  - { offsetInCU: 0x3FE05, offset: 0x3FE05, size: 0x8, addend: 0x0, symName: __ZNKSt3__129_AllocatorDestroyRangeReverseINS_9allocatorINS_12basic_stringIcNS_11char_traitsIcEENS1_IcEEEEEENS_16reverse_iteratorIPS6_EEEclB7v160006Ev, symObjAddr: 0x1C790, symBinAddr: 0x10001E3D0, symSize: 0xF0 }
  - { offsetInCU: 0x3FE2C, offset: 0x3FE2C, size: 0x8, addend: 0x0, symName: __ZNSt3__116reverse_iteratorINS0_IPNS_12basic_stringIcNS_11char_traitsIcEENS_9allocatorIcEEEEEEEC1B7v160006ES8_, symObjAddr: 0x1C8F0, symBinAddr: 0x10001E530, symSize: 0x30 }
  - { offsetInCU: 0x3FE64, offset: 0x3FE64, size: 0x8, addend: 0x0, symName: __ZNSt3__116reverse_iteratorINS0_IPNS_12basic_stringIcNS_11char_traitsIcEENS_9allocatorIcEEEEEEEppB7v160006Ev, symObjAddr: 0x1C990, symBinAddr: 0x10001E5D0, symSize: 0x30 }
  - { offsetInCU: 0x3FE8A, offset: 0x3FE8A, size: 0x8, addend: 0x0, symName: __ZNKSt3__116reverse_iteratorINS0_IPNS_12basic_stringIcNS_11char_traitsIcEENS_9allocatorIcEEEEEEE4baseB7v160006Ev, symObjAddr: 0x1C9C0, symBinAddr: 0x10001E600, symSize: 0x20 }
  - { offsetInCU: 0x3FEB6, offset: 0x3FEB6, size: 0x8, addend: 0x0, symName: __ZNSt3__119__to_address_helperINS_16reverse_iteratorINS1_IPNS_12basic_stringIcNS_11char_traitsIcEENS_9allocatorIcEEEEEEEEvE6__callB7v160006ERKSA_, symObjAddr: 0x1C9E0, symBinAddr: 0x10001E620, symSize: 0x40 }
  - { offsetInCU: 0x3FED9, offset: 0x3FED9, size: 0x8, addend: 0x0, symName: __ZNKSt3__116reverse_iteratorINS0_IPNS_12basic_stringIcNS_11char_traitsIcEENS_9allocatorIcEEEEEEEptB7v160006Ev, symObjAddr: 0x1CA20, symBinAddr: 0x10001E660, symSize: 0x20 }
  - { offsetInCU: 0x3FEFF, offset: 0x3FEFF, size: 0x8, addend: 0x0, symName: __ZNKSt3__116reverse_iteratorINS0_IPNS_12basic_stringIcNS_11char_traitsIcEENS_9allocatorIcEEEEEEEdeB7v160006Ev, symObjAddr: 0x1CA40, symBinAddr: 0x10001E680, symSize: 0x40 }
  - { offsetInCU: 0x3FF33, offset: 0x3FF33, size: 0x8, addend: 0x0, symName: __ZNSt3__116reverse_iteratorIPNS_12basic_stringIcNS_11char_traitsIcEENS_9allocatorIcEEEEEmmB7v160006Ev, symObjAddr: 0x1CA80, symBinAddr: 0x10001E6C0, symSize: 0x20 }
  - { offsetInCU: 0x3FF59, offset: 0x3FF59, size: 0x8, addend: 0x0, symName: __ZNSt3__116reverse_iteratorINS0_IPNS_12basic_stringIcNS_11char_traitsIcEENS_9allocatorIcEEEEEEEC2B7v160006ES8_, symObjAddr: 0x1CAA0, symBinAddr: 0x10001E6E0, symSize: 0x40 }
  - { offsetInCU: 0x3FF91, offset: 0x3FF91, size: 0x8, addend: 0x0, symName: __ZNSt3__114__split_bufferINS_12basic_stringIcNS_11char_traitsIcEENS_9allocatorIcEEEERNS4_IS6_EEED2Ev, symObjAddr: 0x1CAE0, symBinAddr: 0x10001E720, symSize: 0x70 }
  - { offsetInCU: 0x3FFBD, offset: 0x3FFBD, size: 0x8, addend: 0x0, symName: __ZNSt3__114__split_bufferINS_12basic_stringIcNS_11char_traitsIcEENS_9allocatorIcEEEERNS4_IS6_EEE5clearB7v160006Ev, symObjAddr: 0x1CB50, symBinAddr: 0x10001E790, symSize: 0x20 }
  - { offsetInCU: 0x3FFE3, offset: 0x3FFE3, size: 0x8, addend: 0x0, symName: __ZNKSt3__114__split_bufferINS_12basic_stringIcNS_11char_traitsIcEENS_9allocatorIcEEEERNS4_IS6_EEE8capacityB7v160006Ev, symObjAddr: 0x1CB70, symBinAddr: 0x10001E7B0, symSize: 0x40 }
  - { offsetInCU: 0x40009, offset: 0x40009, size: 0x8, addend: 0x0, symName: __ZNSt3__114__split_bufferINS_12basic_stringIcNS_11char_traitsIcEENS_9allocatorIcEEEERNS4_IS6_EEE17__destruct_at_endB7v160006EPS6_, symObjAddr: 0x1CBB0, symBinAddr: 0x10001E7F0, symSize: 0x30 }
  - { offsetInCU: 0x4003D, offset: 0x4003D, size: 0x8, addend: 0x0, symName: __ZNSt3__114__split_bufferINS_12basic_stringIcNS_11char_traitsIcEENS_9allocatorIcEEEERNS4_IS6_EEE17__destruct_at_endB7v160006EPS6_NS_17integral_constantIbLb0EEE, symObjAddr: 0x1CBE0, symBinAddr: 0x10001E820, symSize: 0x80 }
  - { offsetInCU: 0x4007D, offset: 0x4007D, size: 0x8, addend: 0x0, symName: __ZNKSt3__114__split_bufferINS_12basic_stringIcNS_11char_traitsIcEENS_9allocatorIcEEEERNS4_IS6_EEE9__end_capB7v160006Ev, symObjAddr: 0x1CC60, symBinAddr: 0x10001E8A0, symSize: 0x20 }
  - { offsetInCU: 0x400A3, offset: 0x400A3, size: 0x8, addend: 0x0, symName: __ZNKSt3__117__compressed_pairIPNS_12basic_stringIcNS_11char_traitsIcEENS_9allocatorIcEEEERNS4_IS6_EEE5firstB7v160006Ev, symObjAddr: 0x1CC80, symBinAddr: 0x10001E8C0, symSize: 0x20 }
  - { offsetInCU: 0x400C9, offset: 0x400C9, size: 0x8, addend: 0x0, symName: __ZNKSt3__112regex_traitsIcE16lookup_classnameB7v160006IPKcEEjT_S5_b, symObjAddr: 0x1CCA0, symBinAddr: 0x10001E8E0, symSize: 0x40 }
  - { offsetInCU: 0x40125, offset: 0x40125, size: 0x8, addend: 0x0, symName: __ZNKSt3__112regex_traitsIcE18__lookup_classnameIPKcEEjT_S5_bc, symObjAddr: 0x1CD40, symBinAddr: 0x10001E980, symSize: 0xF0 }
  - { offsetInCU: 0x4019D, offset: 0x4019D, size: 0x8, addend: 0x0, symName: __ZNKSt3__15ctypeIcE7tolowerB7v160006EPcPKc, symObjAddr: 0x1CE30, symBinAddr: 0x10001EA70, symSize: 0x30 }
  - { offsetInCU: 0x401E1, offset: 0x401E1, size: 0x8, addend: 0x0, symName: __ZNSt3__120__bracket_expressionIcNS_12regex_traitsIcEEE15__add_neg_classB7v160006Ej, symObjAddr: 0x1CE60, symBinAddr: 0x10001EAA0, symSize: 0x20 }
  - { offsetInCU: 0x40216, offset: 0x40216, size: 0x8, addend: 0x0, symName: __ZNSt3__120__bracket_expressionIcNS_12regex_traitsIcEEE14__add_neg_charB7v160006Ec, symObjAddr: 0x1CE80, symBinAddr: 0x10001EAC0, symSize: 0xC0 }
  - { offsetInCU: 0x4024B, offset: 0x4024B, size: 0x8, addend: 0x0, symName: __ZNSt3__16vectorINS_4pairINS_12basic_stringIcNS_11char_traitsIcEENS_9allocatorIcEEEES7_EENS5_IS8_EEE9push_backB7v160006EOS8_, symObjAddr: 0x1CF40, symBinAddr: 0x10001EB80, symSize: 0x60 }
  - { offsetInCU: 0x40282, offset: 0x40282, size: 0x8, addend: 0x0, symName: __ZNKSt3__112regex_traitsIcE9transformINS_11__wrap_iterIPcEEEENS_12basic_stringIcNS_11char_traitsIcEENS_9allocatorIcEEEET_SC_, symObjAddr: 0x1CFE0, symBinAddr: 0x10001EC20, symSize: 0x130 }
  - { offsetInCU: 0x40313, offset: 0x40313, size: 0x8, addend: 0x0, symName: __ZNSt3__16vectorINS_4pairINS_12basic_stringIcNS_11char_traitsIcEENS_9allocatorIcEEEES7_EENS5_IS8_EEE9__end_capB7v160006Ev, symObjAddr: 0x1D170, symBinAddr: 0x10001EDB0, symSize: 0x20 }
  - { offsetInCU: 0x40339, offset: 0x40339, size: 0x8, addend: 0x0, symName: __ZNSt3__16vectorINS_4pairINS_12basic_stringIcNS_11char_traitsIcEENS_9allocatorIcEEEES7_EENS5_IS8_EEE22__construct_one_at_endB7v160006IJS8_EEEvDpOT_, symObjAddr: 0x1D190, symBinAddr: 0x10001EDD0, symSize: 0x90 }
  - { offsetInCU: 0x40388, offset: 0x40388, size: 0x8, addend: 0x0, symName: __ZNSt3__16vectorINS_4pairINS_12basic_stringIcNS_11char_traitsIcEENS_9allocatorIcEEEES7_EENS5_IS8_EEE21__push_back_slow_pathIS8_EEvOT_, symObjAddr: 0x1D220, symBinAddr: 0x10001EE60, symSize: 0xD0 }
  - { offsetInCU: 0x403E6, offset: 0x403E6, size: 0x8, addend: 0x0, symName: __ZNSt3__117__compressed_pairIPNS_4pairINS_12basic_stringIcNS_11char_traitsIcEENS_9allocatorIcEEEES7_EENS5_IS8_EEE5firstB7v160006Ev, symObjAddr: 0x1D2F0, symBinAddr: 0x10001EF30, symSize: 0x20 }
  - { offsetInCU: 0x4040C, offset: 0x4040C, size: 0x8, addend: 0x0, symName: __ZNSt3__122__compressed_pair_elemIPNS_4pairINS_12basic_stringIcNS_11char_traitsIcEENS_9allocatorIcEEEES7_EELi0ELb0EE5__getB7v160006Ev, symObjAddr: 0x1D310, symBinAddr: 0x10001EF50, symSize: 0x10 }
  - { offsetInCU: 0x4044D, offset: 0x4044D, size: 0x8, addend: 0x0, symName: __ZNSt3__16vectorINS_4pairINS_12basic_stringIcNS_11char_traitsIcEENS_9allocatorIcEEEES7_EENS5_IS8_EEE21_ConstructTransactionC1B7v160006ERSA_m, symObjAddr: 0x1D320, symBinAddr: 0x10001EF60, symSize: 0x30 }
  - { offsetInCU: 0x40495, offset: 0x40495, size: 0x8, addend: 0x0, symName: __ZNSt3__116allocator_traitsINS_9allocatorINS_4pairINS_12basic_stringIcNS_11char_traitsIcEENS1_IcEEEES7_EEEEE9constructB7v160006IS8_JS8_EvEEvRS9_PT_DpOT0_, symObjAddr: 0x1D350, symBinAddr: 0x10001EF90, symSize: 0x30 }
  - { offsetInCU: 0x404EC, offset: 0x404EC, size: 0x8, addend: 0x0, symName: __ZNSt3__16vectorINS_4pairINS_12basic_stringIcNS_11char_traitsIcEENS_9allocatorIcEEEES7_EENS5_IS8_EEE21_ConstructTransactionD1B7v160006Ev, symObjAddr: 0x1D380, symBinAddr: 0x10001EFC0, symSize: 0x20 }
  - { offsetInCU: 0x40516, offset: 0x40516, size: 0x8, addend: 0x0, symName: __ZNSt3__16vectorINS_4pairINS_12basic_stringIcNS_11char_traitsIcEENS_9allocatorIcEEEES7_EENS5_IS8_EEE21_ConstructTransactionC2B7v160006ERSA_m, symObjAddr: 0x1D3A0, symBinAddr: 0x10001EFE0, symSize: 0x40 }
  - { offsetInCU: 0x4055E, offset: 0x4055E, size: 0x8, addend: 0x0, symName: __ZNSt3__19allocatorINS_4pairINS_12basic_stringIcNS_11char_traitsIcEENS0_IcEEEES6_EEE9constructB7v160006IS7_JS7_EEEvPT_DpOT0_, symObjAddr: 0x1D3E0, symBinAddr: 0x10001F020, symSize: 0x30 }
  - { offsetInCU: 0x405B4, offset: 0x405B4, size: 0x8, addend: 0x0, symName: __ZNSt3__14pairINS_12basic_stringIcNS_11char_traitsIcEENS_9allocatorIcEEEES6_EC1EOS7_, symObjAddr: 0x1D410, symBinAddr: 0x10001F050, symSize: 0x30 }
  - { offsetInCU: 0x405E8, offset: 0x405E8, size: 0x8, addend: 0x0, symName: __ZNSt3__14pairINS_12basic_stringIcNS_11char_traitsIcEENS_9allocatorIcEEEES6_EC2EOS7_, symObjAddr: 0x1D440, symBinAddr: 0x10001F080, symSize: 0x40 }
  - { offsetInCU: 0x4061C, offset: 0x4061C, size: 0x8, addend: 0x0, symName: __ZNSt3__16vectorINS_4pairINS_12basic_stringIcNS_11char_traitsIcEENS_9allocatorIcEEEES7_EENS5_IS8_EEE21_ConstructTransactionD2B7v160006Ev, symObjAddr: 0x1D480, symBinAddr: 0x10001F0C0, symSize: 0x20 }
  - { offsetInCU: 0x40646, offset: 0x40646, size: 0x8, addend: 0x0, symName: __ZNKSt3__16vectorINS_4pairINS_12basic_stringIcNS_11char_traitsIcEENS_9allocatorIcEEEES7_EENS5_IS8_EEE11__recommendB7v160006Em, symObjAddr: 0x1D4A0, symBinAddr: 0x10001F0E0, symSize: 0xA0 }
  - { offsetInCU: 0x4069B, offset: 0x4069B, size: 0x8, addend: 0x0, symName: __ZNSt3__114__split_bufferINS_4pairINS_12basic_stringIcNS_11char_traitsIcEENS_9allocatorIcEEEES7_EERNS5_IS8_EEEC1EmmSA_, symObjAddr: 0x1D540, symBinAddr: 0x10001F180, symSize: 0x40 }
  - { offsetInCU: 0x406F1, offset: 0x406F1, size: 0x8, addend: 0x0, symName: __ZNSt3__114__split_bufferINS_4pairINS_12basic_stringIcNS_11char_traitsIcEENS_9allocatorIcEEEES7_EERNS5_IS8_EEED1Ev, symObjAddr: 0x1D6B0, symBinAddr: 0x10001F2F0, symSize: 0x20 }
  - { offsetInCU: 0x4071D, offset: 0x4071D, size: 0x8, addend: 0x0, symName: __ZNKSt3__16vectorINS_4pairINS_12basic_stringIcNS_11char_traitsIcEENS_9allocatorIcEEEES7_EENS5_IS8_EEE8max_sizeEv, symObjAddr: 0x1D6D0, symBinAddr: 0x10001F310, symSize: 0x60 }
  - { offsetInCU: 0x40745, offset: 0x40745, size: 0x8, addend: 0x0, symName: __ZNKSt3__16vectorINS_4pairINS_12basic_stringIcNS_11char_traitsIcEENS_9allocatorIcEEEES7_EENS5_IS8_EEE20__throw_length_errorB7v160006Ev, symObjAddr: 0x1D730, symBinAddr: 0x10001F370, symSize: 0x20 }
  - { offsetInCU: 0x40776, offset: 0x40776, size: 0x8, addend: 0x0, symName: __ZNSt3__116allocator_traitsINS_9allocatorINS_4pairINS_12basic_stringIcNS_11char_traitsIcEENS1_IcEEEES7_EEEEE8max_sizeB7v160006IS9_vEEmRKS9_, symObjAddr: 0x1D750, symBinAddr: 0x10001F390, symSize: 0x20 }
  - { offsetInCU: 0x407A4, offset: 0x407A4, size: 0x8, addend: 0x0, symName: __ZNKSt3__16vectorINS_4pairINS_12basic_stringIcNS_11char_traitsIcEENS_9allocatorIcEEEES7_EENS5_IS8_EEE7__allocB7v160006Ev, symObjAddr: 0x1D770, symBinAddr: 0x10001F3B0, symSize: 0x20 }
  - { offsetInCU: 0x407CA, offset: 0x407CA, size: 0x8, addend: 0x0, symName: __ZNKSt3__19allocatorINS_4pairINS_12basic_stringIcNS_11char_traitsIcEENS0_IcEEEES6_EEE8max_sizeB7v160006Ev, symObjAddr: 0x1D790, symBinAddr: 0x10001F3D0, symSize: 0x20 }
  - { offsetInCU: 0x407F0, offset: 0x407F0, size: 0x8, addend: 0x0, symName: __ZNKSt3__117__compressed_pairIPNS_4pairINS_12basic_stringIcNS_11char_traitsIcEENS_9allocatorIcEEEES7_EENS5_IS8_EEE6secondB7v160006Ev, symObjAddr: 0x1D7B0, symBinAddr: 0x10001F3F0, symSize: 0x20 }
  - { offsetInCU: 0x40816, offset: 0x40816, size: 0x8, addend: 0x0, symName: __ZNKSt3__122__compressed_pair_elemINS_9allocatorINS_4pairINS_12basic_stringIcNS_11char_traitsIcEENS1_IcEEEES7_EEEELi1ELb1EE5__getB7v160006Ev, symObjAddr: 0x1D7D0, symBinAddr: 0x10001F410, symSize: 0x10 }
  - { offsetInCU: 0x4083C, offset: 0x4083C, size: 0x8, addend: 0x0, symName: __ZNSt3__114__split_bufferINS_4pairINS_12basic_stringIcNS_11char_traitsIcEENS_9allocatorIcEEEES7_EERNS5_IS8_EEEC2EmmSA_, symObjAddr: 0x1D7E0, symBinAddr: 0x10001F420, symSize: 0xC0 }
  - { offsetInCU: 0x408AF, offset: 0x408AF, size: 0x8, addend: 0x0, symName: __ZNSt3__117__compressed_pairIPNS_4pairINS_12basic_stringIcNS_11char_traitsIcEENS_9allocatorIcEEEES7_EERNS5_IS8_EEEC1B7v160006IDnSB_EEOT_OT0_, symObjAddr: 0x1D8A0, symBinAddr: 0x10001F4E0, symSize: 0x30 }
  - { offsetInCU: 0x40907, offset: 0x40907, size: 0x8, addend: 0x0, symName: __ZNSt3__114__split_bufferINS_4pairINS_12basic_stringIcNS_11char_traitsIcEENS_9allocatorIcEEEES7_EERNS5_IS8_EEE7__allocB7v160006Ev, symObjAddr: 0x1D910, symBinAddr: 0x10001F550, symSize: 0x20 }
  - { offsetInCU: 0x4092D, offset: 0x4092D, size: 0x8, addend: 0x0, symName: __ZNSt3__114__split_bufferINS_4pairINS_12basic_stringIcNS_11char_traitsIcEENS_9allocatorIcEEEES7_EERNS5_IS8_EEE9__end_capB7v160006Ev, symObjAddr: 0x1D930, symBinAddr: 0x10001F570, symSize: 0x20 }
  - { offsetInCU: 0x40953, offset: 0x40953, size: 0x8, addend: 0x0, symName: __ZNSt3__117__compressed_pairIPNS_4pairINS_12basic_stringIcNS_11char_traitsIcEENS_9allocatorIcEEEES7_EERNS5_IS8_EEEC2B7v160006IDnSB_EEOT_OT0_, symObjAddr: 0x1D950, symBinAddr: 0x10001F590, symSize: 0x40 }
  - { offsetInCU: 0x409AB, offset: 0x409AB, size: 0x8, addend: 0x0, symName: __ZNSt3__122__compressed_pair_elemIRNS_9allocatorINS_4pairINS_12basic_stringIcNS_11char_traitsIcEENS1_IcEEEES7_EEEELi1ELb0EEC2B7v160006ISA_vEEOT_, symObjAddr: 0x1D990, symBinAddr: 0x10001F5D0, symSize: 0x20 }
  - { offsetInCU: 0x409ED, offset: 0x409ED, size: 0x8, addend: 0x0, symName: __ZNSt3__19allocatorINS_4pairINS_12basic_stringIcNS_11char_traitsIcEENS0_IcEEEES6_EEE8allocateB7v160006Em, symObjAddr: 0x1D9B0, symBinAddr: 0x10001F5F0, symSize: 0x50 }
  - { offsetInCU: 0x40A21, offset: 0x40A21, size: 0x8, addend: 0x0, symName: __ZNSt3__117__compressed_pairIPNS_4pairINS_12basic_stringIcNS_11char_traitsIcEENS_9allocatorIcEEEES7_EERNS5_IS8_EEE6secondB7v160006Ev, symObjAddr: 0x1DA00, symBinAddr: 0x10001F640, symSize: 0x20 }
  - { offsetInCU: 0x40A47, offset: 0x40A47, size: 0x8, addend: 0x0, symName: __ZNSt3__122__compressed_pair_elemIRNS_9allocatorINS_4pairINS_12basic_stringIcNS_11char_traitsIcEENS1_IcEEEES7_EEEELi1ELb0EE5__getB7v160006Ev, symObjAddr: 0x1DA20, symBinAddr: 0x10001F660, symSize: 0x20 }
  - { offsetInCU: 0x40A6D, offset: 0x40A6D, size: 0x8, addend: 0x0, symName: __ZNSt3__117__compressed_pairIPNS_4pairINS_12basic_stringIcNS_11char_traitsIcEENS_9allocatorIcEEEES7_EERNS5_IS8_EEE5firstB7v160006Ev, symObjAddr: 0x1DA40, symBinAddr: 0x10001F680, symSize: 0x20 }
  - { offsetInCU: 0x40A93, offset: 0x40A93, size: 0x8, addend: 0x0, symName: __ZNSt3__116reverse_iteratorIPNS_4pairINS_12basic_stringIcNS_11char_traitsIcEENS_9allocatorIcEEEES7_EEEC1B7v160006ES9_, symObjAddr: 0x1DBE0, symBinAddr: 0x10001F820, symSize: 0x30 }
  - { offsetInCU: 0x40ACB, offset: 0x40ACB, size: 0x8, addend: 0x0, symName: __ZNKSt3__116reverse_iteratorIPNS_4pairINS_12basic_stringIcNS_11char_traitsIcEENS_9allocatorIcEEEES7_EEE4baseB7v160006Ev, symObjAddr: 0x1DC10, symBinAddr: 0x10001F850, symSize: 0x20 }
  - { offsetInCU: 0x40AF1, offset: 0x40AF1, size: 0x8, addend: 0x0, symName: __ZNKSt3__16vectorINS_4pairINS_12basic_stringIcNS_11char_traitsIcEENS_9allocatorIcEEEES7_EENS5_IS8_EEE14__annotate_newB7v160006Em, symObjAddr: 0x1DC70, symBinAddr: 0x10001F8B0, symSize: 0xA0 }
  - { offsetInCU: 0x40B26, offset: 0x40B26, size: 0x8, addend: 0x0, symName: __ZNSt3__129_AllocatorDestroyRangeReverseINS_9allocatorINS_4pairINS_12basic_stringIcNS_11char_traitsIcEENS1_IcEEEES7_EEEENS_16reverse_iteratorIPS8_EEEC1B7v160006ERS9_RSC_SF_, symObjAddr: 0x1DD80, symBinAddr: 0x10001F9C0, symSize: 0x40 }
  - { offsetInCU: 0x40B7D, offset: 0x40B7D, size: 0x8, addend: 0x0, symName: __ZNKSt3__116reverse_iteratorIPNS_4pairINS_12basic_stringIcNS_11char_traitsIcEENS_9allocatorIcEEEES7_EEEdeB7v160006Ev, symObjAddr: 0x1DE20, symBinAddr: 0x10001FA60, symSize: 0x30 }
  - { offsetInCU: 0x40BB1, offset: 0x40BB1, size: 0x8, addend: 0x0, symName: __ZNSt3__116reverse_iteratorIPNS_4pairINS_12basic_stringIcNS_11char_traitsIcEENS_9allocatorIcEEEES7_EEEppB7v160006Ev, symObjAddr: 0x1DE50, symBinAddr: 0x10001FA90, symSize: 0x20 }
  - { offsetInCU: 0x40BD7, offset: 0x40BD7, size: 0x8, addend: 0x0, symName: __ZNSt3__128__exception_guard_exceptionsINS_29_AllocatorDestroyRangeReverseINS_9allocatorINS_4pairINS_12basic_stringIcNS_11char_traitsIcEENS2_IcEEEES8_EEEENS_16reverse_iteratorIPS9_EEEEE10__completeB7v160006Ev, symObjAddr: 0x1DE70, symBinAddr: 0x10001FAB0, symSize: 0x20 }
  - { offsetInCU: 0x40BFD, offset: 0x40BFD, size: 0x8, addend: 0x0, symName: __ZNSt3__128__exception_guard_exceptionsINS_29_AllocatorDestroyRangeReverseINS_9allocatorINS_4pairINS_12basic_stringIcNS_11char_traitsIcEENS2_IcEEEES8_EEEENS_16reverse_iteratorIPS9_EEEEED1B7v160006Ev, symObjAddr: 0x1DE90, symBinAddr: 0x10001FAD0, symSize: 0x20 }
  - { offsetInCU: 0x40C27, offset: 0x40C27, size: 0x8, addend: 0x0, symName: __ZNSt3__128__exception_guard_exceptionsINS_29_AllocatorDestroyRangeReverseINS_9allocatorINS_4pairINS_12basic_stringIcNS_11char_traitsIcEENS2_IcEEEES8_EEEENS_16reverse_iteratorIPS9_EEEEEC1B7v160006ESE_, symObjAddr: 0x1DEB0, symBinAddr: 0x10001FAF0, symSize: 0x40 }
  - { offsetInCU: 0x40C5F, offset: 0x40C5F, size: 0x8, addend: 0x0, symName: __ZNSt3__128__exception_guard_exceptionsINS_29_AllocatorDestroyRangeReverseINS_9allocatorINS_4pairINS_12basic_stringIcNS_11char_traitsIcEENS2_IcEEEES8_EEEENS_16reverse_iteratorIPS9_EEEEEC2B7v160006ESE_, symObjAddr: 0x1DEF0, symBinAddr: 0x10001FB30, symSize: 0x30 }
  - { offsetInCU: 0x40C97, offset: 0x40C97, size: 0x8, addend: 0x0, symName: __ZNSt3__129_AllocatorDestroyRangeReverseINS_9allocatorINS_4pairINS_12basic_stringIcNS_11char_traitsIcEENS1_IcEEEES7_EEEENS_16reverse_iteratorIPS8_EEEC2B7v160006ERS9_RSC_SF_, symObjAddr: 0x1DF20, symBinAddr: 0x10001FB60, symSize: 0x40 }
  - { offsetInCU: 0x40CF4, offset: 0x40CF4, size: 0x8, addend: 0x0, symName: __ZNSt3__119__to_address_helperINS_16reverse_iteratorIPNS_4pairINS_12basic_stringIcNS_11char_traitsIcEENS_9allocatorIcEEEES8_EEEEvE6__callB7v160006ERKSB_, symObjAddr: 0x1DF60, symBinAddr: 0x10001FBA0, symSize: 0x40 }
  - { offsetInCU: 0x40D17, offset: 0x40D17, size: 0x8, addend: 0x0, symName: __ZNKSt3__116reverse_iteratorIPNS_4pairINS_12basic_stringIcNS_11char_traitsIcEENS_9allocatorIcEEEES7_EEEptB7v160006Ev, symObjAddr: 0x1DFA0, symBinAddr: 0x10001FBE0, symSize: 0x20 }
  - { offsetInCU: 0x40D3D, offset: 0x40D3D, size: 0x8, addend: 0x0, symName: __ZNSt3__128__exception_guard_exceptionsINS_29_AllocatorDestroyRangeReverseINS_9allocatorINS_4pairINS_12basic_stringIcNS_11char_traitsIcEENS2_IcEEEES8_EEEENS_16reverse_iteratorIPS9_EEEEED2B7v160006Ev, symObjAddr: 0x1DFC0, symBinAddr: 0x10001FC00, symSize: 0x40 }
  - { offsetInCU: 0x40D67, offset: 0x40D67, size: 0x8, addend: 0x0, symName: __ZNKSt3__129_AllocatorDestroyRangeReverseINS_9allocatorINS_4pairINS_12basic_stringIcNS_11char_traitsIcEENS1_IcEEEES7_EEEENS_16reverse_iteratorIPS8_EEEclB7v160006Ev, symObjAddr: 0x1E000, symBinAddr: 0x10001FC40, symSize: 0xF0 }
  - { offsetInCU: 0x40D8E, offset: 0x40D8E, size: 0x8, addend: 0x0, symName: __ZNSt3__116reverse_iteratorINS0_IPNS_4pairINS_12basic_stringIcNS_11char_traitsIcEENS_9allocatorIcEEEES7_EEEEEC1B7v160006ESA_, symObjAddr: 0x1E160, symBinAddr: 0x10001FDA0, symSize: 0x30 }
  - { offsetInCU: 0x40DC6, offset: 0x40DC6, size: 0x8, addend: 0x0, symName: __ZNSt3__116reverse_iteratorINS0_IPNS_4pairINS_12basic_stringIcNS_11char_traitsIcEENS_9allocatorIcEEEES7_EEEEEppB7v160006Ev, symObjAddr: 0x1E200, symBinAddr: 0x10001FE40, symSize: 0x30 }
  - { offsetInCU: 0x40DEC, offset: 0x40DEC, size: 0x8, addend: 0x0, symName: __ZNKSt3__116reverse_iteratorINS0_IPNS_4pairINS_12basic_stringIcNS_11char_traitsIcEENS_9allocatorIcEEEES7_EEEEE4baseB7v160006Ev, symObjAddr: 0x1E230, symBinAddr: 0x10001FE70, symSize: 0x20 }
  - { offsetInCU: 0x40E18, offset: 0x40E18, size: 0x8, addend: 0x0, symName: __ZNSt3__119__to_address_helperINS_16reverse_iteratorINS1_IPNS_4pairINS_12basic_stringIcNS_11char_traitsIcEENS_9allocatorIcEEEES8_EEEEEEvE6__callB7v160006ERKSC_, symObjAddr: 0x1E250, symBinAddr: 0x10001FE90, symSize: 0x40 }
  - { offsetInCU: 0x40E3B, offset: 0x40E3B, size: 0x8, addend: 0x0, symName: __ZNKSt3__116reverse_iteratorINS0_IPNS_4pairINS_12basic_stringIcNS_11char_traitsIcEENS_9allocatorIcEEEES7_EEEEEptB7v160006Ev, symObjAddr: 0x1E290, symBinAddr: 0x10001FED0, symSize: 0x20 }
  - { offsetInCU: 0x40E61, offset: 0x40E61, size: 0x8, addend: 0x0, symName: __ZNKSt3__116reverse_iteratorINS0_IPNS_4pairINS_12basic_stringIcNS_11char_traitsIcEENS_9allocatorIcEEEES7_EEEEEdeB7v160006Ev, symObjAddr: 0x1E2B0, symBinAddr: 0x10001FEF0, symSize: 0x40 }
  - { offsetInCU: 0x40E95, offset: 0x40E95, size: 0x8, addend: 0x0, symName: __ZNSt3__116reverse_iteratorIPNS_4pairINS_12basic_stringIcNS_11char_traitsIcEENS_9allocatorIcEEEES7_EEEmmB7v160006Ev, symObjAddr: 0x1E2F0, symBinAddr: 0x10001FF30, symSize: 0x20 }
  - { offsetInCU: 0x40EBB, offset: 0x40EBB, size: 0x8, addend: 0x0, symName: __ZNSt3__116reverse_iteratorINS0_IPNS_4pairINS_12basic_stringIcNS_11char_traitsIcEENS_9allocatorIcEEEES7_EEEEEC2B7v160006ESA_, symObjAddr: 0x1E310, symBinAddr: 0x10001FF50, symSize: 0x40 }
  - { offsetInCU: 0x40EF3, offset: 0x40EF3, size: 0x8, addend: 0x0, symName: __ZNSt3__116reverse_iteratorIPNS_4pairINS_12basic_stringIcNS_11char_traitsIcEENS_9allocatorIcEEEES7_EEEC2B7v160006ES9_, symObjAddr: 0x1E350, symBinAddr: 0x10001FF90, symSize: 0x30 }
  - { offsetInCU: 0x40F2B, offset: 0x40F2B, size: 0x8, addend: 0x0, symName: __ZNSt3__114__split_bufferINS_4pairINS_12basic_stringIcNS_11char_traitsIcEENS_9allocatorIcEEEES7_EERNS5_IS8_EEED2Ev, symObjAddr: 0x1E380, symBinAddr: 0x10001FFC0, symSize: 0x70 }
  - { offsetInCU: 0x40F57, offset: 0x40F57, size: 0x8, addend: 0x0, symName: __ZNSt3__114__split_bufferINS_4pairINS_12basic_stringIcNS_11char_traitsIcEENS_9allocatorIcEEEES7_EERNS5_IS8_EEE5clearB7v160006Ev, symObjAddr: 0x1E3F0, symBinAddr: 0x100020030, symSize: 0x20 }
  - { offsetInCU: 0x40F7D, offset: 0x40F7D, size: 0x8, addend: 0x0, symName: __ZNKSt3__114__split_bufferINS_4pairINS_12basic_stringIcNS_11char_traitsIcEENS_9allocatorIcEEEES7_EERNS5_IS8_EEE8capacityB7v160006Ev, symObjAddr: 0x1E410, symBinAddr: 0x100020050, symSize: 0x40 }
  - { offsetInCU: 0x40FA3, offset: 0x40FA3, size: 0x8, addend: 0x0, symName: __ZNSt3__114__split_bufferINS_4pairINS_12basic_stringIcNS_11char_traitsIcEENS_9allocatorIcEEEES7_EERNS5_IS8_EEE17__destruct_at_endB7v160006EPS8_, symObjAddr: 0x1E450, symBinAddr: 0x100020090, symSize: 0x30 }
  - { offsetInCU: 0x40FD7, offset: 0x40FD7, size: 0x8, addend: 0x0, symName: __ZNSt3__114__split_bufferINS_4pairINS_12basic_stringIcNS_11char_traitsIcEENS_9allocatorIcEEEES7_EERNS5_IS8_EEE17__destruct_at_endB7v160006EPS8_NS_17integral_constantIbLb0EEE, symObjAddr: 0x1E480, symBinAddr: 0x1000200C0, symSize: 0x80 }
  - { offsetInCU: 0x41017, offset: 0x41017, size: 0x8, addend: 0x0, symName: __ZNKSt3__114__split_bufferINS_4pairINS_12basic_stringIcNS_11char_traitsIcEENS_9allocatorIcEEEES7_EERNS5_IS8_EEE9__end_capB7v160006Ev, symObjAddr: 0x1E500, symBinAddr: 0x100020140, symSize: 0x20 }
  - { offsetInCU: 0x4103D, offset: 0x4103D, size: 0x8, addend: 0x0, symName: __ZNKSt3__117__compressed_pairIPNS_4pairINS_12basic_stringIcNS_11char_traitsIcEENS_9allocatorIcEEEES7_EERNS5_IS8_EEE5firstB7v160006Ev, symObjAddr: 0x1E520, symBinAddr: 0x100020160, symSize: 0x20 }
  - { offsetInCU: 0x41063, offset: 0x41063, size: 0x8, addend: 0x0, symName: __ZNSt3__14pairINS_12basic_stringIcNS_11char_traitsIcEENS_9allocatorIcEEEES6_EC1B7v160006IS6_S6_LPv0EEEOT_OT0_, symObjAddr: 0x1E540, symBinAddr: 0x100020180, symSize: 0x30 }
  - { offsetInCU: 0x410C1, offset: 0x410C1, size: 0x8, addend: 0x0, symName: __ZNSt3__14pairINS_12basic_stringIcNS_11char_traitsIcEENS_9allocatorIcEEEES6_EC2B7v160006IS6_S6_LPv0EEEOT_OT0_, symObjAddr: 0x1E570, symBinAddr: 0x1000201B0, symSize: 0x40 }
  - { offsetInCU: 0x4111F, offset: 0x4111F, size: 0x8, addend: 0x0, symName: __ZNSt3__112basic_stringIcNS_11char_traitsIcEENS_9allocatorIcEEEC2B7v160006EOS5_, symObjAddr: 0x1E5B0, symBinAddr: 0x1000201F0, symSize: 0x80 }
  - { offsetInCU: 0x41158, offset: 0x41158, size: 0x8, addend: 0x0, symName: __ZNSt3__16vectorINS_4pairIccEENS_9allocatorIS2_EEE9push_backB7v160006EOS2_, symObjAddr: 0x1E640, symBinAddr: 0x100020280, symSize: 0x60 }
  - { offsetInCU: 0x4118F, offset: 0x4118F, size: 0x8, addend: 0x0, symName: __ZNSt3__16vectorINS_4pairIccEENS_9allocatorIS2_EEE9__end_capB7v160006Ev, symObjAddr: 0x1E700, symBinAddr: 0x100020340, symSize: 0x20 }
  - { offsetInCU: 0x411B5, offset: 0x411B5, size: 0x8, addend: 0x0, symName: __ZNSt3__16vectorINS_4pairIccEENS_9allocatorIS2_EEE22__construct_one_at_endB7v160006IJS2_EEEvDpOT_, symObjAddr: 0x1E720, symBinAddr: 0x100020360, symSize: 0x90 }
  - { offsetInCU: 0x41204, offset: 0x41204, size: 0x8, addend: 0x0, symName: __ZNSt3__16vectorINS_4pairIccEENS_9allocatorIS2_EEE21__push_back_slow_pathIS2_EEvOT_, symObjAddr: 0x1E7B0, symBinAddr: 0x1000203F0, symSize: 0xD0 }
  - { offsetInCU: 0x41262, offset: 0x41262, size: 0x8, addend: 0x0, symName: __ZNSt3__117__compressed_pairIPNS_4pairIccEENS_9allocatorIS2_EEE5firstB7v160006Ev, symObjAddr: 0x1E880, symBinAddr: 0x1000204C0, symSize: 0x20 }
  - { offsetInCU: 0x41288, offset: 0x41288, size: 0x8, addend: 0x0, symName: __ZNSt3__122__compressed_pair_elemIPNS_4pairIccEELi0ELb0EE5__getB7v160006Ev, symObjAddr: 0x1E8A0, symBinAddr: 0x1000204E0, symSize: 0x10 }
  - { offsetInCU: 0x412C9, offset: 0x412C9, size: 0x8, addend: 0x0, symName: __ZNSt3__16vectorINS_4pairIccEENS_9allocatorIS2_EEE21_ConstructTransactionC1B7v160006ERS5_m, symObjAddr: 0x1E8B0, symBinAddr: 0x1000204F0, symSize: 0x30 }
  - { offsetInCU: 0x41311, offset: 0x41311, size: 0x8, addend: 0x0, symName: __ZNSt3__116allocator_traitsINS_9allocatorINS_4pairIccEEEEE9constructB7v160006IS3_JS3_EvEEvRS4_PT_DpOT0_, symObjAddr: 0x1E8E0, symBinAddr: 0x100020520, symSize: 0x30 }
  - { offsetInCU: 0x41368, offset: 0x41368, size: 0x8, addend: 0x0, symName: __ZNSt3__16vectorINS_4pairIccEENS_9allocatorIS2_EEE21_ConstructTransactionD1B7v160006Ev, symObjAddr: 0x1E910, symBinAddr: 0x100020550, symSize: 0x20 }
  - { offsetInCU: 0x41392, offset: 0x41392, size: 0x8, addend: 0x0, symName: __ZNSt3__16vectorINS_4pairIccEENS_9allocatorIS2_EEE21_ConstructTransactionC2B7v160006ERS5_m, symObjAddr: 0x1E930, symBinAddr: 0x100020570, symSize: 0x40 }
  - { offsetInCU: 0x413DA, offset: 0x413DA, size: 0x8, addend: 0x0, symName: __ZNSt3__19allocatorINS_4pairIccEEE9constructB7v160006IS2_JS2_EEEvPT_DpOT0_, symObjAddr: 0x1E970, symBinAddr: 0x1000205B0, symSize: 0x20 }
  - { offsetInCU: 0x41430, offset: 0x41430, size: 0x8, addend: 0x0, symName: __ZNSt3__16vectorINS_4pairIccEENS_9allocatorIS2_EEE21_ConstructTransactionD2B7v160006Ev, symObjAddr: 0x1E990, symBinAddr: 0x1000205D0, symSize: 0x20 }
  - { offsetInCU: 0x4145A, offset: 0x4145A, size: 0x8, addend: 0x0, symName: __ZNKSt3__16vectorINS_4pairIccEENS_9allocatorIS2_EEE11__recommendB7v160006Em, symObjAddr: 0x1E9B0, symBinAddr: 0x1000205F0, symSize: 0xA0 }
  - { offsetInCU: 0x414AF, offset: 0x414AF, size: 0x8, addend: 0x0, symName: __ZNSt3__114__split_bufferINS_4pairIccEERNS_9allocatorIS2_EEEC1EmmS5_, symObjAddr: 0x1EA50, symBinAddr: 0x100020690, symSize: 0x40 }
  - { offsetInCU: 0x41505, offset: 0x41505, size: 0x8, addend: 0x0, symName: __ZNSt3__114__split_bufferINS_4pairIccEERNS_9allocatorIS2_EEED1Ev, symObjAddr: 0x1EBC0, symBinAddr: 0x100020800, symSize: 0x20 }
  - { offsetInCU: 0x41531, offset: 0x41531, size: 0x8, addend: 0x0, symName: __ZNKSt3__16vectorINS_4pairIccEENS_9allocatorIS2_EEE8max_sizeEv, symObjAddr: 0x1EBE0, symBinAddr: 0x100020820, symSize: 0x60 }
  - { offsetInCU: 0x41559, offset: 0x41559, size: 0x8, addend: 0x0, symName: __ZNKSt3__16vectorINS_4pairIccEENS_9allocatorIS2_EEE20__throw_length_errorB7v160006Ev, symObjAddr: 0x1EC40, symBinAddr: 0x100020880, symSize: 0x20 }
  - { offsetInCU: 0x4158A, offset: 0x4158A, size: 0x8, addend: 0x0, symName: __ZNSt3__116allocator_traitsINS_9allocatorINS_4pairIccEEEEE8max_sizeB7v160006IS4_vEEmRKS4_, symObjAddr: 0x1EC60, symBinAddr: 0x1000208A0, symSize: 0x20 }
  - { offsetInCU: 0x415B8, offset: 0x415B8, size: 0x8, addend: 0x0, symName: __ZNKSt3__16vectorINS_4pairIccEENS_9allocatorIS2_EEE7__allocB7v160006Ev, symObjAddr: 0x1EC80, symBinAddr: 0x1000208C0, symSize: 0x20 }
  - { offsetInCU: 0x415DE, offset: 0x415DE, size: 0x8, addend: 0x0, symName: __ZNKSt3__19allocatorINS_4pairIccEEE8max_sizeB7v160006Ev, symObjAddr: 0x1ECA0, symBinAddr: 0x1000208E0, symSize: 0x20 }
  - { offsetInCU: 0x41604, offset: 0x41604, size: 0x8, addend: 0x0, symName: __ZNKSt3__117__compressed_pairIPNS_4pairIccEENS_9allocatorIS2_EEE6secondB7v160006Ev, symObjAddr: 0x1ECC0, symBinAddr: 0x100020900, symSize: 0x20 }
  - { offsetInCU: 0x4162A, offset: 0x4162A, size: 0x8, addend: 0x0, symName: __ZNKSt3__122__compressed_pair_elemINS_9allocatorINS_4pairIccEEEELi1ELb1EE5__getB7v160006Ev, symObjAddr: 0x1ECE0, symBinAddr: 0x100020920, symSize: 0x10 }
  - { offsetInCU: 0x41650, offset: 0x41650, size: 0x8, addend: 0x0, symName: __ZNSt3__114__split_bufferINS_4pairIccEERNS_9allocatorIS2_EEEC2EmmS5_, symObjAddr: 0x1ECF0, symBinAddr: 0x100020930, symSize: 0xD0 }
  - { offsetInCU: 0x416C3, offset: 0x416C3, size: 0x8, addend: 0x0, symName: __ZNSt3__117__compressed_pairIPNS_4pairIccEERNS_9allocatorIS2_EEEC1B7v160006IDnS6_EEOT_OT0_, symObjAddr: 0x1EDC0, symBinAddr: 0x100020A00, symSize: 0x30 }
  - { offsetInCU: 0x4171B, offset: 0x4171B, size: 0x8, addend: 0x0, symName: __ZNSt3__114__split_bufferINS_4pairIccEERNS_9allocatorIS2_EEE7__allocB7v160006Ev, symObjAddr: 0x1EE30, symBinAddr: 0x100020A70, symSize: 0x20 }
  - { offsetInCU: 0x41741, offset: 0x41741, size: 0x8, addend: 0x0, symName: __ZNSt3__114__split_bufferINS_4pairIccEERNS_9allocatorIS2_EEE9__end_capB7v160006Ev, symObjAddr: 0x1EE50, symBinAddr: 0x100020A90, symSize: 0x20 }
  - { offsetInCU: 0x41767, offset: 0x41767, size: 0x8, addend: 0x0, symName: __ZNSt3__117__compressed_pairIPNS_4pairIccEERNS_9allocatorIS2_EEEC2B7v160006IDnS6_EEOT_OT0_, symObjAddr: 0x1EE70, symBinAddr: 0x100020AB0, symSize: 0x40 }
  - { offsetInCU: 0x417BF, offset: 0x417BF, size: 0x8, addend: 0x0, symName: __ZNSt3__122__compressed_pair_elemIRNS_9allocatorINS_4pairIccEEEELi1ELb0EEC2B7v160006IS5_vEEOT_, symObjAddr: 0x1EEB0, symBinAddr: 0x100020AF0, symSize: 0x20 }
  - { offsetInCU: 0x41801, offset: 0x41801, size: 0x8, addend: 0x0, symName: __ZNSt3__19allocatorINS_4pairIccEEE8allocateB7v160006Em, symObjAddr: 0x1EED0, symBinAddr: 0x100020B10, symSize: 0x50 }
  - { offsetInCU: 0x41835, offset: 0x41835, size: 0x8, addend: 0x0, symName: __ZNSt3__117__compressed_pairIPNS_4pairIccEERNS_9allocatorIS2_EEE6secondB7v160006Ev, symObjAddr: 0x1EF20, symBinAddr: 0x100020B60, symSize: 0x20 }
  - { offsetInCU: 0x4185B, offset: 0x4185B, size: 0x8, addend: 0x0, symName: __ZNSt3__122__compressed_pair_elemIRNS_9allocatorINS_4pairIccEEEELi1ELb0EE5__getB7v160006Ev, symObjAddr: 0x1EF40, symBinAddr: 0x100020B80, symSize: 0x20 }
  - { offsetInCU: 0x41881, offset: 0x41881, size: 0x8, addend: 0x0, symName: __ZNSt3__117__compressed_pairIPNS_4pairIccEERNS_9allocatorIS2_EEE5firstB7v160006Ev, symObjAddr: 0x1EF60, symBinAddr: 0x100020BA0, symSize: 0x20 }
  - { offsetInCU: 0x418A7, offset: 0x418A7, size: 0x8, addend: 0x0, symName: __ZNSt3__116reverse_iteratorIPNS_4pairIccEEEC1B7v160006ES3_, symObjAddr: 0x1F100, symBinAddr: 0x100020D40, symSize: 0x30 }
  - { offsetInCU: 0x418DF, offset: 0x418DF, size: 0x8, addend: 0x0, symName: __ZNKSt3__116reverse_iteratorIPNS_4pairIccEEE4baseB7v160006Ev, symObjAddr: 0x1F130, symBinAddr: 0x100020D70, symSize: 0x20 }
  - { offsetInCU: 0x41905, offset: 0x41905, size: 0x8, addend: 0x0, symName: __ZNKSt3__16vectorINS_4pairIccEENS_9allocatorIS2_EEE14__annotate_newB7v160006Em, symObjAddr: 0x1F190, symBinAddr: 0x100020DD0, symSize: 0xB0 }
  - { offsetInCU: 0x4193A, offset: 0x4193A, size: 0x8, addend: 0x0, symName: __ZNSt3__129_AllocatorDestroyRangeReverseINS_9allocatorINS_4pairIccEEEENS_16reverse_iteratorIPS3_EEEC1B7v160006ERS4_RS7_SA_, symObjAddr: 0x1F2B0, symBinAddr: 0x100020EF0, symSize: 0x40 }
  - { offsetInCU: 0x41991, offset: 0x41991, size: 0x8, addend: 0x0, symName: __ZNKSt3__116reverse_iteratorIPNS_4pairIccEEEdeB7v160006Ev, symObjAddr: 0x1F350, symBinAddr: 0x100020F90, symSize: 0x30 }
  - { offsetInCU: 0x419C5, offset: 0x419C5, size: 0x8, addend: 0x0, symName: __ZNSt3__116reverse_iteratorIPNS_4pairIccEEEppB7v160006Ev, symObjAddr: 0x1F380, symBinAddr: 0x100020FC0, symSize: 0x20 }
  - { offsetInCU: 0x419EB, offset: 0x419EB, size: 0x8, addend: 0x0, symName: __ZNSt3__128__exception_guard_exceptionsINS_29_AllocatorDestroyRangeReverseINS_9allocatorINS_4pairIccEEEENS_16reverse_iteratorIPS4_EEEEE10__completeB7v160006Ev, symObjAddr: 0x1F3A0, symBinAddr: 0x100020FE0, symSize: 0x20 }
  - { offsetInCU: 0x41A11, offset: 0x41A11, size: 0x8, addend: 0x0, symName: __ZNSt3__128__exception_guard_exceptionsINS_29_AllocatorDestroyRangeReverseINS_9allocatorINS_4pairIccEEEENS_16reverse_iteratorIPS4_EEEEED1B7v160006Ev, symObjAddr: 0x1F3C0, symBinAddr: 0x100021000, symSize: 0x20 }
  - { offsetInCU: 0x41A3B, offset: 0x41A3B, size: 0x8, addend: 0x0, symName: __ZNSt3__128__exception_guard_exceptionsINS_29_AllocatorDestroyRangeReverseINS_9allocatorINS_4pairIccEEEENS_16reverse_iteratorIPS4_EEEEEC1B7v160006ES9_, symObjAddr: 0x1F3E0, symBinAddr: 0x100021020, symSize: 0x40 }
  - { offsetInCU: 0x41A73, offset: 0x41A73, size: 0x8, addend: 0x0, symName: __ZNSt3__128__exception_guard_exceptionsINS_29_AllocatorDestroyRangeReverseINS_9allocatorINS_4pairIccEEEENS_16reverse_iteratorIPS4_EEEEEC2B7v160006ES9_, symObjAddr: 0x1F420, symBinAddr: 0x100021060, symSize: 0x30 }
  - { offsetInCU: 0x41AAB, offset: 0x41AAB, size: 0x8, addend: 0x0, symName: __ZNSt3__129_AllocatorDestroyRangeReverseINS_9allocatorINS_4pairIccEEEENS_16reverse_iteratorIPS3_EEEC2B7v160006ERS4_RS7_SA_, symObjAddr: 0x1F450, symBinAddr: 0x100021090, symSize: 0x40 }
  - { offsetInCU: 0x41B08, offset: 0x41B08, size: 0x8, addend: 0x0, symName: __ZNSt3__119__to_address_helperINS_16reverse_iteratorIPNS_4pairIccEEEEvE6__callB7v160006ERKS5_, symObjAddr: 0x1F490, symBinAddr: 0x1000210D0, symSize: 0x40 }
  - { offsetInCU: 0x41B2B, offset: 0x41B2B, size: 0x8, addend: 0x0, symName: __ZNKSt3__116reverse_iteratorIPNS_4pairIccEEEptB7v160006Ev, symObjAddr: 0x1F4D0, symBinAddr: 0x100021110, symSize: 0x20 }
  - { offsetInCU: 0x41B51, offset: 0x41B51, size: 0x8, addend: 0x0, symName: __ZNSt3__128__exception_guard_exceptionsINS_29_AllocatorDestroyRangeReverseINS_9allocatorINS_4pairIccEEEENS_16reverse_iteratorIPS4_EEEEED2B7v160006Ev, symObjAddr: 0x1F4F0, symBinAddr: 0x100021130, symSize: 0x40 }
  - { offsetInCU: 0x41B7B, offset: 0x41B7B, size: 0x8, addend: 0x0, symName: __ZNKSt3__129_AllocatorDestroyRangeReverseINS_9allocatorINS_4pairIccEEEENS_16reverse_iteratorIPS3_EEEclB7v160006Ev, symObjAddr: 0x1F530, symBinAddr: 0x100021170, symSize: 0xF0 }
  - { offsetInCU: 0x41BA2, offset: 0x41BA2, size: 0x8, addend: 0x0, symName: __ZNSt3__116reverse_iteratorINS0_IPNS_4pairIccEEEEEC1B7v160006ES4_, symObjAddr: 0x1F690, symBinAddr: 0x1000212D0, symSize: 0x30 }
  - { offsetInCU: 0x41BDA, offset: 0x41BDA, size: 0x8, addend: 0x0, symName: __ZNSt3__116reverse_iteratorINS0_IPNS_4pairIccEEEEEppB7v160006Ev, symObjAddr: 0x1F730, symBinAddr: 0x100021370, symSize: 0x30 }
  - { offsetInCU: 0x41C00, offset: 0x41C00, size: 0x8, addend: 0x0, symName: __ZNKSt3__116reverse_iteratorINS0_IPNS_4pairIccEEEEE4baseB7v160006Ev, symObjAddr: 0x1F760, symBinAddr: 0x1000213A0, symSize: 0x20 }
  - { offsetInCU: 0x41C2C, offset: 0x41C2C, size: 0x8, addend: 0x0, symName: __ZNSt3__119__to_address_helperINS_16reverse_iteratorINS1_IPNS_4pairIccEEEEEEvE6__callB7v160006ERKS6_, symObjAddr: 0x1F780, symBinAddr: 0x1000213C0, symSize: 0x40 }
  - { offsetInCU: 0x41C4F, offset: 0x41C4F, size: 0x8, addend: 0x0, symName: __ZNKSt3__116reverse_iteratorINS0_IPNS_4pairIccEEEEEptB7v160006Ev, symObjAddr: 0x1F7C0, symBinAddr: 0x100021400, symSize: 0x20 }
  - { offsetInCU: 0x41C75, offset: 0x41C75, size: 0x8, addend: 0x0, symName: __ZNKSt3__116reverse_iteratorINS0_IPNS_4pairIccEEEEEdeB7v160006Ev, symObjAddr: 0x1F7E0, symBinAddr: 0x100021420, symSize: 0x40 }
  - { offsetInCU: 0x41CA9, offset: 0x41CA9, size: 0x8, addend: 0x0, symName: __ZNSt3__116reverse_iteratorIPNS_4pairIccEEEmmB7v160006Ev, symObjAddr: 0x1F820, symBinAddr: 0x100021460, symSize: 0x20 }
  - { offsetInCU: 0x41CCF, offset: 0x41CCF, size: 0x8, addend: 0x0, symName: __ZNSt3__116reverse_iteratorINS0_IPNS_4pairIccEEEEEC2B7v160006ES4_, symObjAddr: 0x1F840, symBinAddr: 0x100021480, symSize: 0x40 }
  - { offsetInCU: 0x41D07, offset: 0x41D07, size: 0x8, addend: 0x0, symName: __ZNSt3__116reverse_iteratorIPNS_4pairIccEEEC2B7v160006ES3_, symObjAddr: 0x1F880, symBinAddr: 0x1000214C0, symSize: 0x30 }
  - { offsetInCU: 0x41D3F, offset: 0x41D3F, size: 0x8, addend: 0x0, symName: __ZNSt3__114__split_bufferINS_4pairIccEERNS_9allocatorIS2_EEED2Ev, symObjAddr: 0x1F8B0, symBinAddr: 0x1000214F0, symSize: 0x70 }
  - { offsetInCU: 0x41D6B, offset: 0x41D6B, size: 0x8, addend: 0x0, symName: __ZNSt3__114__split_bufferINS_4pairIccEERNS_9allocatorIS2_EEE5clearB7v160006Ev, symObjAddr: 0x1F920, symBinAddr: 0x100021560, symSize: 0x20 }
  - { offsetInCU: 0x41D91, offset: 0x41D91, size: 0x8, addend: 0x0, symName: __ZNKSt3__114__split_bufferINS_4pairIccEERNS_9allocatorIS2_EEE8capacityB7v160006Ev, symObjAddr: 0x1F940, symBinAddr: 0x100021580, symSize: 0x30 }
  - { offsetInCU: 0x41DB7, offset: 0x41DB7, size: 0x8, addend: 0x0, symName: __ZNSt3__114__split_bufferINS_4pairIccEERNS_9allocatorIS2_EEE17__destruct_at_endB7v160006EPS2_, symObjAddr: 0x1F970, symBinAddr: 0x1000215B0, symSize: 0x30 }
  - { offsetInCU: 0x41DEB, offset: 0x41DEB, size: 0x8, addend: 0x0, symName: __ZNSt3__114__split_bufferINS_4pairIccEERNS_9allocatorIS2_EEE17__destruct_at_endB7v160006EPS2_NS_17integral_constantIbLb0EEE, symObjAddr: 0x1F9A0, symBinAddr: 0x1000215E0, symSize: 0x80 }
  - { offsetInCU: 0x41E2B, offset: 0x41E2B, size: 0x8, addend: 0x0, symName: __ZNKSt3__114__split_bufferINS_4pairIccEERNS_9allocatorIS2_EEE9__end_capB7v160006Ev, symObjAddr: 0x1FA20, symBinAddr: 0x100021660, symSize: 0x20 }
  - { offsetInCU: 0x41E51, offset: 0x41E51, size: 0x8, addend: 0x0, symName: __ZNKSt3__117__compressed_pairIPNS_4pairIccEERNS_9allocatorIS2_EEE5firstB7v160006Ev, symObjAddr: 0x1FA40, symBinAddr: 0x100021680, symSize: 0x20 }
  - { offsetInCU: 0x41E77, offset: 0x41E77, size: 0x8, addend: 0x0, symName: __ZNSt3__14pairIccEC1B7v160006IccLPv0EEEOT_OT0_, symObjAddr: 0x1FA60, symBinAddr: 0x1000216A0, symSize: 0x30 }
  - { offsetInCU: 0x41ED5, offset: 0x41ED5, size: 0x8, addend: 0x0, symName: __ZNSt3__14pairIccEC2B7v160006IccLPv0EEEOT_OT0_, symObjAddr: 0x1FA90, symBinAddr: 0x1000216D0, symSize: 0x30 }
  - { offsetInCU: 0x41F33, offset: 0x41F33, size: 0x8, addend: 0x0, symName: __ZNSt3__14pairIccEC1B7v160006IRcS3_LPv0EEEOT_OT0_, symObjAddr: 0x1FAC0, symBinAddr: 0x100021700, symSize: 0x30 }
  - { offsetInCU: 0x41F91, offset: 0x41F91, size: 0x8, addend: 0x0, symName: __ZNSt3__14pairIccEC2B7v160006IRcS3_LPv0EEEOT_OT0_, symObjAddr: 0x1FAF0, symBinAddr: 0x100021730, symSize: 0x30 }
  - { offsetInCU: 0x42004, offset: 0x42004, size: 0x8, addend: 0x0, symName: __ZNSt3__128__begin_marked_subexpressionIcEC1B7v160006EjPNS_6__nodeIcEE, symObjAddr: 0x1FB20, symBinAddr: 0x100021760, symSize: 0x30 }
  - { offsetInCU: 0x4204C, offset: 0x4204C, size: 0x8, addend: 0x0, symName: __ZNSt3__128__begin_marked_subexpressionIcEC2B7v160006EjPNS_6__nodeIcEE, symObjAddr: 0x1FB50, symBinAddr: 0x100021790, symSize: 0x50 }
  - { offsetInCU: 0x42094, offset: 0x42094, size: 0x8, addend: 0x0, symName: __ZNSt3__128__begin_marked_subexpressionIcED1Ev, symObjAddr: 0x1FBA0, symBinAddr: 0x1000217E0, symSize: 0x20 }
  - { offsetInCU: 0x420C1, offset: 0x420C1, size: 0x8, addend: 0x0, symName: __ZNSt3__128__begin_marked_subexpressionIcED0Ev, symObjAddr: 0x1FBC0, symBinAddr: 0x100021800, symSize: 0x30 }
  - { offsetInCU: 0x420EE, offset: 0x420EE, size: 0x8, addend: 0x0, symName: __ZNKSt3__128__begin_marked_subexpressionIcE6__execERNS_7__stateIcEE, symObjAddr: 0x1FBF0, symBinAddr: 0x100021830, symSize: 0x70 }
  - { offsetInCU: 0x42125, offset: 0x42125, size: 0x8, addend: 0x0, symName: __ZNSt3__128__begin_marked_subexpressionIcED2Ev, symObjAddr: 0x1FC60, symBinAddr: 0x1000218A0, symSize: 0x20 }
  - { offsetInCU: 0x42167, offset: 0x42167, size: 0x8, addend: 0x0, symName: __ZNSt3__126__end_marked_subexpressionIcEC1B7v160006EjPNS_6__nodeIcEE, symObjAddr: 0x1FC80, symBinAddr: 0x1000218C0, symSize: 0x30 }
  - { offsetInCU: 0x421AF, offset: 0x421AF, size: 0x8, addend: 0x0, symName: __ZNSt3__126__end_marked_subexpressionIcEC2B7v160006EjPNS_6__nodeIcEE, symObjAddr: 0x1FCB0, symBinAddr: 0x1000218F0, symSize: 0x50 }
  - { offsetInCU: 0x421F7, offset: 0x421F7, size: 0x8, addend: 0x0, symName: __ZNSt3__126__end_marked_subexpressionIcED1Ev, symObjAddr: 0x1FD00, symBinAddr: 0x100021940, symSize: 0x20 }
  - { offsetInCU: 0x42224, offset: 0x42224, size: 0x8, addend: 0x0, symName: __ZNSt3__126__end_marked_subexpressionIcED0Ev, symObjAddr: 0x1FD20, symBinAddr: 0x100021960, symSize: 0x30 }
  - { offsetInCU: 0x42251, offset: 0x42251, size: 0x8, addend: 0x0, symName: __ZNKSt3__126__end_marked_subexpressionIcE6__execERNS_7__stateIcEE, symObjAddr: 0x1FD50, symBinAddr: 0x100021990, symSize: 0x90 }
  - { offsetInCU: 0x42288, offset: 0x42288, size: 0x8, addend: 0x0, symName: __ZNSt3__126__end_marked_subexpressionIcED2Ev, symObjAddr: 0x1FDE0, symBinAddr: 0x100021A20, symSize: 0x20 }
  - { offsetInCU: 0x422B5, offset: 0x422B5, size: 0x8, addend: 0x0, symName: __ZNSt3__111basic_regexIcNS_12regex_traitsIcEEE27__push_nongreedy_inf_repeatB7v160006EmPNS_16__owns_one_stateIcEEjj, symObjAddr: 0x1FE00, symBinAddr: 0x100021A40, symSize: 0x60 }
  - { offsetInCU: 0x42317, offset: 0x42317, size: 0x8, addend: 0x0, symName: __ZNSt3__111basic_regexIcNS_12regex_traitsIcEEE24__push_greedy_inf_repeatB7v160006EmPNS_16__owns_one_stateIcEEjj, symObjAddr: 0x1FE60, symBinAddr: 0x100021AA0, symSize: 0x60 }
  - { offsetInCU: 0x42379, offset: 0x42379, size: 0x8, addend: 0x0, symName: __ZNSt3__111basic_regexIcNS_12regex_traitsIcEEE11__push_loopEmmPNS_16__owns_one_stateIcEEmmb, symObjAddr: 0x1FEC0, symBinAddr: 0x100021B00, symSize: 0x280 }
  - { offsetInCU: 0x4241B, offset: 0x4241B, size: 0x8, addend: 0x0, symName: __ZNSt3__111basic_regexIcNS_12regex_traitsIcEEE17__parse_DUP_COUNTIPKcEET_S7_S7_Ri, symObjAddr: 0x20140, symBinAddr: 0x100021D80, symSize: 0x110 }
  - { offsetInCU: 0x42496, offset: 0x42496, size: 0x8, addend: 0x0, symName: __ZNKSt3__110unique_ptrINS_13__empty_stateIcEENS_14default_deleteIS2_EEE3getB7v160006Ev, symObjAddr: 0x20310, symBinAddr: 0x100021F50, symSize: 0x20 }
  - { offsetInCU: 0x424EB, offset: 0x424EB, size: 0x8, addend: 0x0, symName: __ZNSt3__16__loopIcEC1B7v160006EjPNS_6__nodeIcEEPNS_16__owns_one_stateIcEEjjbmm, symObjAddr: 0x20330, symBinAddr: 0x100021F70, symSize: 0x80 }
  - { offsetInCU: 0x42632, offset: 0x42632, size: 0x8, addend: 0x0, symName: __ZNSt3__110unique_ptrINS_6__loopIcEENS_14default_deleteIS2_EEEC1B7v160006ILb1EvEEPS2_, symObjAddr: 0x203B0, symBinAddr: 0x100021FF0, symSize: 0x30 }
  - { offsetInCU: 0x42675, offset: 0x42675, size: 0x8, addend: 0x0, symName: __ZNKSt3__110unique_ptrINS_6__loopIcEENS_14default_deleteIS2_EEE3getB7v160006Ev, symObjAddr: 0x203E0, symBinAddr: 0x100022020, symSize: 0x20 }
  - { offsetInCU: 0x426B0, offset: 0x426B0, size: 0x8, addend: 0x0, symName: __ZNSt3__117__repeat_one_loopIcEC1B7v160006EPNS_6__nodeIcEE, symObjAddr: 0x20400, symBinAddr: 0x100022040, symSize: 0x30 }
  - { offsetInCU: 0x426E9, offset: 0x426E9, size: 0x8, addend: 0x0, symName: __ZNKSt3__110unique_ptrINS_6__loopIcEENS_14default_deleteIS2_EEEptB7v160006Ev, symObjAddr: 0x20430, symBinAddr: 0x100022070, symSize: 0x20 }
  - { offsetInCU: 0x4270F, offset: 0x4270F, size: 0x8, addend: 0x0, symName: __ZNSt3__117__owns_two_statesIcE6secondB7v160006Ev, symObjAddr: 0x20450, symBinAddr: 0x100022090, symSize: 0x20 }
  - { offsetInCU: 0x42735, offset: 0x42735, size: 0x8, addend: 0x0, symName: __ZNSt3__110unique_ptrINS_6__loopIcEENS_14default_deleteIS2_EEE7releaseB7v160006Ev, symObjAddr: 0x20470, symBinAddr: 0x1000220B0, symSize: 0x40 }
  - { offsetInCU: 0x4276A, offset: 0x4276A, size: 0x8, addend: 0x0, symName: __ZNSt3__110unique_ptrINS_6__loopIcEENS_14default_deleteIS2_EEED1B7v160006Ev, symObjAddr: 0x204B0, symBinAddr: 0x1000220F0, symSize: 0x20 }
  - { offsetInCU: 0x42794, offset: 0x42794, size: 0x8, addend: 0x0, symName: __ZNKSt3__117__compressed_pairIPNS_13__empty_stateIcEENS_14default_deleteIS2_EEE5firstB7v160006Ev, symObjAddr: 0x204D0, symBinAddr: 0x100022110, symSize: 0x20 }
  - { offsetInCU: 0x427BA, offset: 0x427BA, size: 0x8, addend: 0x0, symName: __ZNKSt3__122__compressed_pair_elemIPNS_13__empty_stateIcEELi0ELb0EE5__getB7v160006Ev, symObjAddr: 0x204F0, symBinAddr: 0x100022130, symSize: 0x10 }
  - { offsetInCU: 0x427E0, offset: 0x427E0, size: 0x8, addend: 0x0, symName: __ZNSt3__16__loopIcEC2B7v160006EjPNS_6__nodeIcEEPNS_16__owns_one_stateIcEEjjbmm, symObjAddr: 0x20500, symBinAddr: 0x100022140, symSize: 0x90 }
  - { offsetInCU: 0x42882, offset: 0x42882, size: 0x8, addend: 0x0, symName: __ZNSt3__117__owns_two_statesIcEC2B7v160006EPNS_6__nodeIcEEPNS_16__owns_one_stateIcEE, symObjAddr: 0x20590, symBinAddr: 0x1000221D0, symSize: 0x50 }
  - { offsetInCU: 0x428CA, offset: 0x428CA, size: 0x8, addend: 0x0, symName: __ZNSt3__16__loopIcED1Ev, symObjAddr: 0x205E0, symBinAddr: 0x100022220, symSize: 0x20 }
  - { offsetInCU: 0x428F7, offset: 0x428F7, size: 0x8, addend: 0x0, symName: __ZNSt3__16__loopIcED0Ev, symObjAddr: 0x20600, symBinAddr: 0x100022240, symSize: 0x30 }
  - { offsetInCU: 0x42924, offset: 0x42924, size: 0x8, addend: 0x0, symName: __ZNKSt3__16__loopIcE6__execERNS_7__stateIcEE, symObjAddr: 0x20630, symBinAddr: 0x100022270, symSize: 0x210 }
  - { offsetInCU: 0x429B3, offset: 0x429B3, size: 0x8, addend: 0x0, symName: __ZNKSt3__16__loopIcE12__exec_splitEbRNS_7__stateIcEE, symObjAddr: 0x20840, symBinAddr: 0x100022480, symSize: 0x90 }
  - { offsetInCU: 0x429F9, offset: 0x429F9, size: 0x8, addend: 0x0, symName: __ZNSt3__117__owns_two_statesIcED1Ev, symObjAddr: 0x208D0, symBinAddr: 0x100022510, symSize: 0x20 }
  - { offsetInCU: 0x42A25, offset: 0x42A25, size: 0x8, addend: 0x0, symName: __ZNSt3__117__owns_two_statesIcED0Ev, symObjAddr: 0x208F0, symBinAddr: 0x100022530, symSize: 0x30 }
  - { offsetInCU: 0x42A51, offset: 0x42A51, size: 0x8, addend: 0x0, symName: __ZNSt3__117__owns_two_statesIcED2Ev, symObjAddr: 0x20920, symBinAddr: 0x100022560, symSize: 0x50 }
  - { offsetInCU: 0x42A7D, offset: 0x42A7D, size: 0x8, addend: 0x0, symName: __ZNSt3__16__loopIcED2Ev, symObjAddr: 0x20970, symBinAddr: 0x1000225B0, symSize: 0x20 }
  - { offsetInCU: 0x42AAA, offset: 0x42AAA, size: 0x8, addend: 0x0, symName: __ZNSt3__16vectorINS_4pairImPKcEENS_9allocatorIS4_EEEixB7v160006Em, symObjAddr: 0x20990, symBinAddr: 0x1000225D0, symSize: 0x20 }
  - { offsetInCU: 0x42AE1, offset: 0x42AE1, size: 0x8, addend: 0x0, symName: __ZNKSt3__16__loopIcE13__init_repeatB7v160006ERNS_7__stateIcEE, symObjAddr: 0x209B0, symBinAddr: 0x1000225F0, symSize: 0xE0 }
  - { offsetInCU: 0x42B33, offset: 0x42B33, size: 0x8, addend: 0x0, symName: __ZNKSt3__117__owns_two_statesIcE6secondB7v160006Ev, symObjAddr: 0x20A90, symBinAddr: 0x1000226D0, symSize: 0x20 }
  - { offsetInCU: 0x42B59, offset: 0x42B59, size: 0x8, addend: 0x0, symName: __ZNSt3__110unique_ptrINS_6__loopIcEENS_14default_deleteIS2_EEEC2B7v160006ILb1EvEEPS2_, symObjAddr: 0x20AB0, symBinAddr: 0x1000226F0, symSize: 0x40 }
  - { offsetInCU: 0x42B9C, offset: 0x42B9C, size: 0x8, addend: 0x0, symName: __ZNSt3__117__compressed_pairIPNS_6__loopIcEENS_14default_deleteIS2_EEEC1B7v160006IRS3_NS_16__value_init_tagEEEOT_OT0_, symObjAddr: 0x20AF0, symBinAddr: 0x100022730, symSize: 0x30 }
  - { offsetInCU: 0x42BF4, offset: 0x42BF4, size: 0x8, addend: 0x0, symName: __ZNSt3__117__compressed_pairIPNS_6__loopIcEENS_14default_deleteIS2_EEEC2B7v160006IRS3_NS_16__value_init_tagEEEOT_OT0_, symObjAddr: 0x20B20, symBinAddr: 0x100022760, symSize: 0x40 }
  - { offsetInCU: 0x42C4C, offset: 0x42C4C, size: 0x8, addend: 0x0, symName: __ZNSt3__122__compressed_pair_elemIPNS_6__loopIcEELi0ELb0EEC2B7v160006IRS3_vEEOT_, symObjAddr: 0x20B60, symBinAddr: 0x1000227A0, symSize: 0x20 }
  - { offsetInCU: 0x42C8E, offset: 0x42C8E, size: 0x8, addend: 0x0, symName: __ZNSt3__122__compressed_pair_elemINS_14default_deleteINS_6__loopIcEEEELi1ELb1EEC2B7v160006ENS_16__value_init_tagE, symObjAddr: 0x20B80, symBinAddr: 0x1000227C0, symSize: 0x10 }
  - { offsetInCU: 0x42CC2, offset: 0x42CC2, size: 0x8, addend: 0x0, symName: __ZNKSt3__117__compressed_pairIPNS_6__loopIcEENS_14default_deleteIS2_EEE5firstB7v160006Ev, symObjAddr: 0x20B90, symBinAddr: 0x1000227D0, symSize: 0x20 }
  - { offsetInCU: 0x42CE8, offset: 0x42CE8, size: 0x8, addend: 0x0, symName: __ZNKSt3__122__compressed_pair_elemIPNS_6__loopIcEELi0ELb0EE5__getB7v160006Ev, symObjAddr: 0x20BB0, symBinAddr: 0x1000227F0, symSize: 0x10 }
  - { offsetInCU: 0x42D0E, offset: 0x42D0E, size: 0x8, addend: 0x0, symName: __ZNSt3__117__repeat_one_loopIcEC2B7v160006EPNS_6__nodeIcEE, symObjAddr: 0x20BC0, symBinAddr: 0x100022800, symSize: 0x40 }
  - { offsetInCU: 0x42D47, offset: 0x42D47, size: 0x8, addend: 0x0, symName: __ZNSt3__117__repeat_one_loopIcED1Ev, symObjAddr: 0x20C00, symBinAddr: 0x100022840, symSize: 0x20 }
  - { offsetInCU: 0x42D74, offset: 0x42D74, size: 0x8, addend: 0x0, symName: __ZNSt3__117__repeat_one_loopIcED0Ev, symObjAddr: 0x20C20, symBinAddr: 0x100022860, symSize: 0x30 }
  - { offsetInCU: 0x42DA1, offset: 0x42DA1, size: 0x8, addend: 0x0, symName: __ZNKSt3__117__repeat_one_loopIcE6__execERNS_7__stateIcEE, symObjAddr: 0x20C50, symBinAddr: 0x100022890, symSize: 0x40 }
  - { offsetInCU: 0x42DD8, offset: 0x42DD8, size: 0x8, addend: 0x0, symName: __ZNSt3__117__repeat_one_loopIcED2Ev, symObjAddr: 0x20C90, symBinAddr: 0x1000228D0, symSize: 0x20 }
  - { offsetInCU: 0x42E05, offset: 0x42E05, size: 0x8, addend: 0x0, symName: __ZNSt3__117__compressed_pairIPNS_6__loopIcEENS_14default_deleteIS2_EEE5firstB7v160006Ev, symObjAddr: 0x20CB0, symBinAddr: 0x1000228F0, symSize: 0x20 }
  - { offsetInCU: 0x42E2B, offset: 0x42E2B, size: 0x8, addend: 0x0, symName: __ZNSt3__122__compressed_pair_elemIPNS_6__loopIcEELi0ELb0EE5__getB7v160006Ev, symObjAddr: 0x20CD0, symBinAddr: 0x100022910, symSize: 0x10 }
  - { offsetInCU: 0x42E51, offset: 0x42E51, size: 0x8, addend: 0x0, symName: __ZNSt3__110unique_ptrINS_6__loopIcEENS_14default_deleteIS2_EEED2B7v160006Ev, symObjAddr: 0x20CE0, symBinAddr: 0x100022920, symSize: 0x20 }
  - { offsetInCU: 0x42E7B, offset: 0x42E7B, size: 0x8, addend: 0x0, symName: __ZNSt3__110unique_ptrINS_6__loopIcEENS_14default_deleteIS2_EEE5resetB7v160006EPS2_, symObjAddr: 0x20D00, symBinAddr: 0x100022940, symSize: 0x70 }
  - { offsetInCU: 0x42EBF, offset: 0x42EBF, size: 0x8, addend: 0x0, symName: __ZNSt3__117__compressed_pairIPNS_6__loopIcEENS_14default_deleteIS2_EEE6secondB7v160006Ev, symObjAddr: 0x20D70, symBinAddr: 0x1000229B0, symSize: 0x20 }
  - { offsetInCU: 0x42EE5, offset: 0x42EE5, size: 0x8, addend: 0x0, symName: __ZNKSt3__114default_deleteINS_6__loopIcEEEclB7v160006EPS2_, symObjAddr: 0x20D90, symBinAddr: 0x1000229D0, symSize: 0x40 }
  - { offsetInCU: 0x42F19, offset: 0x42F19, size: 0x8, addend: 0x0, symName: __ZNSt3__122__compressed_pair_elemINS_14default_deleteINS_6__loopIcEEEELi1ELb1EE5__getB7v160006Ev, symObjAddr: 0x20DD0, symBinAddr: 0x100022A10, symSize: 0x10 }
  - { offsetInCU: 0x42F3F, offset: 0x42F3F, size: 0x8, addend: 0x0, symName: __ZNSt3__114numeric_limitsIiE3maxB7v160006Ev, symObjAddr: 0x20DE0, symBinAddr: 0x100022A20, symSize: 0x10 }
  - { offsetInCU: 0x42F53, offset: 0x42F53, size: 0x8, addend: 0x0, symName: __ZNSt3__123__libcpp_numeric_limitsIiLb1EE3maxB7v160006Ev, symObjAddr: 0x20DF0, symBinAddr: 0x100022A30, symSize: 0x10 }
  - { offsetInCU: 0x42F7C, offset: 0x42F7C, size: 0x8, addend: 0x0, symName: __ZNSt3__111__alternateIcEC1B7v160006EPNS_16__owns_one_stateIcEES4_, symObjAddr: 0x20E00, symBinAddr: 0x100022A40, symSize: 0x30 }
  - { offsetInCU: 0x42FD9, offset: 0x42FD9, size: 0x8, addend: 0x0, symName: __ZNSt3__121__empty_non_own_stateIcEC1B7v160006EPNS_6__nodeIcEE, symObjAddr: 0x20E30, symBinAddr: 0x100022A70, symSize: 0x30 }
  - { offsetInCU: 0x43012, offset: 0x43012, size: 0x8, addend: 0x0, symName: __ZNSt3__111__alternateIcEC2B7v160006EPNS_16__owns_one_stateIcEES4_, symObjAddr: 0x20E60, symBinAddr: 0x100022AA0, symSize: 0x50 }
  - { offsetInCU: 0x4305A, offset: 0x4305A, size: 0x8, addend: 0x0, symName: __ZNSt3__111__alternateIcED1Ev, symObjAddr: 0x20EB0, symBinAddr: 0x100022AF0, symSize: 0x20 }
  - { offsetInCU: 0x43087, offset: 0x43087, size: 0x8, addend: 0x0, symName: __ZNSt3__111__alternateIcED0Ev, symObjAddr: 0x20ED0, symBinAddr: 0x100022B10, symSize: 0x30 }
  - { offsetInCU: 0x430B4, offset: 0x430B4, size: 0x8, addend: 0x0, symName: __ZNKSt3__111__alternateIcE6__execERNS_7__stateIcEE, symObjAddr: 0x20F00, symBinAddr: 0x100022B40, symSize: 0x20 }
  - { offsetInCU: 0x430EB, offset: 0x430EB, size: 0x8, addend: 0x0, symName: __ZNKSt3__111__alternateIcE12__exec_splitEbRNS_7__stateIcEE, symObjAddr: 0x20F20, symBinAddr: 0x100022B60, symSize: 0x70 }
  - { offsetInCU: 0x43131, offset: 0x43131, size: 0x8, addend: 0x0, symName: __ZNSt3__111__alternateIcED2Ev, symObjAddr: 0x20F90, symBinAddr: 0x100022BD0, symSize: 0x20 }
  - { offsetInCU: 0x4315E, offset: 0x4315E, size: 0x8, addend: 0x0, symName: __ZNSt3__121__empty_non_own_stateIcEC2B7v160006EPNS_6__nodeIcEE, symObjAddr: 0x20FB0, symBinAddr: 0x100022BF0, symSize: 0x40 }
  - { offsetInCU: 0x43197, offset: 0x43197, size: 0x8, addend: 0x0, symName: __ZNSt3__121__empty_non_own_stateIcED1Ev, symObjAddr: 0x20FF0, symBinAddr: 0x100022C30, symSize: 0x20 }
  - { offsetInCU: 0x431C4, offset: 0x431C4, size: 0x8, addend: 0x0, symName: __ZNSt3__121__empty_non_own_stateIcED0Ev, symObjAddr: 0x21010, symBinAddr: 0x100022C50, symSize: 0x30 }
  - { offsetInCU: 0x431F1, offset: 0x431F1, size: 0x8, addend: 0x0, symName: __ZNKSt3__121__empty_non_own_stateIcE6__execERNS_7__stateIcEE, symObjAddr: 0x21040, symBinAddr: 0x100022C80, symSize: 0x40 }
  - { offsetInCU: 0x43228, offset: 0x43228, size: 0x8, addend: 0x0, symName: __ZNSt3__121__empty_non_own_stateIcED2Ev, symObjAddr: 0x21080, symBinAddr: 0x100022CC0, symSize: 0x20 }
  - { offsetInCU: 0x43255, offset: 0x43255, size: 0x8, addend: 0x0, symName: __ZNSt3__111basic_regexIcNS_12regex_traitsIcEEE21__parse_RE_expressionIPKcEET_S7_S7_, symObjAddr: 0x210A0, symBinAddr: 0x100022CE0, symSize: 0x60 }
  - { offsetInCU: 0x432C1, offset: 0x432C1, size: 0x8, addend: 0x0, symName: __ZNSt3__111basic_regexIcNS_12regex_traitsIcEEE17__parse_simple_REIPKcEET_S7_S7_, symObjAddr: 0x21160, symBinAddr: 0x100022DA0, symSize: 0xA0 }
  - { offsetInCU: 0x4334B, offset: 0x4334B, size: 0x8, addend: 0x0, symName: __ZNSt3__111basic_regexIcNS_12regex_traitsIcEEE18__parse_nondupl_REIPKcEET_S7_S7_, symObjAddr: 0x21200, symBinAddr: 0x100022E40, symSize: 0xF0 }
  - { offsetInCU: 0x433C6, offset: 0x433C6, size: 0x8, addend: 0x0, symName: __ZNSt3__111basic_regexIcNS_12regex_traitsIcEEE22__parse_RE_dupl_symbolIPKcEET_S7_S7_PNS_16__owns_one_stateIcEEjj, symObjAddr: 0x212F0, symBinAddr: 0x100022F30, symSize: 0x230 }
  - { offsetInCU: 0x43499, offset: 0x43499, size: 0x8, addend: 0x0, symName: __ZNSt3__111basic_regexIcNS_12regex_traitsIcEEE32__parse_one_char_or_coll_elem_REIPKcEET_S7_S7_, symObjAddr: 0x21520, symBinAddr: 0x100023160, symSize: 0xD0 }
  - { offsetInCU: 0x434F7, offset: 0x434F7, size: 0x8, addend: 0x0, symName: __ZNSt3__111basic_regexIcNS_12regex_traitsIcEEE23__parse_Back_open_parenIPKcEET_S7_S7_, symObjAddr: 0x215F0, symBinAddr: 0x100023230, symSize: 0x90 }
  - { offsetInCU: 0x43563, offset: 0x43563, size: 0x8, addend: 0x0, symName: __ZNSt3__111basic_regexIcNS_12regex_traitsIcEEE24__parse_Back_close_parenIPKcEET_S7_S7_, symObjAddr: 0x21680, symBinAddr: 0x1000232C0, symSize: 0x90 }
  - { offsetInCU: 0x435CF, offset: 0x435CF, size: 0x8, addend: 0x0, symName: __ZNSt3__111basic_regexIcNS_12regex_traitsIcEEE15__parse_BACKREFIPKcEET_S7_S7_, symObjAddr: 0x21710, symBinAddr: 0x100023350, symSize: 0xA0 }
  - { offsetInCU: 0x4363B, offset: 0x4363B, size: 0x8, addend: 0x0, symName: __ZNSt3__111basic_regexIcNS_12regex_traitsIcEEE16__parse_ORD_CHARIPKcEET_S7_S7_, symObjAddr: 0x217B0, symBinAddr: 0x1000233F0, symSize: 0xE0 }
  - { offsetInCU: 0x436A7, offset: 0x436A7, size: 0x8, addend: 0x0, symName: __ZNSt3__111basic_regexIcNS_12regex_traitsIcEEE19__parse_QUOTED_CHARIPKcEET_S7_S7_, symObjAddr: 0x21890, symBinAddr: 0x1000234D0, symSize: 0x100 }
  - { offsetInCU: 0x43713, offset: 0x43713, size: 0x8, addend: 0x0, symName: __ZNSt3__111basic_regexIcNS_12regex_traitsIcEEE16__push_match_anyEv, symObjAddr: 0x21990, symBinAddr: 0x1000235D0, symSize: 0xA0 }
  - { offsetInCU: 0x43750, offset: 0x43750, size: 0x8, addend: 0x0, symName: __ZNSt3__111__match_anyIcEC1B7v160006EPNS_6__nodeIcEE, symObjAddr: 0x21A30, symBinAddr: 0x100023670, symSize: 0x30 }
  - { offsetInCU: 0x43789, offset: 0x43789, size: 0x8, addend: 0x0, symName: __ZNSt3__111__match_anyIcEC2B7v160006EPNS_6__nodeIcEE, symObjAddr: 0x21A60, symBinAddr: 0x1000236A0, symSize: 0x40 }
  - { offsetInCU: 0x437C2, offset: 0x437C2, size: 0x8, addend: 0x0, symName: __ZNSt3__111__match_anyIcED1Ev, symObjAddr: 0x21AA0, symBinAddr: 0x1000236E0, symSize: 0x20 }
  - { offsetInCU: 0x437EF, offset: 0x437EF, size: 0x8, addend: 0x0, symName: __ZNSt3__111__match_anyIcED0Ev, symObjAddr: 0x21AC0, symBinAddr: 0x100023700, symSize: 0x30 }
  - { offsetInCU: 0x4381C, offset: 0x4381C, size: 0x8, addend: 0x0, symName: __ZNKSt3__111__match_anyIcE6__execERNS_7__stateIcEE, symObjAddr: 0x21AF0, symBinAddr: 0x100023730, symSize: 0xA0 }
  - { offsetInCU: 0x43853, offset: 0x43853, size: 0x8, addend: 0x0, symName: __ZNSt3__111__match_anyIcED2Ev, symObjAddr: 0x21B90, symBinAddr: 0x1000237D0, symSize: 0x20 }
  - { offsetInCU: 0x43880, offset: 0x43880, size: 0x8, addend: 0x0, symName: __ZNSt3__111basic_regexIcNS_12regex_traitsIcEEE15__test_back_refEc, symObjAddr: 0x21BB0, symBinAddr: 0x1000237F0, symSize: 0x90 }
  - { offsetInCU: 0x438C6, offset: 0x438C6, size: 0x8, addend: 0x0, symName: __ZNSt3__111basic_regexIcNS_12regex_traitsIcEEE23__parse_Back_open_braceIPKcEET_S7_S7_, symObjAddr: 0x21C40, symBinAddr: 0x100023880, symSize: 0x90 }
  - { offsetInCU: 0x43932, offset: 0x43932, size: 0x8, addend: 0x0, symName: __ZNSt3__111basic_regexIcNS_12regex_traitsIcEEE24__parse_Back_close_braceIPKcEET_S7_S7_, symObjAddr: 0x21CD0, symBinAddr: 0x100023910, symSize: 0x90 }
  - { offsetInCU: 0x4399E, offset: 0x4399E, size: 0x8, addend: 0x0, symName: __ZNSt3__111basic_regexIcNS_12regex_traitsIcEEE18__parse_ERE_branchIPKcEET_S7_S7_, symObjAddr: 0x21D60, symBinAddr: 0x1000239A0, symSize: 0x80 }
  - { offsetInCU: 0x439FC, offset: 0x439FC, size: 0x8, addend: 0x0, symName: __ZNSt3__111basic_regexIcNS_12regex_traitsIcEEE22__parse_ERE_expressionIPKcEET_S7_S7_, symObjAddr: 0x21DE0, symBinAddr: 0x100023A20, symSize: 0x190 }
  - { offsetInCU: 0x43A95, offset: 0x43A95, size: 0x8, addend: 0x0, symName: __ZNSt3__111basic_regexIcNS_12regex_traitsIcEEE33__parse_one_char_or_coll_elem_EREIPKcEET_S7_S7_, symObjAddr: 0x21F70, symBinAddr: 0x100023BB0, symSize: 0xD0 }
  - { offsetInCU: 0x43AF3, offset: 0x43AF3, size: 0x8, addend: 0x0, symName: __ZNSt3__111basic_regexIcNS_12regex_traitsIcEEE20__parse_ORD_CHAR_EREIPKcEET_S7_S7_, symObjAddr: 0x22040, symBinAddr: 0x100023C80, symSize: 0x220 }
  - { offsetInCU: 0x43B42, offset: 0x43B42, size: 0x8, addend: 0x0, symName: __ZNSt3__111basic_regexIcNS_12regex_traitsIcEEE23__parse_QUOTED_CHAR_EREIPKcEET_S7_S7_, symObjAddr: 0x22260, symBinAddr: 0x100023EA0, symSize: 0x2A0 }
  - { offsetInCU: 0x43BCF, offset: 0x43BCF, size: 0x8, addend: 0x0, symName: __ZNKSt3__113basic_istreamIcNS_11char_traitsIcEEE6sentrycvbB7v160006Ev, symObjAddr: 0x22780, symBinAddr: 0x1000243C0, symSize: 0x20 }
  - { offsetInCU: 0x43BF5, offset: 0x43BF5, size: 0x8, addend: 0x0, symName: __ZNSt3__115basic_streambufIcNS_11char_traitsIcEEE6sbumpcB7v160006Ev, symObjAddr: 0x227A0, symBinAddr: 0x1000243E0, symSize: 0x60 }
  - { offsetInCU: 0x43C1B, offset: 0x43C1B, size: 0x8, addend: 0x0, symName: __ZNSt3__111char_traitsIcE12to_char_typeEi, symObjAddr: 0x22800, symBinAddr: 0x100024440, symSize: 0x10 }
  - { offsetInCU: 0x43C3E, offset: 0x43C3E, size: 0x8, addend: 0x0, symName: __ZNSt3__111char_traitsIcE2eqEcc, symObjAddr: 0x22810, symBinAddr: 0x100024450, symSize: 0x30 }
  - { offsetInCU: 0x43C6F, offset: 0x43C6F, size: 0x8, addend: 0x0, symName: __ZNSt3__18ios_base18__setstate_nothrowB7v160006Ej, symObjAddr: 0x22840, symBinAddr: 0x100024480, symSize: 0x50 }
  - { offsetInCU: 0x43CA4, offset: 0x43CA4, size: 0x8, addend: 0x0, symName: __ZNKSt3__19basic_iosIcNS_11char_traitsIcEEE10exceptionsB7v160006Ev, symObjAddr: 0x22890, symBinAddr: 0x1000244D0, symSize: 0x20 }
  - { offsetInCU: 0x43CCA, offset: 0x43CCA, size: 0x8, addend: 0x0, symName: __ZNSt3__111char_traitsIcE11to_int_typeEc, symObjAddr: 0x228B0, symBinAddr: 0x1000244F0, symSize: 0x10 }
  - { offsetInCU: 0x43CED, offset: 0x43CED, size: 0x8, addend: 0x0, symName: __ZNKSt3__18ios_base10exceptionsB7v160006Ev, symObjAddr: 0x228C0, symBinAddr: 0x100024500, symSize: 0x20 }
  - { offsetInCU: 0x43D15, offset: 0x43D15, size: 0x8, addend: 0x0, symName: __ZNKSt3__19basic_iosIcNS_11char_traitsIcEEE4failB7v160006Ev, symObjAddr: 0x228E0, symBinAddr: 0x100024520, symSize: 0x20 }
  - { offsetInCU: 0x43D3B, offset: 0x43D3B, size: 0x8, addend: 0x0, symName: __ZNKSt3__18ios_base4failB7v160006Ev, symObjAddr: 0x22900, symBinAddr: 0x100024540, symSize: 0x20 }
  - { offsetInCU: 0x43D63, offset: 0x43D63, size: 0x8, addend: 0x0, symName: __ZNSt3__112basic_stringIcNS_11char_traitsIcEENS_9allocatorIcEEE15__make_iteratorB7v160006EPc, symObjAddr: 0x22920, symBinAddr: 0x100024560, symSize: 0x30 }
  - { offsetInCU: 0x43D98, offset: 0x43D98, size: 0x8, addend: 0x0, symName: __ZNSt3__111__wrap_iterIPcEC1B7v160006EPKvS1_, symObjAddr: 0x22950, symBinAddr: 0x100024590, symSize: 0x30 }
  - { offsetInCU: 0x43DDE, offset: 0x43DDE, size: 0x8, addend: 0x0, symName: __ZNSt3__111__wrap_iterIPcEC2B7v160006EPKvS1_, symObjAddr: 0x22980, symBinAddr: 0x1000245C0, symSize: 0x20 }
  - { offsetInCU: 0x43E24, offset: 0x43E24, size: 0x8, addend: 0x0, symName: __ZNSt3__114regex_iteratorINS_11__wrap_iterIPKcEEcNS_12regex_traitsIcEEEC2ES4_S4_RKNS_11basic_regexIcS6_EENS_15regex_constants15match_flag_typeE, symObjAddr: 0x229A0, symBinAddr: 0x1000245E0, symSize: 0xB0 }
  - { offsetInCU: 0x43E8C, offset: 0x43E8C, size: 0x8, addend: 0x0, symName: __ZNSt3__113match_resultsINS_11__wrap_iterIPKcEENS_9allocatorINS_9sub_matchIS4_EEEEEC1Ev, symObjAddr: 0x22A50, symBinAddr: 0x100024690, symSize: 0x30 }
  - { offsetInCU: 0x43EB6, offset: 0x43EB6, size: 0x8, addend: 0x0, symName: __ZNSt3__19allocatorINS_9sub_matchINS_11__wrap_iterIPKcEEEEEC1B7v160006Ev, symObjAddr: 0x22BD0, symBinAddr: 0x100024810, symSize: 0x20 }
  - { offsetInCU: 0x43EE0, offset: 0x43EE0, size: 0x8, addend: 0x0, symName: __ZNSt3__113match_resultsINS_11__wrap_iterIPKcEENS_9allocatorINS_9sub_matchIS4_EEEEEC1ERKS8_, symObjAddr: 0x22BF0, symBinAddr: 0x100024830, symSize: 0x30 }
  - { offsetInCU: 0x43F1B, offset: 0x43F1B, size: 0x8, addend: 0x0, symName: __ZNSt3__19allocatorINS_9sub_matchINS_11__wrap_iterIPKcEEEEEC2B7v160006Ev, symObjAddr: 0x22C20, symBinAddr: 0x100024860, symSize: 0x20 }
  - { offsetInCU: 0x43F45, offset: 0x43F45, size: 0x8, addend: 0x0, symName: __ZNSt3__116__non_trivial_ifILb1ENS_9allocatorINS_9sub_matchINS_11__wrap_iterIPKcEEEEEEEC2B7v160006Ev, symObjAddr: 0x22C40, symBinAddr: 0x100024880, symSize: 0x10 }
  - { offsetInCU: 0x43F6F, offset: 0x43F6F, size: 0x8, addend: 0x0, symName: __ZNSt3__113match_resultsINS_11__wrap_iterIPKcEENS_9allocatorINS_9sub_matchIS4_EEEEEC2ERKS8_, symObjAddr: 0x22C50, symBinAddr: 0x100024890, symSize: 0xA0 }
  - { offsetInCU: 0x43FAA, offset: 0x43FAA, size: 0x8, addend: 0x0, symName: __ZNSt3__16vectorINS_9sub_matchINS_11__wrap_iterIPKcEEEENS_9allocatorIS6_EEEC1B7v160006ERKS8_, symObjAddr: 0x22CF0, symBinAddr: 0x100024930, symSize: 0x30 }
  - { offsetInCU: 0x43FE3, offset: 0x43FE3, size: 0x8, addend: 0x0, symName: __ZNSt3__19sub_matchINS_11__wrap_iterIPKcEEEC1B7v160006Ev, symObjAddr: 0x22D20, symBinAddr: 0x100024960, symSize: 0x20 }
  - { offsetInCU: 0x4400D, offset: 0x4400D, size: 0x8, addend: 0x0, symName: __ZNSt3__111__wrap_iterIPKcEC1B7v160006Ev, symObjAddr: 0x22D40, symBinAddr: 0x100024980, symSize: 0x20 }
  - { offsetInCU: 0x44037, offset: 0x44037, size: 0x8, addend: 0x0, symName: __ZNSt3__16vectorINS_9sub_matchINS_11__wrap_iterIPKcEEEENS_9allocatorIS6_EEEC2B7v160006ERKS8_, symObjAddr: 0x22D60, symBinAddr: 0x1000249A0, symSize: 0x60 }
  - { offsetInCU: 0x44070, offset: 0x44070, size: 0x8, addend: 0x0, symName: __ZNSt3__117__compressed_pairIPNS_9sub_matchINS_11__wrap_iterIPKcEEEENS_9allocatorIS6_EEEC1B7v160006IDnRKS9_EEOT_OT0_, symObjAddr: 0x22DC0, symBinAddr: 0x100024A00, symSize: 0x30 }
  - { offsetInCU: 0x440C8, offset: 0x440C8, size: 0x8, addend: 0x0, symName: __ZNSt3__117__compressed_pairIPNS_9sub_matchINS_11__wrap_iterIPKcEEEENS_9allocatorIS6_EEEC2B7v160006IDnRKS9_EEOT_OT0_, symObjAddr: 0x22DF0, symBinAddr: 0x100024A30, symSize: 0x40 }
  - { offsetInCU: 0x44120, offset: 0x44120, size: 0x8, addend: 0x0, symName: __ZNSt3__122__compressed_pair_elemINS_9allocatorINS_9sub_matchINS_11__wrap_iterIPKcEEEEEELi1ELb1EEC2B7v160006IRKS8_vEEOT_, symObjAddr: 0x22E30, symBinAddr: 0x100024A70, symSize: 0x10 }
  - { offsetInCU: 0x44162, offset: 0x44162, size: 0x8, addend: 0x0, symName: __ZNSt3__19sub_matchINS_11__wrap_iterIPKcEEEC2B7v160006Ev, symObjAddr: 0x22E40, symBinAddr: 0x100024A80, symSize: 0x30 }
  - { offsetInCU: 0x4418C, offset: 0x4418C, size: 0x8, addend: 0x0, symName: __ZNSt3__14pairINS_11__wrap_iterIPKcEES4_EC2B7v160006ILb1ELPv0EEEv, symObjAddr: 0x22E70, symBinAddr: 0x100024AB0, symSize: 0x30 }
  - { offsetInCU: 0x441C6, offset: 0x441C6, size: 0x8, addend: 0x0, symName: __ZNSt3__111__wrap_iterIPKcEC2B7v160006Ev, symObjAddr: 0x22EA0, symBinAddr: 0x100024AE0, symSize: 0x30 }
  - { offsetInCU: 0x441F0, offset: 0x441F0, size: 0x8, addend: 0x0, symName: __ZNKSt3__111basic_regexIcNS_12regex_traitsIcEEE8__searchINS_9allocatorINS_9sub_matchIPKcEEEEEEbS8_S8_RNS_13match_resultsIS8_T_EENS_15regex_constants15match_flag_typeE, symObjAddr: 0x22EE0, symBinAddr: 0x100024B20, symSize: 0x300 }
  - { offsetInCU: 0x44263, offset: 0x44263, size: 0x8, addend: 0x0, symName: __ZNSt3__113match_resultsINS_11__wrap_iterIPKcEENS_9allocatorINS_9sub_matchIS4_EEEEE8__assignB7v160006IS3_NS5_INS6_IS3_EEEEEEvS4_S4_RKNS0_IT_T0_EEb, symObjAddr: 0x231E0, symBinAddr: 0x100024E20, symSize: 0x350 }
  - { offsetInCU: 0x44303, offset: 0x44303, size: 0x8, addend: 0x0, symName: __ZNKSt3__111basic_regexIcNS_12regex_traitsIcEEE16__match_at_startINS_9allocatorINS_9sub_matchIPKcEEEEEEbS8_S8_RNS_13match_resultsIS8_T_EENS_15regex_constants15match_flag_typeEb, symObjAddr: 0x23560, symBinAddr: 0x1000251A0, symSize: 0xE0 }
  - { offsetInCU: 0x4437F, offset: 0x4437F, size: 0x8, addend: 0x0, symName: __ZNKSt3__113match_resultsIPKcNS_9allocatorINS_9sub_matchIS2_EEEEEixB7v160006Em, symObjAddr: 0x23640, symBinAddr: 0x100025280, symSize: 0x70 }
  - { offsetInCU: 0x443B4, offset: 0x443B4, size: 0x8, addend: 0x0, symName: __ZNKSt3__111basic_regexIcNS_12regex_traitsIcEEE29__match_at_start_posix_nosubsINS_9allocatorINS_9sub_matchIPKcEEEEEEbS8_S8_RNS_13match_resultsIS8_T_EENS_15regex_constants15match_flag_typeEb, symObjAddr: 0x236E0, symBinAddr: 0x100025320, symSize: 0x5E0 }
  - { offsetInCU: 0x444D2, offset: 0x444D2, size: 0x8, addend: 0x0, symName: __ZNKSt3__111basic_regexIcNS_12regex_traitsIcEEE27__match_at_start_posix_subsINS_9allocatorINS_9sub_matchIPKcEEEEEEbS8_S8_RNS_13match_resultsIS8_T_EENS_15regex_constants15match_flag_typeEb, symObjAddr: 0x23CC0, symBinAddr: 0x100025900, symSize: 0x710 }
  - { offsetInCU: 0x4462E, offset: 0x4462E, size: 0x8, addend: 0x0, symName: __ZNSt3__15dequeINS_7__stateIcEENS_9allocatorIS2_EEEC1B7v160006Ev, symObjAddr: 0x243D0, symBinAddr: 0x100026010, symSize: 0x20 }
  - { offsetInCU: 0x44658, offset: 0x44658, size: 0x8, addend: 0x0, symName: __ZNSt3__15dequeINS_7__stateIcEENS_9allocatorIS2_EEE9push_backEOS2_, symObjAddr: 0x243F0, symBinAddr: 0x100026030, symSize: 0x90 }
  - { offsetInCU: 0x4469E, offset: 0x4469E, size: 0x8, addend: 0x0, symName: __ZNSt3__15dequeINS_7__stateIcEENS_9allocatorIS2_EEE4backEv, symObjAddr: 0x24480, symBinAddr: 0x1000260C0, symSize: 0x70 }
  - { offsetInCU: 0x446D5, offset: 0x446D5, size: 0x8, addend: 0x0, symName: __ZNSt3__15dequeINS_7__stateIcEENS_9allocatorIS2_EEE8pop_backEv, symObjAddr: 0x244F0, symBinAddr: 0x100026130, symSize: 0xB0 }
  - { offsetInCU: 0x4471B, offset: 0x4471B, size: 0x8, addend: 0x0, symName: __ZNSt3__15dequeINS_7__stateIcEENS_9allocatorIS2_EEE5clearEv, symObjAddr: 0x245A0, symBinAddr: 0x1000261E0, symSize: 0x160 }
  - { offsetInCU: 0x44776, offset: 0x44776, size: 0x8, addend: 0x0, symName: __ZNSt3__15dequeINS_7__stateIcEENS_9allocatorIS2_EEE10push_frontEOS2_, symObjAddr: 0x24700, symBinAddr: 0x100026340, symSize: 0xA0 }
  - { offsetInCU: 0x447BC, offset: 0x447BC, size: 0x8, addend: 0x0, symName: __ZNKSt3__15dequeINS_7__stateIcEENS_9allocatorIS2_EEE5emptyB7v160006Ev, symObjAddr: 0x247A0, symBinAddr: 0x1000263E0, symSize: 0x30 }
  - { offsetInCU: 0x447E2, offset: 0x447E2, size: 0x8, addend: 0x0, symName: __ZNSt3__15dequeINS_7__stateIcEENS_9allocatorIS2_EEED1B7v160006Ev, symObjAddr: 0x247D0, symBinAddr: 0x100026410, symSize: 0x20 }
  - { offsetInCU: 0x4480C, offset: 0x4480C, size: 0x8, addend: 0x0, symName: __ZNSt3__15dequeINS_7__stateIcEENS_9allocatorIS2_EEEC2B7v160006Ev, symObjAddr: 0x247F0, symBinAddr: 0x100026430, symSize: 0x50 }
  - { offsetInCU: 0x44836, offset: 0x44836, size: 0x8, addend: 0x0, symName: __ZNSt3__114__split_bufferIPNS_7__stateIcEENS_9allocatorIS3_EEEC1Ev, symObjAddr: 0x24840, symBinAddr: 0x100026480, symSize: 0x20 }
  - { offsetInCU: 0x44868, offset: 0x44868, size: 0x8, addend: 0x0, symName: __ZNSt3__117__compressed_pairImNS_9allocatorINS_7__stateIcEEEEEC1B7v160006IiNS_18__default_init_tagEEEOT_OT0_, symObjAddr: 0x24860, symBinAddr: 0x1000264A0, symSize: 0x30 }
  - { offsetInCU: 0x448C0, offset: 0x448C0, size: 0x8, addend: 0x0, symName: __ZNSt3__114__split_bufferIPNS_7__stateIcEENS_9allocatorIS3_EEEC2Ev, symObjAddr: 0x24890, symBinAddr: 0x1000264D0, symSize: 0x60 }
  - { offsetInCU: 0x448EC, offset: 0x448EC, size: 0x8, addend: 0x0, symName: __ZNSt3__117__compressed_pairIPPNS_7__stateIcEENS_9allocatorIS3_EEEC1B7v160006IDnNS_18__default_init_tagEEEOT_OT0_, symObjAddr: 0x248F0, symBinAddr: 0x100026530, symSize: 0x30 }
  - { offsetInCU: 0x44944, offset: 0x44944, size: 0x8, addend: 0x0, symName: __ZNSt3__117__compressed_pairIPPNS_7__stateIcEENS_9allocatorIS3_EEEC2B7v160006IDnNS_18__default_init_tagEEEOT_OT0_, symObjAddr: 0x24920, symBinAddr: 0x100026560, symSize: 0x40 }
  - { offsetInCU: 0x4499C, offset: 0x4499C, size: 0x8, addend: 0x0, symName: __ZNSt3__122__compressed_pair_elemIPPNS_7__stateIcEELi0ELb0EEC2B7v160006IDnvEEOT_, symObjAddr: 0x24960, symBinAddr: 0x1000265A0, symSize: 0x20 }
  - { offsetInCU: 0x449DE, offset: 0x449DE, size: 0x8, addend: 0x0, symName: __ZNSt3__122__compressed_pair_elemINS_9allocatorIPNS_7__stateIcEEEELi1ELb1EEC2B7v160006ENS_18__default_init_tagE, symObjAddr: 0x24980, symBinAddr: 0x1000265C0, symSize: 0x20 }
  - { offsetInCU: 0x44A12, offset: 0x44A12, size: 0x8, addend: 0x0, symName: __ZNSt3__19allocatorIPNS_7__stateIcEEEC2B7v160006Ev, symObjAddr: 0x249A0, symBinAddr: 0x1000265E0, symSize: 0x20 }
  - { offsetInCU: 0x44A3C, offset: 0x44A3C, size: 0x8, addend: 0x0, symName: __ZNSt3__116__non_trivial_ifILb1ENS_9allocatorIPNS_7__stateIcEEEEEC2B7v160006Ev, symObjAddr: 0x249C0, symBinAddr: 0x100026600, symSize: 0x10 }
  - { offsetInCU: 0x44A66, offset: 0x44A66, size: 0x8, addend: 0x0, symName: __ZNSt3__117__compressed_pairImNS_9allocatorINS_7__stateIcEEEEEC2B7v160006IiNS_18__default_init_tagEEEOT_OT0_, symObjAddr: 0x249D0, symBinAddr: 0x100026610, symSize: 0x40 }
  - { offsetInCU: 0x44ABE, offset: 0x44ABE, size: 0x8, addend: 0x0, symName: __ZNSt3__122__compressed_pair_elemImLi0ELb0EEC2B7v160006IivEEOT_, symObjAddr: 0x24A10, symBinAddr: 0x100026650, symSize: 0x20 }
  - { offsetInCU: 0x44B00, offset: 0x44B00, size: 0x8, addend: 0x0, symName: __ZNSt3__15dequeINS_7__stateIcEENS_9allocatorIS2_EEE7__allocB7v160006Ev, symObjAddr: 0x24A30, symBinAddr: 0x100026670, symSize: 0x20 }
  - { offsetInCU: 0x44B26, offset: 0x44B26, size: 0x8, addend: 0x0, symName: __ZNKSt3__15dequeINS_7__stateIcEENS_9allocatorIS2_EEE12__back_spareB7v160006Ev, symObjAddr: 0x24A50, symBinAddr: 0x100026690, symSize: 0x50 }
  - { offsetInCU: 0x44B4C, offset: 0x44B4C, size: 0x8, addend: 0x0, symName: __ZNSt3__15dequeINS_7__stateIcEENS_9allocatorIS2_EEE19__add_back_capacityEv, symObjAddr: 0x24AA0, symBinAddr: 0x1000266E0, symSize: 0x380 }
  - { offsetInCU: 0x44C01, offset: 0x44C01, size: 0x8, addend: 0x0, symName: __ZNSt3__15dequeINS_7__stateIcEENS_9allocatorIS2_EEE3endB7v160006Ev, symObjAddr: 0x24E20, symBinAddr: 0x100026A60, symSize: 0xE0 }
  - { offsetInCU: 0x44C45, offset: 0x44C45, size: 0x8, addend: 0x0, symName: __ZNKSt3__116__deque_iteratorINS_7__stateIcEEPS2_RS2_PS3_lLl42EEdeB7v160006Ev, symObjAddr: 0x24F00, symBinAddr: 0x100026B40, symSize: 0x20 }
  - { offsetInCU: 0x44C6B, offset: 0x44C6B, size: 0x8, addend: 0x0, symName: __ZNSt3__15dequeINS_7__stateIcEENS_9allocatorIS2_EEE6__sizeB7v160006Ev, symObjAddr: 0x24F20, symBinAddr: 0x100026B60, symSize: 0x20 }
  - { offsetInCU: 0x44C91, offset: 0x44C91, size: 0x8, addend: 0x0, symName: __ZNSt3__117__compressed_pairImNS_9allocatorINS_7__stateIcEEEEE6secondB7v160006Ev, symObjAddr: 0x24F40, symBinAddr: 0x100026B80, symSize: 0x20 }
  - { offsetInCU: 0x44CB7, offset: 0x44CB7, size: 0x8, addend: 0x0, symName: __ZNKSt3__15dequeINS_7__stateIcEENS_9allocatorIS2_EEE10__capacityB7v160006Ev, symObjAddr: 0x24F60, symBinAddr: 0x100026BA0, symSize: 0x50 }
  - { offsetInCU: 0x44CDD, offset: 0x44CDD, size: 0x8, addend: 0x0, symName: __ZNKSt3__15dequeINS_7__stateIcEENS_9allocatorIS2_EEE4sizeB7v160006Ev, symObjAddr: 0x24FB0, symBinAddr: 0x100026BF0, symSize: 0x20 }
  - { offsetInCU: 0x44D03, offset: 0x44D03, size: 0x8, addend: 0x0, symName: __ZNKSt3__114__split_bufferIPNS_7__stateIcEENS_9allocatorIS3_EEE4sizeB7v160006Ev, symObjAddr: 0x24FD0, symBinAddr: 0x100026C10, symSize: 0x20 }
  - { offsetInCU: 0x44D29, offset: 0x44D29, size: 0x8, addend: 0x0, symName: __ZNKSt3__15dequeINS_7__stateIcEENS_9allocatorIS2_EEE6__sizeB7v160006Ev, symObjAddr: 0x24FF0, symBinAddr: 0x100026C30, symSize: 0x20 }
  - { offsetInCU: 0x44D4F, offset: 0x44D4F, size: 0x8, addend: 0x0, symName: __ZNKSt3__117__compressed_pairImNS_9allocatorINS_7__stateIcEEEEE5firstB7v160006Ev, symObjAddr: 0x25010, symBinAddr: 0x100026C50, symSize: 0x20 }
  - { offsetInCU: 0x44D75, offset: 0x44D75, size: 0x8, addend: 0x0, symName: __ZNKSt3__122__compressed_pair_elemImLi0ELb0EE5__getB7v160006Ev, symObjAddr: 0x25030, symBinAddr: 0x100026C70, symSize: 0x10 }
  - { offsetInCU: 0x44D9B, offset: 0x44D9B, size: 0x8, addend: 0x0, symName: __ZNKSt3__15dequeINS_7__stateIcEENS_9allocatorIS2_EEE13__front_spareB7v160006Ev, symObjAddr: 0x25040, symBinAddr: 0x100026C80, symSize: 0x20 }
  - { offsetInCU: 0x44DC1, offset: 0x44DC1, size: 0x8, addend: 0x0, symName: __ZNSt3__114__split_bufferIPNS_7__stateIcEENS_9allocatorIS3_EEE5frontB7v160006Ev, symObjAddr: 0x25060, symBinAddr: 0x100026CA0, symSize: 0x20 }
  - { offsetInCU: 0x44DE7, offset: 0x44DE7, size: 0x8, addend: 0x0, symName: __ZNSt3__114__split_bufferIPNS_7__stateIcEENS_9allocatorIS3_EEE9pop_frontB7v160006Ev, symObjAddr: 0x25080, symBinAddr: 0x100026CC0, symSize: 0x30 }
  - { offsetInCU: 0x44E0D, offset: 0x44E0D, size: 0x8, addend: 0x0, symName: __ZNSt3__114__split_bufferIPNS_7__stateIcEENS_9allocatorIS3_EEE9push_backB7v160006ERKS3_, symObjAddr: 0x250B0, symBinAddr: 0x100026CF0, symSize: 0x290 }
  - { offsetInCU: 0x44E85, offset: 0x44E85, size: 0x8, addend: 0x0, symName: __ZNKSt3__114__split_bufferIPNS_7__stateIcEENS_9allocatorIS3_EEE8capacityB7v160006Ev, symObjAddr: 0x25340, symBinAddr: 0x100026F80, symSize: 0x30 }
  - { offsetInCU: 0x44EAB, offset: 0x44EAB, size: 0x8, addend: 0x0, symName: __ZNKSt3__114__split_bufferIPNS_7__stateIcEENS_9allocatorIS3_EEE12__back_spareB7v160006Ev, symObjAddr: 0x25370, symBinAddr: 0x100026FB0, symSize: 0x40 }
  - { offsetInCU: 0x44ED1, offset: 0x44ED1, size: 0x8, addend: 0x0, symName: __ZNSt3__114__split_bufferIPNS_7__stateIcEENS_9allocatorIS3_EEE9push_backEOS3_, symObjAddr: 0x253B0, symBinAddr: 0x100026FF0, symSize: 0x290 }
  - { offsetInCU: 0x44F49, offset: 0x44F49, size: 0x8, addend: 0x0, symName: __ZNSt3__116allocator_traitsINS_9allocatorINS_7__stateIcEEEEE8allocateB7v160006ERS4_m, symObjAddr: 0x25640, symBinAddr: 0x100027280, symSize: 0x30 }
  - { offsetInCU: 0x44F7C, offset: 0x44F7C, size: 0x8, addend: 0x0, symName: __ZNSt3__114__split_bufferIPNS_7__stateIcEENS_9allocatorIS3_EEE10push_frontEOS3_, symObjAddr: 0x25670, symBinAddr: 0x1000272B0, symSize: 0x270 }
  - { offsetInCU: 0x44FF4, offset: 0x44FF4, size: 0x8, addend: 0x0, symName: __ZNSt3__114__split_bufferIPNS_7__stateIcEENS_9allocatorIS3_EEE7__allocB7v160006Ev, symObjAddr: 0x258E0, symBinAddr: 0x100027520, symSize: 0x20 }
  - { offsetInCU: 0x4501A, offset: 0x4501A, size: 0x8, addend: 0x0, symName: __ZNSt3__114__split_bufferIPNS_7__stateIcEERNS_9allocatorIS3_EEEC1EmmS6_, symObjAddr: 0x25900, symBinAddr: 0x100027540, symSize: 0x40 }
  - { offsetInCU: 0x45075, offset: 0x45075, size: 0x8, addend: 0x0, symName: __ZNSt3__122__allocator_destructorINS_9allocatorINS_7__stateIcEEEEEC1B7v160006ERS4_m, symObjAddr: 0x25940, symBinAddr: 0x100027580, symSize: 0x30 }
  - { offsetInCU: 0x4512C, offset: 0x4512C, size: 0x8, addend: 0x0, symName: __ZNSt3__110unique_ptrIPNS_7__stateIcEENS_22__allocator_destructorINS_9allocatorIS2_EEEEEC1B7v160006ILb1EvEES3_NS_16__dependent_typeINS_27__unique_ptr_deleter_sfinaeIS7_EEXT_EE20__good_rval_ref_typeE, symObjAddr: 0x25970, symBinAddr: 0x1000275B0, symSize: 0x30 }
  - { offsetInCU: 0x4517D, offset: 0x4517D, size: 0x8, addend: 0x0, symName: __ZNSt3__114__split_bufferIPNS_7__stateIcEERNS_9allocatorIS3_EEE9push_backEOS3_, symObjAddr: 0x259A0, symBinAddr: 0x1000275E0, symSize: 0x290 }
  - { offsetInCU: 0x451F5, offset: 0x451F5, size: 0x8, addend: 0x0, symName: __ZNKSt3__110unique_ptrIPNS_7__stateIcEENS_22__allocator_destructorINS_9allocatorIS2_EEEEE3getB7v160006Ev, symObjAddr: 0x25C30, symBinAddr: 0x100027870, symSize: 0x20 }
  - { offsetInCU: 0x4521B, offset: 0x4521B, size: 0x8, addend: 0x0, symName: __ZNSt3__110unique_ptrIPNS_7__stateIcEENS_22__allocator_destructorINS_9allocatorIS2_EEEEE7releaseB7v160006Ev, symObjAddr: 0x25C50, symBinAddr: 0x100027890, symSize: 0x40 }
  - { offsetInCU: 0x45250, offset: 0x45250, size: 0x8, addend: 0x0, symName: __ZNSt3__114__split_bufferIPNS_7__stateIcEENS_9allocatorIS3_EEE3endB7v160006Ev, symObjAddr: 0x25C90, symBinAddr: 0x1000278D0, symSize: 0x20 }
  - { offsetInCU: 0x45276, offset: 0x45276, size: 0x8, addend: 0x0, symName: __ZNSt3__114__split_bufferIPNS_7__stateIcEENS_9allocatorIS3_EEE5beginB7v160006Ev, symObjAddr: 0x25CB0, symBinAddr: 0x1000278F0, symSize: 0x20 }
  - { offsetInCU: 0x4529C, offset: 0x4529C, size: 0x8, addend: 0x0, symName: __ZNSt3__114__split_bufferIPNS_7__stateIcEERNS_9allocatorIS3_EEE10push_frontERKS3_, symObjAddr: 0x25CD0, symBinAddr: 0x100027910, symSize: 0x270 }
  - { offsetInCU: 0x45314, offset: 0x45314, size: 0x8, addend: 0x0, symName: __ZNSt3__114__split_bufferIPNS_7__stateIcEENS_9allocatorIS3_EEE9__end_capB7v160006Ev, symObjAddr: 0x25F80, symBinAddr: 0x100027BC0, symSize: 0x20 }
  - { offsetInCU: 0x4533A, offset: 0x4533A, size: 0x8, addend: 0x0, symName: __ZNSt3__114__split_bufferIPNS_7__stateIcEERNS_9allocatorIS3_EEE9__end_capB7v160006Ev, symObjAddr: 0x25FA0, symBinAddr: 0x100027BE0, symSize: 0x20 }
  - { offsetInCU: 0x45360, offset: 0x45360, size: 0x8, addend: 0x0, symName: __ZNSt3__110unique_ptrIPNS_7__stateIcEENS_22__allocator_destructorINS_9allocatorIS2_EEEEED1B7v160006Ev, symObjAddr: 0x25FC0, symBinAddr: 0x100027C00, symSize: 0x20 }
  - { offsetInCU: 0x4538A, offset: 0x4538A, size: 0x8, addend: 0x0, symName: __ZNSt3__114__split_bufferIPNS_7__stateIcEERNS_9allocatorIS3_EEED1Ev, symObjAddr: 0x25FE0, symBinAddr: 0x100027C20, symSize: 0x20 }
  - { offsetInCU: 0x453B6, offset: 0x453B6, size: 0x8, addend: 0x0, symName: __ZNSt3__114__split_bufferIPNS_7__stateIcEENS_9allocatorIS3_EEE19__destruct_at_beginB7v160006EPS3_, symObjAddr: 0x26000, symBinAddr: 0x100027C40, symSize: 0x30 }
  - { offsetInCU: 0x453EA, offset: 0x453EA, size: 0x8, addend: 0x0, symName: __ZNSt3__114__split_bufferIPNS_7__stateIcEENS_9allocatorIS3_EEE19__destruct_at_beginEPS3_NS_17integral_constantIbLb1EEE, symObjAddr: 0x26030, symBinAddr: 0x100027C70, symSize: 0x20 }
  - { offsetInCU: 0x4542A, offset: 0x4542A, size: 0x8, addend: 0x0, symName: __ZNSt3__114__split_bufferIPNS_7__stateIcEERNS_9allocatorIS3_EEE18__construct_at_endINS_13move_iteratorIPS3_EEEENS_9enable_ifIXsr27__is_cpp17_forward_iteratorIT_EE5valueEvE4typeESD_SD_, symObjAddr: 0x26090, symBinAddr: 0x100027CD0, symSize: 0x100 }
  - { offsetInCU: 0x45486, offset: 0x45486, size: 0x8, addend: 0x0, symName: __ZNSt3__113move_iteratorIPPNS_7__stateIcEEEC1B7v160006ES4_, symObjAddr: 0x26190, symBinAddr: 0x100027DD0, symSize: 0x30 }
  - { offsetInCU: 0x454BE, offset: 0x454BE, size: 0x8, addend: 0x0, symName: __ZNSt3__116allocator_traitsINS_9allocatorIPNS_7__stateIcEEEEE9constructB7v160006IS4_JRKS4_EvEEvRS5_PT_DpOT0_, symObjAddr: 0x261C0, symBinAddr: 0x100027E00, symSize: 0x30 }
  - { offsetInCU: 0x4553B, offset: 0x4553B, size: 0x8, addend: 0x0, symName: __ZNKSt3__114__move_trivialclB7v160006IPNS_7__stateIcEES4_Li0EEENS_4pairIPT_PT0_EES7_S7_S9_, symObjAddr: 0x26380, symBinAddr: 0x100027FC0, symSize: 0x40 }
  - { offsetInCU: 0x455A9, offset: 0x455A9, size: 0x8, addend: 0x0, symName: __ZNSt3__14pairIPPNS_7__stateIcEES4_EC1B7v160006IRS4_S4_LPv0EEEOT_OT0_, symObjAddr: 0x26520, symBinAddr: 0x100028160, symSize: 0x30 }
  - { offsetInCU: 0x45607, offset: 0x45607, size: 0x8, addend: 0x0, symName: __ZNSt3__14pairIPPNS_7__stateIcEES4_EC2B7v160006IRS4_S4_LPv0EEEOT_OT0_, symObjAddr: 0x26550, symBinAddr: 0x100028190, symSize: 0x30 }
  - { offsetInCU: 0x45665, offset: 0x45665, size: 0x8, addend: 0x0, symName: __ZNSt3__118__unwrap_iter_implIPPNS_7__stateIcEELb1EE8__unwrapB7v160006ES4_, symObjAddr: 0x26580, symBinAddr: 0x1000281C0, symSize: 0x20 }
  - { offsetInCU: 0x45688, offset: 0x45688, size: 0x8, addend: 0x0, symName: __ZNSt3__14pairIPPNS_7__stateIcEES4_EC1B7v160006IS4_S4_LPv0EEEOT_OT0_, symObjAddr: 0x265A0, symBinAddr: 0x1000281E0, symSize: 0x30 }
  - { offsetInCU: 0x456E6, offset: 0x456E6, size: 0x8, addend: 0x0, symName: __ZNSt3__14pairIPPNS_7__stateIcEES4_EC2B7v160006IS4_S4_LPv0EEEOT_OT0_, symObjAddr: 0x265D0, symBinAddr: 0x100028210, symSize: 0x30 }
  - { offsetInCU: 0x45744, offset: 0x45744, size: 0x8, addend: 0x0, symName: __ZNSt3__118__unwrap_iter_implIPPNS_7__stateIcEELb1EE8__rewrapB7v160006ES4_S4_, symObjAddr: 0x26600, symBinAddr: 0x100028240, symSize: 0x50 }
  - { offsetInCU: 0x4577F, offset: 0x4577F, size: 0x8, addend: 0x0, symName: __ZNSt3__114__split_bufferIPNS_7__stateIcEERNS_9allocatorIS3_EEE21_ConstructTransactionC1B7v160006EPPS3_m, symObjAddr: 0x26690, symBinAddr: 0x1000282D0, symSize: 0x30 }
  - { offsetInCU: 0x457C5, offset: 0x457C5, size: 0x8, addend: 0x0, symName: __ZNSt3__116allocator_traitsINS_9allocatorIPNS_7__stateIcEEEEE9constructB7v160006IS4_JS4_EvEEvRS5_PT_DpOT0_, symObjAddr: 0x266C0, symBinAddr: 0x100028300, symSize: 0x30 }
  - { offsetInCU: 0x4581C, offset: 0x4581C, size: 0x8, addend: 0x0, symName: __ZNSt3__114__split_bufferIPNS_7__stateIcEERNS_9allocatorIS3_EEE7__allocB7v160006Ev, symObjAddr: 0x266F0, symBinAddr: 0x100028330, symSize: 0x20 }
  - { offsetInCU: 0x45842, offset: 0x45842, size: 0x8, addend: 0x0, symName: __ZNKSt3__113move_iteratorIPPNS_7__stateIcEEEdeB7v160006Ev, symObjAddr: 0x26710, symBinAddr: 0x100028350, symSize: 0x20 }
  - { offsetInCU: 0x45868, offset: 0x45868, size: 0x8, addend: 0x0, symName: __ZNSt3__113move_iteratorIPPNS_7__stateIcEEEppB7v160006Ev, symObjAddr: 0x26730, symBinAddr: 0x100028370, symSize: 0x20 }
  - { offsetInCU: 0x4588E, offset: 0x4588E, size: 0x8, addend: 0x0, symName: __ZNSt3__114__split_bufferIPNS_7__stateIcEERNS_9allocatorIS3_EEE21_ConstructTransactionD1B7v160006Ev, symObjAddr: 0x26750, symBinAddr: 0x100028390, symSize: 0x20 }
  - { offsetInCU: 0x458B8, offset: 0x458B8, size: 0x8, addend: 0x0, symName: __ZNKSt3__113move_iteratorIPPNS_7__stateIcEEE4baseB7v160006Ev, symObjAddr: 0x267E0, symBinAddr: 0x100028420, symSize: 0x20 }
  - { offsetInCU: 0x458DE, offset: 0x458DE, size: 0x8, addend: 0x0, symName: __ZNSt3__114__split_bufferIPNS_7__stateIcEERNS_9allocatorIS3_EEE21_ConstructTransactionC2B7v160006EPPS3_m, symObjAddr: 0x26800, symBinAddr: 0x100028440, symSize: 0x40 }
  - { offsetInCU: 0x45924, offset: 0x45924, size: 0x8, addend: 0x0, symName: __ZNSt3__19allocatorIPNS_7__stateIcEEE9constructB7v160006IS3_JS3_EEEvPT_DpOT0_, symObjAddr: 0x26840, symBinAddr: 0x100028480, symSize: 0x20 }
  - { offsetInCU: 0x4597A, offset: 0x4597A, size: 0x8, addend: 0x0, symName: __ZNSt3__117__compressed_pairIPPNS_7__stateIcEERNS_9allocatorIS3_EEE6secondB7v160006Ev, symObjAddr: 0x26860, symBinAddr: 0x1000284A0, symSize: 0x20 }
  - { offsetInCU: 0x459A0, offset: 0x459A0, size: 0x8, addend: 0x0, symName: __ZNSt3__122__compressed_pair_elemIRNS_9allocatorIPNS_7__stateIcEEEELi1ELb0EE5__getB7v160006Ev, symObjAddr: 0x26880, symBinAddr: 0x1000284C0, symSize: 0x20 }
  - { offsetInCU: 0x459C6, offset: 0x459C6, size: 0x8, addend: 0x0, symName: __ZNSt3__114__split_bufferIPNS_7__stateIcEERNS_9allocatorIS3_EEE21_ConstructTransactionD2B7v160006Ev, symObjAddr: 0x268A0, symBinAddr: 0x1000284E0, symSize: 0x20 }
  - { offsetInCU: 0x459F0, offset: 0x459F0, size: 0x8, addend: 0x0, symName: __ZNSt3__113move_iteratorIPPNS_7__stateIcEEEC2B7v160006ES4_, symObjAddr: 0x268C0, symBinAddr: 0x100028500, symSize: 0x20 }
  - { offsetInCU: 0x45A28, offset: 0x45A28, size: 0x8, addend: 0x0, symName: __ZNSt3__19allocatorIPNS_7__stateIcEEE9constructB7v160006IS3_JRKS3_EEEvPT_DpOT0_, symObjAddr: 0x268E0, symBinAddr: 0x100028520, symSize: 0x20 }
  - { offsetInCU: 0x45A7E, offset: 0x45A7E, size: 0x8, addend: 0x0, symName: __ZNKSt3__114__split_bufferIPNS_7__stateIcEENS_9allocatorIS3_EEE9__end_capB7v160006Ev, symObjAddr: 0x26900, symBinAddr: 0x100028540, symSize: 0x20 }
  - { offsetInCU: 0x45AA4, offset: 0x45AA4, size: 0x8, addend: 0x0, symName: __ZNKSt3__117__compressed_pairIPPNS_7__stateIcEENS_9allocatorIS3_EEE5firstB7v160006Ev, symObjAddr: 0x26920, symBinAddr: 0x100028560, symSize: 0x20 }
  - { offsetInCU: 0x45ACA, offset: 0x45ACA, size: 0x8, addend: 0x0, symName: __ZNKSt3__122__compressed_pair_elemIPPNS_7__stateIcEELi0ELb0EE5__getB7v160006Ev, symObjAddr: 0x26940, symBinAddr: 0x100028580, symSize: 0x10 }
  - { offsetInCU: 0x45AFA, offset: 0x45AFA, size: 0x8, addend: 0x0, symName: __ZNKSt3__123__move_backward_trivialclB7v160006IPNS_7__stateIcEES4_Li0EEENS_4pairIPT_PT0_EES7_S7_S9_, symObjAddr: 0x26AC0, symBinAddr: 0x100028700, symSize: 0x40 }
  - { offsetInCU: 0x45B62, offset: 0x45B62, size: 0x8, addend: 0x0, symName: __ZNSt3__14pairIPPNS_7__stateIcEES4_EC1B7v160006IRS4_S7_LPv0EEEOT_OT0_, symObjAddr: 0x26BB0, symBinAddr: 0x1000287F0, symSize: 0x30 }
  - { offsetInCU: 0x45BC0, offset: 0x45BC0, size: 0x8, addend: 0x0, symName: __ZNSt3__14pairIPPNS_7__stateIcEES4_EC2B7v160006IRS4_S7_LPv0EEEOT_OT0_, symObjAddr: 0x26BE0, symBinAddr: 0x100028820, symSize: 0x30 }
  - { offsetInCU: 0x45C1E, offset: 0x45C1E, size: 0x8, addend: 0x0, symName: __ZNSt3__117__compressed_pairIPPNS_7__stateIcEENS_9allocatorIS3_EEE6secondB7v160006Ev, symObjAddr: 0x26C10, symBinAddr: 0x100028850, symSize: 0x20 }
  - { offsetInCU: 0x45C44, offset: 0x45C44, size: 0x8, addend: 0x0, symName: __ZNSt3__122__compressed_pair_elemINS_9allocatorIPNS_7__stateIcEEEELi1ELb1EE5__getB7v160006Ev, symObjAddr: 0x26C30, symBinAddr: 0x100028870, symSize: 0x10 }
  - { offsetInCU: 0x45C6A, offset: 0x45C6A, size: 0x8, addend: 0x0, symName: __ZNSt3__114__split_bufferIPNS_7__stateIcEERNS_9allocatorIS3_EEEC2EmmS6_, symObjAddr: 0x26C40, symBinAddr: 0x100028880, symSize: 0xD0 }
  - { offsetInCU: 0x45CDD, offset: 0x45CDD, size: 0x8, addend: 0x0, symName: __ZNSt3__117__compressed_pairIPPNS_7__stateIcEERNS_9allocatorIS3_EEEC1B7v160006IDnS7_EEOT_OT0_, symObjAddr: 0x26D10, symBinAddr: 0x100028950, symSize: 0x30 }
  - { offsetInCU: 0x45D35, offset: 0x45D35, size: 0x8, addend: 0x0, symName: __ZNSt3__117__compressed_pairIPPNS_7__stateIcEERNS_9allocatorIS3_EEEC2B7v160006IDnS7_EEOT_OT0_, symObjAddr: 0x26D80, symBinAddr: 0x1000289C0, symSize: 0x40 }
  - { offsetInCU: 0x45D8D, offset: 0x45D8D, size: 0x8, addend: 0x0, symName: __ZNSt3__122__compressed_pair_elemIRNS_9allocatorIPNS_7__stateIcEEEELi1ELb0EEC2B7v160006IS6_vEEOT_, symObjAddr: 0x26DC0, symBinAddr: 0x100028A00, symSize: 0x20 }
  - { offsetInCU: 0x45DCF, offset: 0x45DCF, size: 0x8, addend: 0x0, symName: __ZNSt3__19allocatorIPNS_7__stateIcEEE8allocateB7v160006Em, symObjAddr: 0x26DE0, symBinAddr: 0x100028A20, symSize: 0x50 }
  - { offsetInCU: 0x45E0E, offset: 0x45E0E, size: 0x8, addend: 0x0, symName: __ZNSt3__116allocator_traitsINS_9allocatorIPNS_7__stateIcEEEEE8max_sizeB7v160006IS5_vEEmRKS5_, symObjAddr: 0x26E30, symBinAddr: 0x100028A70, symSize: 0x20 }
  - { offsetInCU: 0x45E3C, offset: 0x45E3C, size: 0x8, addend: 0x0, symName: __ZNKSt3__19allocatorIPNS_7__stateIcEEE8max_sizeB7v160006Ev, symObjAddr: 0x26E50, symBinAddr: 0x100028A90, symSize: 0x20 }
  - { offsetInCU: 0x45E62, offset: 0x45E62, size: 0x8, addend: 0x0, symName: __ZNSt3__122__allocator_destructorINS_9allocatorINS_7__stateIcEEEEEC2B7v160006ERS4_m, symObjAddr: 0x26E70, symBinAddr: 0x100028AB0, symSize: 0x30 }
  - { offsetInCU: 0x45EA8, offset: 0x45EA8, size: 0x8, addend: 0x0, symName: __ZNSt3__110unique_ptrIPNS_7__stateIcEENS_22__allocator_destructorINS_9allocatorIS2_EEEEEC2B7v160006ILb1EvEES3_NS_16__dependent_typeINS_27__unique_ptr_deleter_sfinaeIS7_EEXT_EE20__good_rval_ref_typeE, symObjAddr: 0x26EA0, symBinAddr: 0x100028AE0, symSize: 0x40 }
  - { offsetInCU: 0x45EF9, offset: 0x45EF9, size: 0x8, addend: 0x0, symName: __ZNSt3__117__compressed_pairIPNS_7__stateIcEENS_22__allocator_destructorINS_9allocatorIS2_EEEEEC1B7v160006IRS3_S7_EEOT_OT0_, symObjAddr: 0x26EE0, symBinAddr: 0x100028B20, symSize: 0x30 }
  - { offsetInCU: 0x45F51, offset: 0x45F51, size: 0x8, addend: 0x0, symName: __ZNSt3__117__compressed_pairIPNS_7__stateIcEENS_22__allocator_destructorINS_9allocatorIS2_EEEEEC2B7v160006IRS3_S7_EEOT_OT0_, symObjAddr: 0x26F10, symBinAddr: 0x100028B50, symSize: 0x40 }
  - { offsetInCU: 0x45FA9, offset: 0x45FA9, size: 0x8, addend: 0x0, symName: __ZNSt3__122__compressed_pair_elemIPNS_7__stateIcEELi0ELb0EEC2B7v160006IRS3_vEEOT_, symObjAddr: 0x26F50, symBinAddr: 0x100028B90, symSize: 0x20 }
  - { offsetInCU: 0x45FEB, offset: 0x45FEB, size: 0x8, addend: 0x0, symName: __ZNSt3__122__compressed_pair_elemINS_22__allocator_destructorINS_9allocatorINS_7__stateIcEEEEEELi1ELb0EEC2B7v160006IS6_vEEOT_, symObjAddr: 0x26F70, symBinAddr: 0x100028BB0, symSize: 0x30 }
  - { offsetInCU: 0x4602D, offset: 0x4602D, size: 0x8, addend: 0x0, symName: __ZNKSt3__117__compressed_pairIPNS_7__stateIcEENS_22__allocator_destructorINS_9allocatorIS2_EEEEE5firstB7v160006Ev, symObjAddr: 0x26FA0, symBinAddr: 0x100028BE0, symSize: 0x20 }
  - { offsetInCU: 0x46053, offset: 0x46053, size: 0x8, addend: 0x0, symName: __ZNSt3__117__compressed_pairIPNS_7__stateIcEENS_22__allocator_destructorINS_9allocatorIS2_EEEEE5firstB7v160006Ev, symObjAddr: 0x26FC0, symBinAddr: 0x100028C00, symSize: 0x20 }
  - { offsetInCU: 0x46079, offset: 0x46079, size: 0x8, addend: 0x0, symName: __ZNSt3__117__compressed_pairIPPNS_7__stateIcEENS_9allocatorIS3_EEE5firstB7v160006Ev, symObjAddr: 0x26FE0, symBinAddr: 0x100028C20, symSize: 0x20 }
  - { offsetInCU: 0x4609F, offset: 0x4609F, size: 0x8, addend: 0x0, symName: __ZNSt3__122__compressed_pair_elemIPPNS_7__stateIcEELi0ELb0EE5__getB7v160006Ev, symObjAddr: 0x27000, symBinAddr: 0x100028C40, symSize: 0x10 }
  - { offsetInCU: 0x460C5, offset: 0x460C5, size: 0x8, addend: 0x0, symName: __ZNSt3__117__compressed_pairIPPNS_7__stateIcEERNS_9allocatorIS3_EEE5firstB7v160006Ev, symObjAddr: 0x27010, symBinAddr: 0x100028C50, symSize: 0x20 }
  - { offsetInCU: 0x460EB, offset: 0x460EB, size: 0x8, addend: 0x0, symName: __ZNSt3__110unique_ptrIPNS_7__stateIcEENS_22__allocator_destructorINS_9allocatorIS2_EEEEED2B7v160006Ev, symObjAddr: 0x27030, symBinAddr: 0x100028C70, symSize: 0x20 }
  - { offsetInCU: 0x46115, offset: 0x46115, size: 0x8, addend: 0x0, symName: __ZNSt3__110unique_ptrIPNS_7__stateIcEENS_22__allocator_destructorINS_9allocatorIS2_EEEEE5resetB7v160006ES3_, symObjAddr: 0x27050, symBinAddr: 0x100028C90, symSize: 0x70 }
  - { offsetInCU: 0x46159, offset: 0x46159, size: 0x8, addend: 0x0, symName: __ZNSt3__117__compressed_pairIPNS_7__stateIcEENS_22__allocator_destructorINS_9allocatorIS2_EEEEE6secondB7v160006Ev, symObjAddr: 0x270C0, symBinAddr: 0x100028D00, symSize: 0x20 }
  - { offsetInCU: 0x4617F, offset: 0x4617F, size: 0x8, addend: 0x0, symName: __ZNSt3__122__allocator_destructorINS_9allocatorINS_7__stateIcEEEEEclB7v160006EPS3_, symObjAddr: 0x270E0, symBinAddr: 0x100028D20, symSize: 0x30 }
  - { offsetInCU: 0x461B3, offset: 0x461B3, size: 0x8, addend: 0x0, symName: __ZNSt3__122__compressed_pair_elemINS_22__allocator_destructorINS_9allocatorINS_7__stateIcEEEEEELi1ELb0EE5__getB7v160006Ev, symObjAddr: 0x27110, symBinAddr: 0x100028D50, symSize: 0x10 }
  - { offsetInCU: 0x461D9, offset: 0x461D9, size: 0x8, addend: 0x0, symName: __ZNSt3__114__split_bufferIPNS_7__stateIcEERNS_9allocatorIS3_EEED2Ev, symObjAddr: 0x27120, symBinAddr: 0x100028D60, symSize: 0x70 }
  - { offsetInCU: 0x46205, offset: 0x46205, size: 0x8, addend: 0x0, symName: __ZNSt3__114__split_bufferIPNS_7__stateIcEERNS_9allocatorIS3_EEE5clearB7v160006Ev, symObjAddr: 0x27190, symBinAddr: 0x100028DD0, symSize: 0x20 }
  - { offsetInCU: 0x4622B, offset: 0x4622B, size: 0x8, addend: 0x0, symName: __ZNSt3__116allocator_traitsINS_9allocatorIPNS_7__stateIcEEEEE10deallocateB7v160006ERS5_PS4_m, symObjAddr: 0x271B0, symBinAddr: 0x100028DF0, symSize: 0x30 }
  - { offsetInCU: 0x4626D, offset: 0x4626D, size: 0x8, addend: 0x0, symName: __ZNKSt3__114__split_bufferIPNS_7__stateIcEERNS_9allocatorIS3_EEE8capacityB7v160006Ev, symObjAddr: 0x271E0, symBinAddr: 0x100028E20, symSize: 0x30 }
  - { offsetInCU: 0x46293, offset: 0x46293, size: 0x8, addend: 0x0, symName: __ZNSt3__114__split_bufferIPNS_7__stateIcEERNS_9allocatorIS3_EEE17__destruct_at_endB7v160006EPS3_, symObjAddr: 0x27210, symBinAddr: 0x100028E50, symSize: 0x30 }
  - { offsetInCU: 0x462C7, offset: 0x462C7, size: 0x8, addend: 0x0, symName: __ZNSt3__114__split_bufferIPNS_7__stateIcEERNS_9allocatorIS3_EEE17__destruct_at_endB7v160006EPS3_NS_17integral_constantIbLb0EEE, symObjAddr: 0x27240, symBinAddr: 0x100028E80, symSize: 0x80 }
  - { offsetInCU: 0x46307, offset: 0x46307, size: 0x8, addend: 0x0, symName: __ZNSt3__116allocator_traitsINS_9allocatorIPNS_7__stateIcEEEEE7destroyB7v160006IS4_vEEvRS5_PT_, symObjAddr: 0x272C0, symBinAddr: 0x100028F00, symSize: 0x30 }
  - { offsetInCU: 0x46344, offset: 0x46344, size: 0x8, addend: 0x0, symName: __ZNSt3__19allocatorIPNS_7__stateIcEEE7destroyB7v160006EPS3_, symObjAddr: 0x272F0, symBinAddr: 0x100028F30, symSize: 0x10 }
  - { offsetInCU: 0x46378, offset: 0x46378, size: 0x8, addend: 0x0, symName: __ZNSt3__19allocatorIPNS_7__stateIcEEE10deallocateB7v160006EPS3_m, symObjAddr: 0x27300, symBinAddr: 0x100028F40, symSize: 0x40 }
  - { offsetInCU: 0x463BA, offset: 0x463BA, size: 0x8, addend: 0x0, symName: __ZNKSt3__114__split_bufferIPNS_7__stateIcEERNS_9allocatorIS3_EEE9__end_capB7v160006Ev, symObjAddr: 0x27340, symBinAddr: 0x100028F80, symSize: 0x20 }
  - { offsetInCU: 0x463E0, offset: 0x463E0, size: 0x8, addend: 0x0, symName: __ZNKSt3__117__compressed_pairIPPNS_7__stateIcEERNS_9allocatorIS3_EEE5firstB7v160006Ev, symObjAddr: 0x27360, symBinAddr: 0x100028FA0, symSize: 0x20 }
  - { offsetInCU: 0x46406, offset: 0x46406, size: 0x8, addend: 0x0, symName: __ZNKSt3__114__split_bufferIPNS_7__stateIcEENS_9allocatorIS3_EEE5emptyB7v160006Ev, symObjAddr: 0x27380, symBinAddr: 0x100028FC0, symSize: 0x20 }
  - { offsetInCU: 0x4642C, offset: 0x4642C, size: 0x8, addend: 0x0, symName: __ZNSt3__116__deque_iteratorINS_7__stateIcEEPS2_RS2_PS3_lLl42EEC1B7v160006ES5_S3_, symObjAddr: 0x273A0, symBinAddr: 0x100028FE0, symSize: 0x30 }
  - { offsetInCU: 0x46474, offset: 0x46474, size: 0x8, addend: 0x0, symName: __ZNSt3__116__deque_iteratorINS_7__stateIcEEPS2_RS2_PS3_lLl42EEC2B7v160006ES5_S3_, symObjAddr: 0x273D0, symBinAddr: 0x100029010, symSize: 0x30 }
  - { offsetInCU: 0x464BC, offset: 0x464BC, size: 0x8, addend: 0x0, symName: __ZNSt3__117__compressed_pairImNS_9allocatorINS_7__stateIcEEEEE5firstB7v160006Ev, symObjAddr: 0x27400, symBinAddr: 0x100029040, symSize: 0x20 }
  - { offsetInCU: 0x464E2, offset: 0x464E2, size: 0x8, addend: 0x0, symName: __ZNSt3__122__compressed_pair_elemImLi0ELb0EE5__getB7v160006Ev, symObjAddr: 0x27420, symBinAddr: 0x100029060, symSize: 0x10 }
  - { offsetInCU: 0x46508, offset: 0x46508, size: 0x8, addend: 0x0, symName: __ZNSt3__15dequeINS_7__stateIcEENS_9allocatorIS2_EEE25__maybe_remove_back_spareB7v160006Eb, symObjAddr: 0x27430, symBinAddr: 0x100029070, symSize: 0xA0 }
  - { offsetInCU: 0x4653D, offset: 0x4653D, size: 0x8, addend: 0x0, symName: __ZNKSt3__15dequeINS_7__stateIcEENS_9allocatorIS2_EEE19__back_spare_blocksB7v160006Ev, symObjAddr: 0x274D0, symBinAddr: 0x100029110, symSize: 0x30 }
  - { offsetInCU: 0x46563, offset: 0x46563, size: 0x8, addend: 0x0, symName: __ZNSt3__114__split_bufferIPNS_7__stateIcEENS_9allocatorIS3_EEE4backB7v160006Ev, symObjAddr: 0x27500, symBinAddr: 0x100029140, symSize: 0x20 }
  - { offsetInCU: 0x46589, offset: 0x46589, size: 0x8, addend: 0x0, symName: __ZNSt3__114__split_bufferIPNS_7__stateIcEENS_9allocatorIS3_EEE8pop_backB7v160006Ev, symObjAddr: 0x27520, symBinAddr: 0x100029160, symSize: 0x30 }
  - { offsetInCU: 0x465AF, offset: 0x465AF, size: 0x8, addend: 0x0, symName: __ZNSt3__114__split_bufferIPNS_7__stateIcEENS_9allocatorIS3_EEE17__destruct_at_endB7v160006EPS3_, symObjAddr: 0x27550, symBinAddr: 0x100029190, symSize: 0x30 }
  - { offsetInCU: 0x465E3, offset: 0x465E3, size: 0x8, addend: 0x0, symName: __ZNSt3__114__split_bufferIPNS_7__stateIcEENS_9allocatorIS3_EEE17__destruct_at_endB7v160006EPS3_NS_17integral_constantIbLb0EEE, symObjAddr: 0x27580, symBinAddr: 0x1000291C0, symSize: 0x80 }
  - { offsetInCU: 0x46623, offset: 0x46623, size: 0x8, addend: 0x0, symName: __ZNSt3__15dequeINS_7__stateIcEENS_9allocatorIS2_EEE5beginB7v160006Ev, symObjAddr: 0x27600, symBinAddr: 0x100029240, symSize: 0xC0 }
  - { offsetInCU: 0x46658, offset: 0x46658, size: 0x8, addend: 0x0, symName: __ZNSt3__116__deque_iteratorINS_7__stateIcEEPS2_RS2_PS3_lLl42EEppB7v160006Ev, symObjAddr: 0x276F0, symBinAddr: 0x100029330, symSize: 0x60 }
  - { offsetInCU: 0x4667E, offset: 0x4667E, size: 0x8, addend: 0x0, symName: __ZNSt3__15dequeINS_7__stateIcEENS_9allocatorIS2_EEE20__add_front_capacityEv, symObjAddr: 0x27780, symBinAddr: 0x1000293C0, symSize: 0x410 }
  - { offsetInCU: 0x46733, offset: 0x46733, size: 0x8, addend: 0x0, symName: __ZNSt3__116__deque_iteratorINS_7__stateIcEEPS2_RS2_PS3_lLl42EEmmB7v160006Ev, symObjAddr: 0x27B90, symBinAddr: 0x1000297D0, symSize: 0x60 }
  - { offsetInCU: 0x46759, offset: 0x46759, size: 0x8, addend: 0x0, symName: __ZNSt3__114__split_bufferIPNS_7__stateIcEENS_9allocatorIS3_EEE10push_frontERKS3_, symObjAddr: 0x27BF0, symBinAddr: 0x100029830, symSize: 0x270 }
  - { offsetInCU: 0x467D1, offset: 0x467D1, size: 0x8, addend: 0x0, symName: __ZNKSt3__114__split_bufferIPNS_7__stateIcEENS_9allocatorIS3_EEE13__front_spareB7v160006Ev, symObjAddr: 0x27E60, symBinAddr: 0x100029AA0, symSize: 0x20 }
  - { offsetInCU: 0x467F7, offset: 0x467F7, size: 0x8, addend: 0x0, symName: __ZNSt3__114__split_bufferIPNS_7__stateIcEERNS_9allocatorIS3_EEE9push_backB7v160006ERKS3_, symObjAddr: 0x27E80, symBinAddr: 0x100029AC0, symSize: 0x290 }
  - { offsetInCU: 0x4686F, offset: 0x4686F, size: 0x8, addend: 0x0, symName: __ZNSt3__15dequeINS_7__stateIcEENS_9allocatorIS2_EEED2B7v160006Ev, symObjAddr: 0x28110, symBinAddr: 0x100029D50, symSize: 0x80 }
  - { offsetInCU: 0x468C5, offset: 0x468C5, size: 0x8, addend: 0x0, symName: __ZNSt3__114__split_bufferIPNS_7__stateIcEENS_9allocatorIS3_EEED1Ev, symObjAddr: 0x28190, symBinAddr: 0x100029DD0, symSize: 0x20 }
  - { offsetInCU: 0x468F1, offset: 0x468F1, size: 0x8, addend: 0x0, symName: __ZNSt3__114__split_bufferIPNS_7__stateIcEENS_9allocatorIS3_EEED2Ev, symObjAddr: 0x281B0, symBinAddr: 0x100029DF0, symSize: 0x60 }
  - { offsetInCU: 0x4691D, offset: 0x4691D, size: 0x8, addend: 0x0, symName: __ZNSt3__114__split_bufferIPNS_7__stateIcEENS_9allocatorIS3_EEE5clearB7v160006Ev, symObjAddr: 0x28210, symBinAddr: 0x100029E50, symSize: 0x20 }
  - { offsetInCU: 0x46943, offset: 0x46943, size: 0x8, addend: 0x0, symName: __ZNSt3__17__stateIcEaSERKS1_, symObjAddr: 0x28230, symBinAddr: 0x100029E70, symSize: 0x90 }
  - { offsetInCU: 0x46975, offset: 0x46975, size: 0x8, addend: 0x0, symName: __ZNSt3__16vectorINS_7__stateIcEENS_9allocatorIS2_EEE5clearB7v160006Ev, symObjAddr: 0x282C0, symBinAddr: 0x100029F00, symSize: 0x50 }
  - { offsetInCU: 0x469AA, offset: 0x469AA, size: 0x8, addend: 0x0, symName: __ZNSt3__16vectorINS_9sub_matchIPKcEENS_9allocatorIS4_EEEaSB7v160006ERKS7_, symObjAddr: 0x28310, symBinAddr: 0x100029F50, symSize: 0x60 }
  - { offsetInCU: 0x469E1, offset: 0x469E1, size: 0x8, addend: 0x0, symName: __ZNSt3__16vectorINS_4pairImPKcEENS_9allocatorIS4_EEEaSB7v160006ERKS7_, symObjAddr: 0x28370, symBinAddr: 0x100029FB0, symSize: 0x60 }
  - { offsetInCU: 0x46A18, offset: 0x46A18, size: 0x8, addend: 0x0, symName: __ZNSt3__16vectorINS_9sub_matchIPKcEENS_9allocatorIS4_EEE19__copy_assign_allocB7v160006ERKS7_, symObjAddr: 0x283D0, symBinAddr: 0x10002A010, symSize: 0x30 }
  - { offsetInCU: 0x46A4D, offset: 0x46A4D, size: 0x8, addend: 0x0, symName: __ZNSt3__16vectorINS_9sub_matchIPKcEENS_9allocatorIS4_EEE6assignIPS4_Li0EEEvT_SA_, symObjAddr: 0x28400, symBinAddr: 0x10002A040, symSize: 0x160 }
  - { offsetInCU: 0x46AEC, offset: 0x46AEC, size: 0x8, addend: 0x0, symName: __ZNSt3__16vectorINS_9sub_matchIPKcEENS_9allocatorIS4_EEE19__copy_assign_allocB7v160006ERKS7_NS_17integral_constantIbLb0EEE, symObjAddr: 0x28560, symBinAddr: 0x10002A1A0, symSize: 0x10 }
  - { offsetInCU: 0x46B4E, offset: 0x46B4E, size: 0x8, addend: 0x0, symName: __ZNKSt3__111__copy_loopINS_17_ClassicAlgPolicyEEclB7v160006IPNS_9sub_matchIPKcEES8_S8_EENS_4pairIT_T1_EESA_T0_SB_, symObjAddr: 0x28800, symBinAddr: 0x10002A440, symSize: 0x80 }
  - { offsetInCU: 0x46BB9, offset: 0x46BB9, size: 0x8, addend: 0x0, symName: __ZNSt3__118__unwrap_iter_implIPNS_9sub_matchIPKcEELb1EE8__unwrapB7v160006ES5_, symObjAddr: 0x28940, symBinAddr: 0x10002A580, symSize: 0x20 }
  - { offsetInCU: 0x46BE2, offset: 0x46BE2, size: 0x8, addend: 0x0, symName: __ZNSt3__14pairIPNS_9sub_matchIPKcEES5_EC1B7v160006IS5_S5_LPv0EEEOT_OT0_, symObjAddr: 0x28960, symBinAddr: 0x10002A5A0, symSize: 0x30 }
  - { offsetInCU: 0x46C40, offset: 0x46C40, size: 0x8, addend: 0x0, symName: __ZNSt3__14pairIPNS_9sub_matchIPKcEES5_EC2B7v160006IS5_S5_LPv0EEEOT_OT0_, symObjAddr: 0x28990, symBinAddr: 0x10002A5D0, symSize: 0x30 }
  - { offsetInCU: 0x46C9E, offset: 0x46C9E, size: 0x8, addend: 0x0, symName: __ZNSt3__118__unwrap_iter_implIPNS_9sub_matchIPKcEELb1EE8__rewrapB7v160006ES5_S5_, symObjAddr: 0x289C0, symBinAddr: 0x10002A600, symSize: 0x60 }
  - { offsetInCU: 0x46CCF, offset: 0x46CCF, size: 0x8, addend: 0x0, symName: __ZNSt3__16vectorINS_4pairImPKcEENS_9allocatorIS4_EEE19__copy_assign_allocB7v160006ERKS7_, symObjAddr: 0x28A20, symBinAddr: 0x10002A660, symSize: 0x30 }
  - { offsetInCU: 0x46D04, offset: 0x46D04, size: 0x8, addend: 0x0, symName: __ZNSt3__16vectorINS_4pairImPKcEENS_9allocatorIS4_EEE6assignIPS4_Li0EEEvT_SA_, symObjAddr: 0x28A50, symBinAddr: 0x10002A690, symSize: 0x160 }
  - { offsetInCU: 0x46DA3, offset: 0x46DA3, size: 0x8, addend: 0x0, symName: __ZNSt3__16vectorINS_4pairImPKcEENS_9allocatorIS4_EEE19__copy_assign_allocB7v160006ERKS7_NS_17integral_constantIbLb0EEE, symObjAddr: 0x28BB0, symBinAddr: 0x10002A7F0, symSize: 0x10 }
  - { offsetInCU: 0x46DDF, offset: 0x46DDF, size: 0x8, addend: 0x0, symName: __ZNSt3__16vectorINS_4pairImPKcEENS_9allocatorIS4_EEE13__vdeallocateEv, symObjAddr: 0x28C80, symBinAddr: 0x10002A8C0, symSize: 0x80 }
  - { offsetInCU: 0x46E23, offset: 0x46E23, size: 0x8, addend: 0x0, symName: __ZNKSt3__111__copy_loopINS_17_ClassicAlgPolicyEEclB7v160006IPNS_4pairImPKcEES8_S8_EENS4_IT_T1_EES9_T0_SA_, symObjAddr: 0x28EC0, symBinAddr: 0x10002AB00, symSize: 0x80 }
  - { offsetInCU: 0x46E8E, offset: 0x46E8E, size: 0x8, addend: 0x0, symName: __ZNSt3__14pairImPKcEaSB7v160006ERKS3_, symObjAddr: 0x29000, symBinAddr: 0x10002AC40, symSize: 0x30 }
  - { offsetInCU: 0x46EC3, offset: 0x46EC3, size: 0x8, addend: 0x0, symName: __ZNSt3__118__unwrap_iter_implIPNS_4pairImPKcEELb1EE8__unwrapB7v160006ES5_, symObjAddr: 0x29030, symBinAddr: 0x10002AC70, symSize: 0x20 }
  - { offsetInCU: 0x46EEC, offset: 0x46EEC, size: 0x8, addend: 0x0, symName: __ZNSt3__14pairIPNS0_ImPKcEES4_EC1B7v160006IS4_S4_LPv0EEEOT_OT0_, symObjAddr: 0x29050, symBinAddr: 0x10002AC90, symSize: 0x30 }
  - { offsetInCU: 0x46F4A, offset: 0x46F4A, size: 0x8, addend: 0x0, symName: __ZNSt3__14pairIPNS0_ImPKcEES4_EC2B7v160006IS4_S4_LPv0EEEOT_OT0_, symObjAddr: 0x29080, symBinAddr: 0x10002ACC0, symSize: 0x30 }
  - { offsetInCU: 0x46FA8, offset: 0x46FA8, size: 0x8, addend: 0x0, symName: __ZNSt3__118__unwrap_iter_implIPNS_4pairImPKcEELb1EE8__rewrapB7v160006ES5_S5_, symObjAddr: 0x290B0, symBinAddr: 0x10002ACF0, symSize: 0x50 }
  - { offsetInCU: 0x46FD9, offset: 0x46FD9, size: 0x8, addend: 0x0, symName: __ZNSt3__16vectorINS_4pairImPKcEENS_9allocatorIS4_EEE5clearB7v160006Ev, symObjAddr: 0x29100, symBinAddr: 0x10002AD40, symSize: 0x50 }
  - { offsetInCU: 0x4700E, offset: 0x4700E, size: 0x8, addend: 0x0, symName: __ZNKSt3__16vectorINS_9sub_matchIPKcEENS_9allocatorIS4_EEEixB7v160006Em, symObjAddr: 0x29150, symBinAddr: 0x10002AD90, symSize: 0x20 }
  - { offsetInCU: 0x47045, offset: 0x47045, size: 0x8, addend: 0x0, symName: __ZNKSt3__113match_resultsIPKcNS_9allocatorINS_9sub_matchIS2_EEEEE6prefixB7v160006Ev, symObjAddr: 0x29170, symBinAddr: 0x10002ADB0, symSize: 0x20 }
  - { offsetInCU: 0x4706B, offset: 0x4706B, size: 0x8, addend: 0x0, symName: __ZNSt3__16vectorINS_9sub_matchINS_11__wrap_iterIPKcEEEENS_9allocatorIS6_EEE6resizeEm, symObjAddr: 0x29190, symBinAddr: 0x10002ADD0, symSize: 0x80 }
  - { offsetInCU: 0x470B1, offset: 0x470B1, size: 0x8, addend: 0x0, symName: __ZNSt3__16vectorINS_9sub_matchINS_11__wrap_iterIPKcEEEENS_9allocatorIS6_EEEixB7v160006Em, symObjAddr: 0x29260, symBinAddr: 0x10002AEA0, symSize: 0x20 }
  - { offsetInCU: 0x470E8, offset: 0x470E8, size: 0x8, addend: 0x0, symName: __ZNKSt3__113match_resultsIPKcNS_9allocatorINS_9sub_matchIS2_EEEEE6suffixB7v160006Ev, symObjAddr: 0x29280, symBinAddr: 0x10002AEC0, symSize: 0x20 }
  - { offsetInCU: 0x4710E, offset: 0x4710E, size: 0x8, addend: 0x0, symName: __ZNKSt3__113match_resultsIPKcNS_9allocatorINS_9sub_matchIS2_EEEEE5readyB7v160006Ev, symObjAddr: 0x292A0, symBinAddr: 0x10002AEE0, symSize: 0x20 }
  - { offsetInCU: 0x47134, offset: 0x47134, size: 0x8, addend: 0x0, symName: __ZNSt3__16vectorINS_9sub_matchINS_11__wrap_iterIPKcEEEENS_9allocatorIS6_EEE8__appendEm, symObjAddr: 0x292C0, symBinAddr: 0x10002AF00, symSize: 0x100 }
  - { offsetInCU: 0x4718F, offset: 0x4718F, size: 0x8, addend: 0x0, symName: __ZNSt3__16vectorINS_9sub_matchINS_11__wrap_iterIPKcEEEENS_9allocatorIS6_EEE17__destruct_at_endB7v160006EPS6_, symObjAddr: 0x293C0, symBinAddr: 0x10002B000, symSize: 0x60 }
  - { offsetInCU: 0x471D3, offset: 0x471D3, size: 0x8, addend: 0x0, symName: __ZNSt3__16vectorINS_9sub_matchINS_11__wrap_iterIPKcEEEENS_9allocatorIS6_EEE18__construct_at_endEm, symObjAddr: 0x29420, symBinAddr: 0x10002B060, symSize: 0xC0 }
  - { offsetInCU: 0x47245, offset: 0x47245, size: 0x8, addend: 0x0, symName: __ZNKSt3__16vectorINS_9sub_matchINS_11__wrap_iterIPKcEEEENS_9allocatorIS6_EEE11__recommendB7v160006Em, symObjAddr: 0x294E0, symBinAddr: 0x10002B120, symSize: 0xA0 }
  - { offsetInCU: 0x4729A, offset: 0x4729A, size: 0x8, addend: 0x0, symName: __ZNSt3__114__split_bufferINS_9sub_matchINS_11__wrap_iterIPKcEEEERNS_9allocatorIS6_EEEC1EmmS9_, symObjAddr: 0x29580, symBinAddr: 0x10002B1C0, symSize: 0x40 }
  - { offsetInCU: 0x472F0, offset: 0x472F0, size: 0x8, addend: 0x0, symName: __ZNSt3__114__split_bufferINS_9sub_matchINS_11__wrap_iterIPKcEEEERNS_9allocatorIS6_EEE18__construct_at_endEm, symObjAddr: 0x295C0, symBinAddr: 0x10002B200, symSize: 0xB0 }
  - { offsetInCU: 0x47333, offset: 0x47333, size: 0x8, addend: 0x0, symName: __ZNSt3__114__split_bufferINS_9sub_matchINS_11__wrap_iterIPKcEEEERNS_9allocatorIS6_EEED1Ev, symObjAddr: 0x297A0, symBinAddr: 0x10002B3E0, symSize: 0x20 }
  - { offsetInCU: 0x4735F, offset: 0x4735F, size: 0x8, addend: 0x0, symName: __ZNSt3__116allocator_traitsINS_9allocatorINS_9sub_matchINS_11__wrap_iterIPKcEEEEEEE9constructB7v160006IS7_JEvEEvRS8_PT_DpOT0_, symObjAddr: 0x297C0, symBinAddr: 0x10002B400, symSize: 0x30 }
  - { offsetInCU: 0x473A1, offset: 0x473A1, size: 0x8, addend: 0x0, symName: __ZNSt3__19allocatorINS_9sub_matchINS_11__wrap_iterIPKcEEEEE9constructB7v160006IS6_JEEEvPT_DpOT0_, symObjAddr: 0x297F0, symBinAddr: 0x10002B430, symSize: 0x20 }
  - { offsetInCU: 0x473E3, offset: 0x473E3, size: 0x8, addend: 0x0, symName: __ZNSt3__114__split_bufferINS_9sub_matchINS_11__wrap_iterIPKcEEEERNS_9allocatorIS6_EEEC2EmmS9_, symObjAddr: 0x29810, symBinAddr: 0x10002B450, symSize: 0xC0 }
  - { offsetInCU: 0x47456, offset: 0x47456, size: 0x8, addend: 0x0, symName: __ZNSt3__117__compressed_pairIPNS_9sub_matchINS_11__wrap_iterIPKcEEEERNS_9allocatorIS6_EEEC1B7v160006IDnSA_EEOT_OT0_, symObjAddr: 0x298D0, symBinAddr: 0x10002B510, symSize: 0x30 }
  - { offsetInCU: 0x474AE, offset: 0x474AE, size: 0x8, addend: 0x0, symName: __ZNSt3__114__split_bufferINS_9sub_matchINS_11__wrap_iterIPKcEEEERNS_9allocatorIS6_EEE7__allocB7v160006Ev, symObjAddr: 0x29900, symBinAddr: 0x10002B540, symSize: 0x20 }
  - { offsetInCU: 0x474D4, offset: 0x474D4, size: 0x8, addend: 0x0, symName: __ZNSt3__114__split_bufferINS_9sub_matchINS_11__wrap_iterIPKcEEEERNS_9allocatorIS6_EEE9__end_capB7v160006Ev, symObjAddr: 0x29920, symBinAddr: 0x10002B560, symSize: 0x20 }
  - { offsetInCU: 0x474FA, offset: 0x474FA, size: 0x8, addend: 0x0, symName: __ZNSt3__117__compressed_pairIPNS_9sub_matchINS_11__wrap_iterIPKcEEEERNS_9allocatorIS6_EEEC2B7v160006IDnSA_EEOT_OT0_, symObjAddr: 0x29940, symBinAddr: 0x10002B580, symSize: 0x40 }
  - { offsetInCU: 0x47552, offset: 0x47552, size: 0x8, addend: 0x0, symName: __ZNSt3__122__compressed_pair_elemIRNS_9allocatorINS_9sub_matchINS_11__wrap_iterIPKcEEEEEELi1ELb0EEC2B7v160006IS9_vEEOT_, symObjAddr: 0x29980, symBinAddr: 0x10002B5C0, symSize: 0x20 }
  - { offsetInCU: 0x47594, offset: 0x47594, size: 0x8, addend: 0x0, symName: __ZNSt3__117__compressed_pairIPNS_9sub_matchINS_11__wrap_iterIPKcEEEERNS_9allocatorIS6_EEE6secondB7v160006Ev, symObjAddr: 0x299A0, symBinAddr: 0x10002B5E0, symSize: 0x20 }
  - { offsetInCU: 0x475BA, offset: 0x475BA, size: 0x8, addend: 0x0, symName: __ZNSt3__122__compressed_pair_elemIRNS_9allocatorINS_9sub_matchINS_11__wrap_iterIPKcEEEEEELi1ELb0EE5__getB7v160006Ev, symObjAddr: 0x299C0, symBinAddr: 0x10002B600, symSize: 0x20 }
  - { offsetInCU: 0x475E0, offset: 0x475E0, size: 0x8, addend: 0x0, symName: __ZNSt3__117__compressed_pairIPNS_9sub_matchINS_11__wrap_iterIPKcEEEERNS_9allocatorIS6_EEE5firstB7v160006Ev, symObjAddr: 0x299E0, symBinAddr: 0x10002B620, symSize: 0x20 }
  - { offsetInCU: 0x47610, offset: 0x47610, size: 0x8, addend: 0x0, symName: __ZNSt3__114__split_bufferINS_9sub_matchINS_11__wrap_iterIPKcEEEERNS_9allocatorIS6_EEE21_ConstructTransactionC1B7v160006EPPS6_m, symObjAddr: 0x29A00, symBinAddr: 0x10002B640, symSize: 0x30 }
  - { offsetInCU: 0x47656, offset: 0x47656, size: 0x8, addend: 0x0, symName: __ZNSt3__114__split_bufferINS_9sub_matchINS_11__wrap_iterIPKcEEEERNS_9allocatorIS6_EEE21_ConstructTransactionD1B7v160006Ev, symObjAddr: 0x29A30, symBinAddr: 0x10002B670, symSize: 0x20 }
  - { offsetInCU: 0x47680, offset: 0x47680, size: 0x8, addend: 0x0, symName: __ZNSt3__114__split_bufferINS_9sub_matchINS_11__wrap_iterIPKcEEEERNS_9allocatorIS6_EEE21_ConstructTransactionC2B7v160006EPPS6_m, symObjAddr: 0x29A50, symBinAddr: 0x10002B690, symSize: 0x40 }
  - { offsetInCU: 0x476C6, offset: 0x476C6, size: 0x8, addend: 0x0, symName: __ZNSt3__114__split_bufferINS_9sub_matchINS_11__wrap_iterIPKcEEEERNS_9allocatorIS6_EEE21_ConstructTransactionD2B7v160006Ev, symObjAddr: 0x29A90, symBinAddr: 0x10002B6D0, symSize: 0x20 }
  - { offsetInCU: 0x476F0, offset: 0x476F0, size: 0x8, addend: 0x0, symName: __ZNSt3__129_AllocatorDestroyRangeReverseINS_9allocatorINS_9sub_matchINS_11__wrap_iterIPKcEEEEEENS_16reverse_iteratorIPS7_EEEC1B7v160006ERS8_RSB_SE_, symObjAddr: 0x29CD0, symBinAddr: 0x10002B910, symSize: 0x40 }
  - { offsetInCU: 0x4774D, offset: 0x4774D, size: 0x8, addend: 0x0, symName: __ZNSt3__116allocator_traitsINS_9allocatorINS_9sub_matchINS_11__wrap_iterIPKcEEEEEEE9constructB7v160006IS7_JS7_EvEEvRS8_PT_DpOT0_, symObjAddr: 0x29D10, symBinAddr: 0x10002B950, symSize: 0x30 }
  - { offsetInCU: 0x477A4, offset: 0x477A4, size: 0x8, addend: 0x0, symName: __ZNSt3__128__exception_guard_exceptionsINS_29_AllocatorDestroyRangeReverseINS_9allocatorINS_9sub_matchINS_11__wrap_iterIPKcEEEEEENS_16reverse_iteratorIPS8_EEEEE10__completeB7v160006Ev, symObjAddr: 0x29D40, symBinAddr: 0x10002B980, symSize: 0x20 }
  - { offsetInCU: 0x477CA, offset: 0x477CA, size: 0x8, addend: 0x0, symName: __ZNSt3__128__exception_guard_exceptionsINS_29_AllocatorDestroyRangeReverseINS_9allocatorINS_9sub_matchINS_11__wrap_iterIPKcEEEEEENS_16reverse_iteratorIPS8_EEEEED1B7v160006Ev, symObjAddr: 0x29D60, symBinAddr: 0x10002B9A0, symSize: 0x20 }
  - { offsetInCU: 0x477F4, offset: 0x477F4, size: 0x8, addend: 0x0, symName: __ZNSt3__128__exception_guard_exceptionsINS_29_AllocatorDestroyRangeReverseINS_9allocatorINS_9sub_matchINS_11__wrap_iterIPKcEEEEEENS_16reverse_iteratorIPS8_EEEEEC1B7v160006ESD_, symObjAddr: 0x29D80, symBinAddr: 0x10002B9C0, symSize: 0x40 }
  - { offsetInCU: 0x4782C, offset: 0x4782C, size: 0x8, addend: 0x0, symName: __ZNSt3__128__exception_guard_exceptionsINS_29_AllocatorDestroyRangeReverseINS_9allocatorINS_9sub_matchINS_11__wrap_iterIPKcEEEEEENS_16reverse_iteratorIPS8_EEEEEC2B7v160006ESD_, symObjAddr: 0x29DC0, symBinAddr: 0x10002BA00, symSize: 0x30 }
  - { offsetInCU: 0x47864, offset: 0x47864, size: 0x8, addend: 0x0, symName: __ZNSt3__129_AllocatorDestroyRangeReverseINS_9allocatorINS_9sub_matchINS_11__wrap_iterIPKcEEEEEENS_16reverse_iteratorIPS7_EEEC2B7v160006ERS8_RSB_SE_, symObjAddr: 0x29DF0, symBinAddr: 0x10002BA30, symSize: 0x40 }
  - { offsetInCU: 0x478BB, offset: 0x478BB, size: 0x8, addend: 0x0, symName: __ZNSt3__19allocatorINS_9sub_matchINS_11__wrap_iterIPKcEEEEE9constructB7v160006IS6_JS6_EEEvPT_DpOT0_, symObjAddr: 0x29E30, symBinAddr: 0x10002BA70, symSize: 0x30 }
  - { offsetInCU: 0x47911, offset: 0x47911, size: 0x8, addend: 0x0, symName: __ZNSt3__128__exception_guard_exceptionsINS_29_AllocatorDestroyRangeReverseINS_9allocatorINS_9sub_matchINS_11__wrap_iterIPKcEEEEEENS_16reverse_iteratorIPS8_EEEEED2B7v160006Ev, symObjAddr: 0x29E60, symBinAddr: 0x10002BAA0, symSize: 0x40 }
  - { offsetInCU: 0x4793B, offset: 0x4793B, size: 0x8, addend: 0x0, symName: __ZNKSt3__129_AllocatorDestroyRangeReverseINS_9allocatorINS_9sub_matchINS_11__wrap_iterIPKcEEEEEENS_16reverse_iteratorIPS7_EEEclB7v160006Ev, symObjAddr: 0x29EA0, symBinAddr: 0x10002BAE0, symSize: 0xF0 }
  - { offsetInCU: 0x47962, offset: 0x47962, size: 0x8, addend: 0x0, symName: __ZNSt3__116reverse_iteratorINS0_IPNS_9sub_matchINS_11__wrap_iterIPKcEEEEEEEC1B7v160006ES8_, symObjAddr: 0x2A000, symBinAddr: 0x10002BC40, symSize: 0x30 }
  - { offsetInCU: 0x4799A, offset: 0x4799A, size: 0x8, addend: 0x0, symName: __ZNSt3__116reverse_iteratorINS0_IPNS_9sub_matchINS_11__wrap_iterIPKcEEEEEEEppB7v160006Ev, symObjAddr: 0x2A0A0, symBinAddr: 0x10002BCE0, symSize: 0x30 }
  - { offsetInCU: 0x479C0, offset: 0x479C0, size: 0x8, addend: 0x0, symName: __ZNKSt3__116reverse_iteratorINS0_IPNS_9sub_matchINS_11__wrap_iterIPKcEEEEEEE4baseB7v160006Ev, symObjAddr: 0x2A0D0, symBinAddr: 0x10002BD10, symSize: 0x20 }
  - { offsetInCU: 0x479EC, offset: 0x479EC, size: 0x8, addend: 0x0, symName: __ZNSt3__119__to_address_helperINS_16reverse_iteratorINS1_IPNS_9sub_matchINS_11__wrap_iterIPKcEEEEEEEEvE6__callB7v160006ERKSA_, symObjAddr: 0x2A0F0, symBinAddr: 0x10002BD30, symSize: 0x40 }
  - { offsetInCU: 0x47A0F, offset: 0x47A0F, size: 0x8, addend: 0x0, symName: __ZNKSt3__116reverse_iteratorINS0_IPNS_9sub_matchINS_11__wrap_iterIPKcEEEEEEEptB7v160006Ev, symObjAddr: 0x2A130, symBinAddr: 0x10002BD70, symSize: 0x20 }
  - { offsetInCU: 0x47A35, offset: 0x47A35, size: 0x8, addend: 0x0, symName: __ZNKSt3__116reverse_iteratorINS0_IPNS_9sub_matchINS_11__wrap_iterIPKcEEEEEEEdeB7v160006Ev, symObjAddr: 0x2A150, symBinAddr: 0x10002BD90, symSize: 0x40 }
  - { offsetInCU: 0x47A69, offset: 0x47A69, size: 0x8, addend: 0x0, symName: __ZNSt3__116reverse_iteratorIPNS_9sub_matchINS_11__wrap_iterIPKcEEEEEmmB7v160006Ev, symObjAddr: 0x2A190, symBinAddr: 0x10002BDD0, symSize: 0x20 }
  - { offsetInCU: 0x47A8F, offset: 0x47A8F, size: 0x8, addend: 0x0, symName: __ZNSt3__116reverse_iteratorINS0_IPNS_9sub_matchINS_11__wrap_iterIPKcEEEEEEEC2B7v160006ES8_, symObjAddr: 0x2A1B0, symBinAddr: 0x10002BDF0, symSize: 0x40 }
  - { offsetInCU: 0x47AC7, offset: 0x47AC7, size: 0x8, addend: 0x0, symName: __ZNSt3__114__split_bufferINS_9sub_matchINS_11__wrap_iterIPKcEEEERNS_9allocatorIS6_EEED2Ev, symObjAddr: 0x2A1F0, symBinAddr: 0x10002BE30, symSize: 0x70 }
  - { offsetInCU: 0x47AF3, offset: 0x47AF3, size: 0x8, addend: 0x0, symName: __ZNSt3__114__split_bufferINS_9sub_matchINS_11__wrap_iterIPKcEEEERNS_9allocatorIS6_EEE5clearB7v160006Ev, symObjAddr: 0x2A260, symBinAddr: 0x10002BEA0, symSize: 0x20 }
  - { offsetInCU: 0x47B19, offset: 0x47B19, size: 0x8, addend: 0x0, symName: __ZNKSt3__114__split_bufferINS_9sub_matchINS_11__wrap_iterIPKcEEEERNS_9allocatorIS6_EEE8capacityB7v160006Ev, symObjAddr: 0x2A280, symBinAddr: 0x10002BEC0, symSize: 0x40 }
  - { offsetInCU: 0x47B3F, offset: 0x47B3F, size: 0x8, addend: 0x0, symName: __ZNSt3__114__split_bufferINS_9sub_matchINS_11__wrap_iterIPKcEEEERNS_9allocatorIS6_EEE17__destruct_at_endB7v160006EPS6_, symObjAddr: 0x2A2C0, symBinAddr: 0x10002BF00, symSize: 0x30 }
  - { offsetInCU: 0x47B73, offset: 0x47B73, size: 0x8, addend: 0x0, symName: __ZNSt3__114__split_bufferINS_9sub_matchINS_11__wrap_iterIPKcEEEERNS_9allocatorIS6_EEE17__destruct_at_endB7v160006EPS6_NS_17integral_constantIbLb0EEE, symObjAddr: 0x2A2F0, symBinAddr: 0x10002BF30, symSize: 0x80 }
  - { offsetInCU: 0x47BB3, offset: 0x47BB3, size: 0x8, addend: 0x0, symName: __ZNKSt3__114__split_bufferINS_9sub_matchINS_11__wrap_iterIPKcEEEERNS_9allocatorIS6_EEE9__end_capB7v160006Ev, symObjAddr: 0x2A370, symBinAddr: 0x10002BFB0, symSize: 0x20 }
  - { offsetInCU: 0x47BD9, offset: 0x47BD9, size: 0x8, addend: 0x0, symName: __ZNKSt3__117__compressed_pairIPNS_9sub_matchINS_11__wrap_iterIPKcEEEERNS_9allocatorIS6_EEE5firstB7v160006Ev, symObjAddr: 0x2A390, symBinAddr: 0x10002BFD0, symSize: 0x20 }
  - { offsetInCU: 0x47BFF, offset: 0x47BFF, size: 0x8, addend: 0x0, symName: __ZNSt3__16vectorINS_9sub_matchINS_11__wrap_iterIPKcEEEENS_9allocatorIS6_EEE27__invalidate_iterators_pastB7v160006EPS6_, symObjAddr: 0x2A3B0, symBinAddr: 0x10002BFF0, symSize: 0x10 }
  - { offsetInCU: 0x47C36, offset: 0x47C36, size: 0x8, addend: 0x0, symName: __ZNKSt3__16vectorINS_9sub_matchINS_11__wrap_iterIPKcEEEENS_9allocatorIS6_EEE17__annotate_shrinkB7v160006Em, symObjAddr: 0x2A3C0, symBinAddr: 0x10002C000, symSize: 0xA0 }
  - { offsetInCU: 0x47C6B, offset: 0x47C6B, size: 0x8, addend: 0x0, symName: __ZNSt3__111__wrap_iterIPKcEpLB7v160006El, symObjAddr: 0x2A4E0, symBinAddr: 0x10002C120, symSize: 0x20 }
  - { offsetInCU: 0x47C9F, offset: 0x47C9F, size: 0x8, addend: 0x0, symName: __ZNSt3__114regex_iteratorINS_11__wrap_iterIPKcEEcNS_12regex_traitsIcEEEC2Ev, symObjAddr: 0x2A500, symBinAddr: 0x10002C140, symSize: 0x50 }
  - { offsetInCU: 0x47CCB, offset: 0x47CCB, size: 0x8, addend: 0x0, symName: __ZNKSt3__113match_resultsINS_11__wrap_iterIPKcEENS_9allocatorINS_9sub_matchIS4_EEEEEixB7v160006Em, symObjAddr: 0x2A550, symBinAddr: 0x10002C190, symSize: 0x70 }
  - { offsetInCU: 0x47D0C, offset: 0x47D0C, size: 0x8, addend: 0x0, symName: __ZNSt3__113match_resultsINS_11__wrap_iterIPKcEENS_9allocatorINS_9sub_matchIS4_EEEEEaSEOS9_, symObjAddr: 0x2A5C0, symBinAddr: 0x10002C200, symSize: 0x80 }
  - { offsetInCU: 0x47D3E, offset: 0x47D3E, size: 0x8, addend: 0x0, symName: __ZNKSt3__16vectorINS_9sub_matchINS_11__wrap_iterIPKcEEEENS_9allocatorIS6_EEEixB7v160006Em, symObjAddr: 0x2A640, symBinAddr: 0x10002C280, symSize: 0x20 }
  - { offsetInCU: 0x47D75, offset: 0x47D75, size: 0x8, addend: 0x0, symName: __ZNSt3__16vectorINS_9sub_matchINS_11__wrap_iterIPKcEEEENS_9allocatorIS6_EEEaSB7v160006EOS9_, symObjAddr: 0x2A660, symBinAddr: 0x10002C2A0, symSize: 0x30 }
  - { offsetInCU: 0x47DB1, offset: 0x47DB1, size: 0x8, addend: 0x0, symName: __ZNSt3__19sub_matchINS_11__wrap_iterIPKcEEEaSEOS5_, symObjAddr: 0x2A690, symBinAddr: 0x10002C2D0, symSize: 0x40 }
  - { offsetInCU: 0x47DE3, offset: 0x47DE3, size: 0x8, addend: 0x0, symName: __ZNSt3__16vectorINS_9sub_matchINS_11__wrap_iterIPKcEEEENS_9allocatorIS6_EEE13__move_assignERS9_NS_17integral_constantIbLb1EEE, symObjAddr: 0x2A6D0, symBinAddr: 0x10002C310, symSize: 0xB0 }
  - { offsetInCU: 0x47E25, offset: 0x47E25, size: 0x8, addend: 0x0, symName: __ZNSt3__16vectorINS_9sub_matchINS_11__wrap_iterIPKcEEEENS_9allocatorIS6_EEE13__vdeallocateEv, symObjAddr: 0x2A780, symBinAddr: 0x10002C3C0, symSize: 0x80 }
  - { offsetInCU: 0x47E4D, offset: 0x47E4D, size: 0x8, addend: 0x0, symName: __ZNSt3__16vectorINS_9sub_matchINS_11__wrap_iterIPKcEEEENS_9allocatorIS6_EEE19__move_assign_allocB7v160006ERS9_, symObjAddr: 0x2A800, symBinAddr: 0x10002C440, symSize: 0x30 }
  - { offsetInCU: 0x47E82, offset: 0x47E82, size: 0x8, addend: 0x0, symName: __ZNSt3__16vectorINS_9sub_matchINS_11__wrap_iterIPKcEEEENS_9allocatorIS6_EEE5clearB7v160006Ev, symObjAddr: 0x2A840, symBinAddr: 0x10002C480, symSize: 0x50 }
  - { offsetInCU: 0x47EB7, offset: 0x47EB7, size: 0x8, addend: 0x0, symName: __ZNSt3__16vectorINS_9sub_matchINS_11__wrap_iterIPKcEEEENS_9allocatorIS6_EEE19__move_assign_allocB7v160006ERS9_NS_17integral_constantIbLb1EEE, symObjAddr: 0x2A890, symBinAddr: 0x10002C4D0, symSize: 0x30 }
  - { offsetInCU: 0x47EF7, offset: 0x47EF7, size: 0x8, addend: 0x0, symName: __ZNSt3__14pairINS_11__wrap_iterIPKcEES4_EaSB7v160006EOS5_, symObjAddr: 0x2A8C0, symBinAddr: 0x10002C500, symSize: 0x30 }
  - { offsetInCU: 0x47F2C, offset: 0x47F2C, size: 0x8, addend: 0x0, symName: __ZNKSt3__19sub_matchINS_11__wrap_iterIPKcEEE3strB7v160006Ev, symObjAddr: 0x2A8F0, symBinAddr: 0x10002C530, symSize: 0x70 }
  - { offsetInCU: 0x47F52, offset: 0x47F52, size: 0x8, addend: 0x0, symName: __ZNSt3__112basic_stringIcNS_11char_traitsIcEENS_9allocatorIcEEEC1B7v160006INS_11__wrap_iterIPKcEEvEET_SB_, symObjAddr: 0x2A960, symBinAddr: 0x10002C5A0, symSize: 0x30 }
  - { offsetInCU: 0x47FA4, offset: 0x47FA4, size: 0x8, addend: 0x0, symName: __ZNSt3__112basic_stringIcNS_11char_traitsIcEENS_9allocatorIcEEEC2B7v160006INS_11__wrap_iterIPKcEEvEET_SB_, symObjAddr: 0x2A990, symBinAddr: 0x10002C5D0, symSize: 0x60 }
  - { offsetInCU: 0x47FF6, offset: 0x47FF6, size: 0x8, addend: 0x0, symName: __ZNSt3__112basic_stringIcNS_11char_traitsIcEENS_9allocatorIcEEE6__initINS_11__wrap_iterIPKcEEEENS_9enable_ifIXsr27__is_cpp17_forward_iteratorIT_EE5valueEvE4typeESC_SC_, symObjAddr: 0x2A9F0, symBinAddr: 0x10002C630, symSize: 0x180 }
  - { offsetInCU: 0x48081, offset: 0x48081, size: 0x8, addend: 0x0, symName: __ZNKSt3__113match_resultsINS_11__wrap_iterIPKcEENS_9allocatorINS_9sub_matchIS4_EEEEE5emptyB7v160006Ev, symObjAddr: 0x2AC20, symBinAddr: 0x10002C860, symSize: 0x30 }
  - { offsetInCU: 0x480A7, offset: 0x480A7, size: 0x8, addend: 0x0, symName: __ZNKSt3__113match_resultsINS_11__wrap_iterIPKcEENS_9allocatorINS_9sub_matchIS4_EEEEE4sizeB7v160006Ev, symObjAddr: 0x2AC80, symBinAddr: 0x10002C8C0, symSize: 0x20 }
  - { offsetInCU: 0x480CD, offset: 0x480CD, size: 0x8, addend: 0x0, symName: __ZNKSt3__19sub_matchINS_11__wrap_iterIPKcEEE7compareB7v160006ERKS5_, symObjAddr: 0x2ACA0, symBinAddr: 0x10002C8E0, symSize: 0x80 }
  - { offsetInCU: 0x48102, offset: 0x48102, size: 0x8, addend: 0x0, symName: __ZNSt3__116allocator_traitsINS_9allocatorIcEEE37select_on_container_copy_constructionB7v160006IS2_vvEES2_RKS2_, symObjAddr: 0x2AD20, symBinAddr: 0x10002C960, symSize: 0x10 }
  - { offsetInCU: 0x48131, offset: 0x48131, size: 0x8, addend: 0x0, symName: __ZNKSt3__112basic_stringIcNS_11char_traitsIcEENS_9allocatorIcEEE13get_allocatorB7v160006Ev, symObjAddr: 0x2AD30, symBinAddr: 0x10002C970, symSize: 0x20 }
  - { offsetInCU: 0x48157, offset: 0x48157, size: 0x8, addend: 0x0, symName: __ZNSt3__112basic_stringIcNS_11char_traitsIcEENS_9allocatorIcEEEC1B7v160006ENS_24__uninitialized_size_tagEmRKS4_, symObjAddr: 0x2AD50, symBinAddr: 0x10002C990, symSize: 0x30 }
  - { offsetInCU: 0x481AA, offset: 0x481AA, size: 0x8, addend: 0x0, symName: __ZNSt3__111char_traitsIcE4copyEPcPKcm, symObjAddr: 0x2AD80, symBinAddr: 0x10002C9C0, symSize: 0x70 }
  - { offsetInCU: 0x481E9, offset: 0x481E9, size: 0x8, addend: 0x0, symName: __ZNSt3__111char_traitsIcE6assignEPcmc, symObjAddr: 0x2ADF0, symBinAddr: 0x10002CA30, symSize: 0x40 }
  - { offsetInCU: 0x48228, offset: 0x48228, size: 0x8, addend: 0x0, symName: __ZNSt3__112basic_stringIcNS_11char_traitsIcEENS_9allocatorIcEEEC2B7v160006ENS_24__uninitialized_size_tagEmRKS4_, symObjAddr: 0x2AE30, symBinAddr: 0x10002CA70, symSize: 0x120 }
  - { offsetInCU: 0x482A9, offset: 0x482A9, size: 0x8, addend: 0x0, symName: __ZNSt3__117__compressed_pairINS_12basic_stringIcNS_11char_traitsIcEENS_9allocatorIcEEE5__repES5_EC1B7v160006INS_18__default_init_tagERKS5_EEOT_OT0_, symObjAddr: 0x2AF50, symBinAddr: 0x10002CB90, symSize: 0x30 }
  - { offsetInCU: 0x48301, offset: 0x48301, size: 0x8, addend: 0x0, symName: __ZNSt3__116allocator_traitsINS_9allocatorIcEEE8allocateB7v160006ERS2_m, symObjAddr: 0x2AF80, symBinAddr: 0x10002CBC0, symSize: 0x30 }
  - { offsetInCU: 0x48334, offset: 0x48334, size: 0x8, addend: 0x0, symName: __ZNSt3__117__compressed_pairINS_12basic_stringIcNS_11char_traitsIcEENS_9allocatorIcEEE5__repES5_EC2B7v160006INS_18__default_init_tagERKS5_EEOT_OT0_, symObjAddr: 0x2AFB0, symBinAddr: 0x10002CBF0, symSize: 0x40 }
  - { offsetInCU: 0x4838C, offset: 0x4838C, size: 0x8, addend: 0x0, symName: __ZNSt3__122__compressed_pair_elemINS_9allocatorIcEELi1ELb1EEC2B7v160006IRKS2_vEEOT_, symObjAddr: 0x2AFF0, symBinAddr: 0x10002CC30, symSize: 0x10 }
  - { offsetInCU: 0x483F4, offset: 0x483F4, size: 0x8, addend: 0x0, symName: __ZNKSt3__114__copy_trivialclB7v160006IKccLi0EEENS_4pairIPT_PT0_EES5_S5_S7_, symObjAddr: 0x2B200, symBinAddr: 0x10002CE40, symSize: 0x40 }
  - { offsetInCU: 0x4845C, offset: 0x4845C, size: 0x8, addend: 0x0, symName: __ZNSt3__14pairIPKcS2_EC1B7v160006IS2_S2_LPv0EEEOT_OT0_, symObjAddr: 0x2B350, symBinAddr: 0x10002CF90, symSize: 0x30 }
  - { offsetInCU: 0x484BA, offset: 0x484BA, size: 0x8, addend: 0x0, symName: __ZNSt3__14pairIPKcS2_EC2B7v160006IS2_S2_LPv0EEEOT_OT0_, symObjAddr: 0x2B380, symBinAddr: 0x10002CFC0, symSize: 0x30 }
  - { offsetInCU: 0x48518, offset: 0x48518, size: 0x8, addend: 0x0, symName: __ZNSt3__118__unwrap_iter_implIPKcLb1EE8__unwrapB7v160006ES2_, symObjAddr: 0x2B3B0, symBinAddr: 0x10002CFF0, symSize: 0x20 }
  - { offsetInCU: 0x48541, offset: 0x48541, size: 0x8, addend: 0x0, symName: __ZNSt3__14pairIPKcPcEC1B7v160006IRS2_S3_LPv0EEEOT_OT0_, symObjAddr: 0x2B470, symBinAddr: 0x10002D0B0, symSize: 0x30 }
  - { offsetInCU: 0x4859F, offset: 0x4859F, size: 0x8, addend: 0x0, symName: __ZNSt3__14pairIPKcPcEC2B7v160006IRS2_S3_LPv0EEEOT_OT0_, symObjAddr: 0x2B4A0, symBinAddr: 0x10002D0E0, symSize: 0x30 }
  - { offsetInCU: 0x485FD, offset: 0x485FD, size: 0x8, addend: 0x0, symName: __ZNSt3__118__unwrap_iter_implIPcLb1EE8__unwrapB7v160006ES1_, symObjAddr: 0x2B4D0, symBinAddr: 0x10002D110, symSize: 0x20 }
  - { offsetInCU: 0x48620, offset: 0x48620, size: 0x8, addend: 0x0, symName: __ZNSt3__14pairIPKcPcEC1B7v160006IS2_S3_LPv0EEEOT_OT0_, symObjAddr: 0x2B4F0, symBinAddr: 0x10002D130, symSize: 0x30 }
  - { offsetInCU: 0x4867E, offset: 0x4867E, size: 0x8, addend: 0x0, symName: __ZNSt3__14pairIPKcPcEC2B7v160006IS2_S3_LPv0EEEOT_OT0_, symObjAddr: 0x2B520, symBinAddr: 0x10002D160, symSize: 0x30 }
  - { offsetInCU: 0x486DC, offset: 0x486DC, size: 0x8, addend: 0x0, symName: __ZNSt3__118__unwrap_iter_implIPKcLb1EE8__rewrapB7v160006ES2_S2_, symObjAddr: 0x2B590, symBinAddr: 0x10002D1D0, symSize: 0x40 }
  - { offsetInCU: 0x4870D, offset: 0x4870D, size: 0x8, addend: 0x0, symName: __ZNSt3__118__unwrap_iter_implIPcLb1EE8__rewrapB7v160006ES1_S1_, symObjAddr: 0x2B5D0, symBinAddr: 0x10002D210, symSize: 0x40 }
...
